
/home/kali/Desktop/TTDN/100malware_AE_ver2/5f2c3bd9391d85c65580eab903fd7c933c37951ad1e63babdfb23d0d00a80fee.exe:     file format pei-i386
/home/kali/Desktop/TTDN/100malware_AE_ver2/5f2c3bd9391d85c65580eab903fd7c933c37951ad1e63babdfb23d0d00a80fee.exe
architecture: i386, flags 0x0000012f:
HAS_RELOC, EXEC_P, HAS_LINENO, HAS_DEBUG, HAS_LOCALS, D_PAGED
start address 0x00078e3e

Characteristics 0x102
	executable
	32 bit words

Time/Date		Wed Apr  9 21:18:19 2008
Magic			010b	(PE32)
MajorLinkerVersion	9
MinorLinkerVersion	0
SizeOfCode		0000f200
SizeOfInitializedData	0005b000
SizeOfUninitializedData	00000000
AddressOfEntryPoint	00068e3e
BaseOfCode		00000600
BaseOfData		0000f400
ImageBase		00010000
SectionAlignment	00000200
FileAlignment		00000200
MajorOSystemVersion	6
MinorOSystemVersion	1
MajorImageVersion	6
MinorImageVersion	1
MajorSubsystemVersion	5
MinorSubsystemVersion	1
Win32Version		00000000
SizeOfImage		0006a800
SizeOfHeaders		00000600
CheckSum		0006c195
Subsystem		00000001	(NT native)
DllCharacteristics	00000000
SizeOfStackReserve	00040000
SizeOfStackCommit	00001000
SizeOfHeapReserve	00100000
SizeOfHeapCommit	00001000
LoaderFlags		00000000
NumberOfRvaAndSizes	00000010

The Data Directory
Entry 0 00000000 00000000 Export Directory [.edata (or where ever we found it)]
Entry 1 00068e50 0000003c Import Directory [parts of .idata]
Entry 2 00069200 00000300 Resource Directory [.rsrc]
Entry 3 00000000 00000000 Exception Directory [.pdata]
Entry 4 00000000 00000000 Security Directory
Entry 5 00069600 00000c54 Base Relocation Directory [.reloc]
Entry 6 00000000 00000000 Debug Directory
Entry 7 00000000 00000000 Description Directory
Entry 8 00000000 00000000 Special Directory
Entry 9 00000000 00000000 Thread Storage Directory [.tls]
Entry a 00067ae8 00000040 Load Configuration Directory
Entry b 00000000 00000000 Bound Import Directory
Entry c 0000f400 0000005c Import Address Table Directory
Entry d 00000000 00000000 Delay Import Directory
Entry e 00000000 00000000 CLR Runtime Header
Entry f 00000000 00000000 Reserved

There is an import table in INIT at 0x78e50

The Import Tables (interpreted INIT section contents)
 vma:            Hint    Time      Forward  DLL       First
                 Table   Stamp     Chain    Name      Thunk
 00068e50	00068e94 00000000 00000000 00069032 0000f408

	DLL Name: ntoskrnl.exe
	vma:  Hint/Ord Member-Name Bound-To
	68f00	 1403  _allmul
	68f0a	 1401  _alldiv
	68f14	 1449  memset
	68f1e	  673  MmGetSystemRoutineAddress
	68f3a	 1479  wcsncat
	68f44	 1447  memcpy
	68f4e	  117  ExRaiseStatus
	68f5e	  483  IofCompleteRequest
	68f74	 1465  swprintf
	68f80	 1452  sprintf
	68f8a	   65  ExAllocatePoolWithTag
	68fa2	  621  KeWaitForSingleObject
	68fba	  578  KeReleaseMutex
	68fcc	  539  KeInitializeMutex
	68fe0	   66  ExAllocatePoolWithTagPriority
	69000	   78  ExFreePoolWithTag
	69014	  614  KeTickCount
	69022	  502  KeBugCheckEx
	68ee8	  816  ObfDereferenceObject
	6905c	 1184  RtlUnwind

 00068e64	00068e8c 00000000 00000000 00069054 0000f400

	DLL Name: HAL.dll
	vma:  Hint/Ord Member-Name Bound-To
	69040	   64  KeGetCurrentIrql

 00068e78	00000000 00000000 00000000 00000000 00000000


PE File Base Relocations (interpreted .reloc section contents)

Virtual Address: 00000000 Chunk size 44 (0x2c) Number of fixups 18
	reloc    0 offset  7fc [ 7fc] HIGHLOW
	reloc    1 offset  803 [ 803] HIGHLOW
	reloc    2 offset  80a [ 80a] HIGHLOW
	reloc    3 offset  811 [ 811] HIGHLOW
	reloc    4 offset  818 [ 818] HIGHLOW
	reloc    5 offset  8cf [ 8cf] HIGHLOW
	reloc    6 offset  8d6 [ 8d6] HIGHLOW
	reloc    7 offset  df2 [ df2] HIGHLOW
	reloc    8 offset  e14 [ e14] HIGHLOW
	reloc    9 offset  e36 [ e36] HIGHLOW
	reloc   10 offset  e58 [ e58] HIGHLOW
	reloc   11 offset  e7a [ e7a] HIGHLOW
	reloc   12 offset  e9c [ e9c] HIGHLOW
	reloc   13 offset  ed2 [ ed2] HIGHLOW
	reloc   14 offset  f00 [ f00] HIGHLOW
	reloc   15 offset  f3f [ f3f] HIGHLOW
	reloc   16 offset  f82 [ f82] HIGHLOW
	reloc   17 offset  faf [ faf] HIGHLOW

Virtual Address: 00001000 Chunk size 544 (0x220) Number of fixups 268
	reloc    0 offset    8 [1008] HIGHLOW
	reloc    1 offset   34 [1034] HIGHLOW
	reloc    2 offset   56 [1056] HIGHLOW
	reloc    3 offset   8c [108c] HIGHLOW
	reloc    4 offset   b8 [10b8] HIGHLOW
	reloc    5 offset   da [10da] HIGHLOW
	reloc    6 offset  110 [1110] HIGHLOW
	reloc    7 offset  150 [1150] HIGHLOW
	reloc    8 offset  17e [117e] HIGHLOW
	reloc    9 offset  1b4 [11b4] HIGHLOW
	reloc   10 offset  1e8 [11e8] HIGHLOW
	reloc   11 offset  22e [122e] HIGHLOW
	reloc   12 offset  260 [1260] HIGHLOW
	reloc   13 offset  269 [1269] HIGHLOW
	reloc   14 offset  26f [126f] HIGHLOW
	reloc   15 offset  279 [1279] HIGHLOW
	reloc   16 offset  27e [127e] HIGHLOW
	reloc   17 offset  28a [128a] HIGHLOW
	reloc   18 offset  293 [1293] HIGHLOW
	reloc   19 offset  299 [1299] HIGHLOW
	reloc   20 offset  2a3 [12a3] HIGHLOW
	reloc   21 offset  2a8 [12a8] HIGHLOW
	reloc   22 offset  2b4 [12b4] HIGHLOW
	reloc   23 offset  2bd [12bd] HIGHLOW
	reloc   24 offset  2c3 [12c3] HIGHLOW
	reloc   25 offset  2cd [12cd] HIGHLOW
	reloc   26 offset  2d2 [12d2] HIGHLOW
	reloc   27 offset  2de [12de] HIGHLOW
	reloc   28 offset  2e7 [12e7] HIGHLOW
	reloc   29 offset  2ed [12ed] HIGHLOW
	reloc   30 offset  2f7 [12f7] HIGHLOW
	reloc   31 offset  2fc [12fc] HIGHLOW
	reloc   32 offset  308 [1308] HIGHLOW
	reloc   33 offset  311 [1311] HIGHLOW
	reloc   34 offset  317 [1317] HIGHLOW
	reloc   35 offset  321 [1321] HIGHLOW
	reloc   36 offset  326 [1326] HIGHLOW
	reloc   37 offset  332 [1332] HIGHLOW
	reloc   38 offset  33b [133b] HIGHLOW
	reloc   39 offset  341 [1341] HIGHLOW
	reloc   40 offset  34b [134b] HIGHLOW
	reloc   41 offset  350 [1350] HIGHLOW
	reloc   42 offset  35c [135c] HIGHLOW
	reloc   43 offset  365 [1365] HIGHLOW
	reloc   44 offset  36b [136b] HIGHLOW
	reloc   45 offset  375 [1375] HIGHLOW
	reloc   46 offset  37a [137a] HIGHLOW
	reloc   47 offset  386 [1386] HIGHLOW
	reloc   48 offset  38f [138f] HIGHLOW
	reloc   49 offset  395 [1395] HIGHLOW
	reloc   50 offset  39f [139f] HIGHLOW
	reloc   51 offset  3a4 [13a4] HIGHLOW
	reloc   52 offset  3b0 [13b0] HIGHLOW
	reloc   53 offset  3b9 [13b9] HIGHLOW
	reloc   54 offset  3bf [13bf] HIGHLOW
	reloc   55 offset  3c9 [13c9] HIGHLOW
	reloc   56 offset  3ce [13ce] HIGHLOW
	reloc   57 offset  3da [13da] HIGHLOW
	reloc   58 offset  3e3 [13e3] HIGHLOW
	reloc   59 offset  3e9 [13e9] HIGHLOW
	reloc   60 offset  3f3 [13f3] HIGHLOW
	reloc   61 offset  3f8 [13f8] HIGHLOW
	reloc   62 offset  404 [1404] HIGHLOW
	reloc   63 offset  40d [140d] HIGHLOW
	reloc   64 offset  413 [1413] HIGHLOW
	reloc   65 offset  41d [141d] HIGHLOW
	reloc   66 offset  422 [1422] HIGHLOW
	reloc   67 offset  42e [142e] HIGHLOW
	reloc   68 offset  437 [1437] HIGHLOW
	reloc   69 offset  43d [143d] HIGHLOW
	reloc   70 offset  447 [1447] HIGHLOW
	reloc   71 offset  44c [144c] HIGHLOW
	reloc   72 offset  458 [1458] HIGHLOW
	reloc   73 offset  461 [1461] HIGHLOW
	reloc   74 offset  467 [1467] HIGHLOW
	reloc   75 offset  471 [1471] HIGHLOW
	reloc   76 offset  476 [1476] HIGHLOW
	reloc   77 offset  482 [1482] HIGHLOW
	reloc   78 offset  48b [148b] HIGHLOW
	reloc   79 offset  491 [1491] HIGHLOW
	reloc   80 offset  49b [149b] HIGHLOW
	reloc   81 offset  4a0 [14a0] HIGHLOW
	reloc   82 offset  4ac [14ac] HIGHLOW
	reloc   83 offset  4b5 [14b5] HIGHLOW
	reloc   84 offset  4bb [14bb] HIGHLOW
	reloc   85 offset  4c5 [14c5] HIGHLOW
	reloc   86 offset  4ca [14ca] HIGHLOW
	reloc   87 offset  4d6 [14d6] HIGHLOW
	reloc   88 offset  4df [14df] HIGHLOW
	reloc   89 offset  4e5 [14e5] HIGHLOW
	reloc   90 offset  4ef [14ef] HIGHLOW
	reloc   91 offset  4f4 [14f4] HIGHLOW
	reloc   92 offset  500 [1500] HIGHLOW
	reloc   93 offset  509 [1509] HIGHLOW
	reloc   94 offset  50f [150f] HIGHLOW
	reloc   95 offset  519 [1519] HIGHLOW
	reloc   96 offset  51e [151e] HIGHLOW
	reloc   97 offset  52a [152a] HIGHLOW
	reloc   98 offset  533 [1533] HIGHLOW
	reloc   99 offset  539 [1539] HIGHLOW
	reloc  100 offset  543 [1543] HIGHLOW
	reloc  101 offset  548 [1548] HIGHLOW
	reloc  102 offset  554 [1554] HIGHLOW
	reloc  103 offset  55d [155d] HIGHLOW
	reloc  104 offset  563 [1563] HIGHLOW
	reloc  105 offset  56d [156d] HIGHLOW
	reloc  106 offset  572 [1572] HIGHLOW
	reloc  107 offset  57e [157e] HIGHLOW
	reloc  108 offset  587 [1587] HIGHLOW
	reloc  109 offset  58d [158d] HIGHLOW
	reloc  110 offset  597 [1597] HIGHLOW
	reloc  111 offset  59c [159c] HIGHLOW
	reloc  112 offset  5a8 [15a8] HIGHLOW
	reloc  113 offset  5b1 [15b1] HIGHLOW
	reloc  114 offset  5b7 [15b7] HIGHLOW
	reloc  115 offset  5c1 [15c1] HIGHLOW
	reloc  116 offset  5c6 [15c6] HIGHLOW
	reloc  117 offset  5d2 [15d2] HIGHLOW
	reloc  118 offset  5db [15db] HIGHLOW
	reloc  119 offset  5e1 [15e1] HIGHLOW
	reloc  120 offset  5eb [15eb] HIGHLOW
	reloc  121 offset  5f0 [15f0] HIGHLOW
	reloc  122 offset  5fc [15fc] HIGHLOW
	reloc  123 offset  605 [1605] HIGHLOW
	reloc  124 offset  60b [160b] HIGHLOW
	reloc  125 offset  615 [1615] HIGHLOW
	reloc  126 offset  61a [161a] HIGHLOW
	reloc  127 offset  626 [1626] HIGHLOW
	reloc  128 offset  62f [162f] HIGHLOW
	reloc  129 offset  635 [1635] HIGHLOW
	reloc  130 offset  63f [163f] HIGHLOW
	reloc  131 offset  644 [1644] HIGHLOW
	reloc  132 offset  650 [1650] HIGHLOW
	reloc  133 offset  659 [1659] HIGHLOW
	reloc  134 offset  65f [165f] HIGHLOW
	reloc  135 offset  669 [1669] HIGHLOW
	reloc  136 offset  66e [166e] HIGHLOW
	reloc  137 offset  67a [167a] HIGHLOW
	reloc  138 offset  683 [1683] HIGHLOW
	reloc  139 offset  689 [1689] HIGHLOW
	reloc  140 offset  693 [1693] HIGHLOW
	reloc  141 offset  698 [1698] HIGHLOW
	reloc  142 offset  6a4 [16a4] HIGHLOW
	reloc  143 offset  6ad [16ad] HIGHLOW
	reloc  144 offset  6b3 [16b3] HIGHLOW
	reloc  145 offset  6bd [16bd] HIGHLOW
	reloc  146 offset  6c2 [16c2] HIGHLOW
	reloc  147 offset  6ce [16ce] HIGHLOW
	reloc  148 offset  6d7 [16d7] HIGHLOW
	reloc  149 offset  6dd [16dd] HIGHLOW
	reloc  150 offset  6e7 [16e7] HIGHLOW
	reloc  151 offset  6ec [16ec] HIGHLOW
	reloc  152 offset  6f8 [16f8] HIGHLOW
	reloc  153 offset  701 [1701] HIGHLOW
	reloc  154 offset  707 [1707] HIGHLOW
	reloc  155 offset  711 [1711] HIGHLOW
	reloc  156 offset  716 [1716] HIGHLOW
	reloc  157 offset  722 [1722] HIGHLOW
	reloc  158 offset  72b [172b] HIGHLOW
	reloc  159 offset  731 [1731] HIGHLOW
	reloc  160 offset  73b [173b] HIGHLOW
	reloc  161 offset  740 [1740] HIGHLOW
	reloc  162 offset  74c [174c] HIGHLOW
	reloc  163 offset  755 [1755] HIGHLOW
	reloc  164 offset  75b [175b] HIGHLOW
	reloc  165 offset  765 [1765] HIGHLOW
	reloc  166 offset  76a [176a] HIGHLOW
	reloc  167 offset  776 [1776] HIGHLOW
	reloc  168 offset  77f [177f] HIGHLOW
	reloc  169 offset  785 [1785] HIGHLOW
	reloc  170 offset  78f [178f] HIGHLOW
	reloc  171 offset  794 [1794] HIGHLOW
	reloc  172 offset  7a0 [17a0] HIGHLOW
	reloc  173 offset  7a9 [17a9] HIGHLOW
	reloc  174 offset  7af [17af] HIGHLOW
	reloc  175 offset  7b9 [17b9] HIGHLOW
	reloc  176 offset  7be [17be] HIGHLOW
	reloc  177 offset  7ca [17ca] HIGHLOW
	reloc  178 offset  7d3 [17d3] HIGHLOW
	reloc  179 offset  7d9 [17d9] HIGHLOW
	reloc  180 offset  7e3 [17e3] HIGHLOW
	reloc  181 offset  7e8 [17e8] HIGHLOW
	reloc  182 offset  7f4 [17f4] HIGHLOW
	reloc  183 offset  7fd [17fd] HIGHLOW
	reloc  184 offset  803 [1803] HIGHLOW
	reloc  185 offset  80d [180d] HIGHLOW
	reloc  186 offset  812 [1812] HIGHLOW
	reloc  187 offset  81e [181e] HIGHLOW
	reloc  188 offset  827 [1827] HIGHLOW
	reloc  189 offset  82d [182d] HIGHLOW
	reloc  190 offset  837 [1837] HIGHLOW
	reloc  191 offset  83c [183c] HIGHLOW
	reloc  192 offset  848 [1848] HIGHLOW
	reloc  193 offset  851 [1851] HIGHLOW
	reloc  194 offset  857 [1857] HIGHLOW
	reloc  195 offset  861 [1861] HIGHLOW
	reloc  196 offset  866 [1866] HIGHLOW
	reloc  197 offset  872 [1872] HIGHLOW
	reloc  198 offset  87b [187b] HIGHLOW
	reloc  199 offset  881 [1881] HIGHLOW
	reloc  200 offset  88b [188b] HIGHLOW
	reloc  201 offset  890 [1890] HIGHLOW
	reloc  202 offset  89c [189c] HIGHLOW
	reloc  203 offset  8a5 [18a5] HIGHLOW
	reloc  204 offset  8ab [18ab] HIGHLOW
	reloc  205 offset  8b5 [18b5] HIGHLOW
	reloc  206 offset  8ba [18ba] HIGHLOW
	reloc  207 offset  8c6 [18c6] HIGHLOW
	reloc  208 offset  8cf [18cf] HIGHLOW
	reloc  209 offset  8d5 [18d5] HIGHLOW
	reloc  210 offset  8df [18df] HIGHLOW
	reloc  211 offset  8e4 [18e4] HIGHLOW
	reloc  212 offset  8f0 [18f0] HIGHLOW
	reloc  213 offset  8f9 [18f9] HIGHLOW
	reloc  214 offset  8ff [18ff] HIGHLOW
	reloc  215 offset  909 [1909] HIGHLOW
	reloc  216 offset  90e [190e] HIGHLOW
	reloc  217 offset  91a [191a] HIGHLOW
	reloc  218 offset  923 [1923] HIGHLOW
	reloc  219 offset  929 [1929] HIGHLOW
	reloc  220 offset  933 [1933] HIGHLOW
	reloc  221 offset  938 [1938] HIGHLOW
	reloc  222 offset  944 [1944] HIGHLOW
	reloc  223 offset  94d [194d] HIGHLOW
	reloc  224 offset  953 [1953] HIGHLOW
	reloc  225 offset  95d [195d] HIGHLOW
	reloc  226 offset  962 [1962] HIGHLOW
	reloc  227 offset  96e [196e] HIGHLOW
	reloc  228 offset  977 [1977] HIGHLOW
	reloc  229 offset  97d [197d] HIGHLOW
	reloc  230 offset  987 [1987] HIGHLOW
	reloc  231 offset  98c [198c] HIGHLOW
	reloc  232 offset  998 [1998] HIGHLOW
	reloc  233 offset  9a1 [19a1] HIGHLOW
	reloc  234 offset  9a7 [19a7] HIGHLOW
	reloc  235 offset  9b1 [19b1] HIGHLOW
	reloc  236 offset  9b6 [19b6] HIGHLOW
	reloc  237 offset  9c2 [19c2] HIGHLOW
	reloc  238 offset  9cb [19cb] HIGHLOW
	reloc  239 offset  9d1 [19d1] HIGHLOW
	reloc  240 offset  9db [19db] HIGHLOW
	reloc  241 offset  9e0 [19e0] HIGHLOW
	reloc  242 offset  9ec [19ec] HIGHLOW
	reloc  243 offset  9f5 [19f5] HIGHLOW
	reloc  244 offset  9fb [19fb] HIGHLOW
	reloc  245 offset  a05 [1a05] HIGHLOW
	reloc  246 offset  a0a [1a0a] HIGHLOW
	reloc  247 offset  a16 [1a16] HIGHLOW
	reloc  248 offset  a1f [1a1f] HIGHLOW
	reloc  249 offset  a25 [1a25] HIGHLOW
	reloc  250 offset  a2f [1a2f] HIGHLOW
	reloc  251 offset  a34 [1a34] HIGHLOW
	reloc  252 offset  a40 [1a40] HIGHLOW
	reloc  253 offset  a49 [1a49] HIGHLOW
	reloc  254 offset  a4f [1a4f] HIGHLOW
	reloc  255 offset  a59 [1a59] HIGHLOW
	reloc  256 offset  a5e [1a5e] HIGHLOW
	reloc  257 offset  a6a [1a6a] HIGHLOW
	reloc  258 offset  a73 [1a73] HIGHLOW
	reloc  259 offset  a79 [1a79] HIGHLOW
	reloc  260 offset  a83 [1a83] HIGHLOW
	reloc  261 offset  a88 [1a88] HIGHLOW
	reloc  262 offset  ee5 [1ee5] HIGHLOW
	reloc  263 offset  f0b [1f0b] HIGHLOW
	reloc  264 offset  f35 [1f35] HIGHLOW
	reloc  265 offset  f57 [1f57] HIGHLOW
	reloc  266 offset  fa5 [1fa5] HIGHLOW
	reloc  267 offset    0 [1000] ABSOLUTE

Virtual Address: 00002000 Chunk size 92 (0x5c) Number of fixups 42
	reloc    0 offset   b9 [20b9] HIGHLOW
	reloc    1 offset   d4 [20d4] HIGHLOW
	reloc    2 offset   fb [20fb] HIGHLOW
	reloc    3 offset  11a [211a] HIGHLOW
	reloc    4 offset  12d [212d] HIGHLOW
	reloc    5 offset  14c [214c] HIGHLOW
	reloc    6 offset  23e [223e] HIGHLOW
	reloc    7 offset  387 [2387] HIGHLOW
	reloc    8 offset  399 [2399] HIGHLOW
	reloc    9 offset  3a7 [23a7] HIGHLOW
	reloc   10 offset  62a [262a] HIGHLOW
	reloc   11 offset  70a [270a] HIGHLOW
	reloc   12 offset  763 [2763] HIGHLOW
	reloc   13 offset  7de [27de] HIGHLOW
	reloc   14 offset  819 [2819] HIGHLOW
	reloc   15 offset  832 [2832] HIGHLOW
	reloc   16 offset  842 [2842] HIGHLOW
	reloc   17 offset  8d2 [28d2] HIGHLOW
	reloc   18 offset  947 [2947] HIGHLOW
	reloc   19 offset  95a [295a] HIGHLOW
	reloc   20 offset  983 [2983] HIGHLOW
	reloc   21 offset  997 [2997] HIGHLOW
	reloc   22 offset  9c9 [29c9] HIGHLOW
	reloc   23 offset  9dc [29dc] HIGHLOW
	reloc   24 offset  b5d [2b5d] HIGHLOW
	reloc   25 offset  c20 [2c20] HIGHLOW
	reloc   26 offset  c56 [2c56] HIGHLOW
	reloc   27 offset  c7b [2c7b] HIGHLOW
	reloc   28 offset  cbb [2cbb] HIGHLOW
	reloc   29 offset  d09 [2d09] HIGHLOW
	reloc   30 offset  d70 [2d70] HIGHLOW
	reloc   31 offset  db0 [2db0] HIGHLOW
	reloc   32 offset  dd1 [2dd1] HIGHLOW
	reloc   33 offset  e08 [2e08] HIGHLOW
	reloc   34 offset  e50 [2e50] HIGHLOW
	reloc   35 offset  e7e [2e7e] HIGHLOW
	reloc   36 offset  ebd [2ebd] HIGHLOW
	reloc   37 offset  f0b [2f0b] HIGHLOW
	reloc   38 offset  f72 [2f72] HIGHLOW
	reloc   39 offset  f9b [2f9b] HIGHLOW
	reloc   40 offset  fe9 [2fe9] HIGHLOW
	reloc   41 offset    0 [2000] ABSOLUTE

Virtual Address: 00003000 Chunk size 60 (0x3c) Number of fixups 26
	reloc    0 offset   31 [3031] HIGHLOW
	reloc    1 offset   88 [3088] HIGHLOW
	reloc    2 offset   b1 [30b1] HIGHLOW
	reloc    3 offset   ff [30ff] HIGHLOW
	reloc    4 offset  166 [3166] HIGHLOW
	reloc    5 offset  18f [318f] HIGHLOW
	reloc    6 offset  1dd [31dd] HIGHLOW
	reloc    7 offset  225 [3225] HIGHLOW
	reloc    8 offset  27c [327c] HIGHLOW
	reloc    9 offset  2a5 [32a5] HIGHLOW
	reloc   10 offset  2f3 [32f3] HIGHLOW
	reloc   11 offset  34c [334c] HIGHLOW
	reloc   12 offset  37b [337b] HIGHLOW
	reloc   13 offset  3b3 [33b3] HIGHLOW
	reloc   14 offset  5e4 [35e4] HIGHLOW
	reloc   15 offset  74a [374a] HIGHLOW
	reloc   16 offset  841 [3841] HIGHLOW
	reloc   17 offset  85e [385e] HIGHLOW
	reloc   18 offset  8a9 [38a9] HIGHLOW
	reloc   19 offset  8c6 [38c6] HIGHLOW
	reloc   20 offset  acd [3acd] HIGHLOW
	reloc   21 offset  b2d [3b2d] HIGHLOW
	reloc   22 offset  d75 [3d75] HIGHLOW
	reloc   23 offset  e30 [3e30] HIGHLOW
	reloc   24 offset  e5a [3e5a] HIGHLOW
	reloc   25 offset    0 [3000] ABSOLUTE

Virtual Address: 00004000 Chunk size 120 (0x78) Number of fixups 56
	reloc    0 offset   dd [40dd] HIGHLOW
	reloc    1 offset  198 [4198] HIGHLOW
	reloc    2 offset  1c2 [41c2] HIGHLOW
	reloc    3 offset  4d5 [44d5] HIGHLOW
	reloc    4 offset  523 [4523] HIGHLOW
	reloc    5 offset  5ae [45ae] HIGHLOW
	reloc    6 offset  676 [4676] HIGHLOW
	reloc    7 offset  726 [4726] HIGHLOW
	reloc    8 offset  730 [4730] HIGHLOW
	reloc    9 offset  738 [4738] HIGHLOW
	reloc   10 offset  743 [4743] HIGHLOW
	reloc   11 offset  755 [4755] HIGHLOW
	reloc   12 offset  788 [4788] HIGHLOW
	reloc   13 offset  792 [4792] HIGHLOW
	reloc   14 offset  79a [479a] HIGHLOW
	reloc   15 offset  7a5 [47a5] HIGHLOW
	reloc   16 offset  7b7 [47b7] HIGHLOW
	reloc   17 offset  7ea [47ea] HIGHLOW
	reloc   18 offset  7f4 [47f4] HIGHLOW
	reloc   19 offset  7fc [47fc] HIGHLOW
	reloc   20 offset  807 [4807] HIGHLOW
	reloc   21 offset  819 [4819] HIGHLOW
	reloc   22 offset  84c [484c] HIGHLOW
	reloc   23 offset  856 [4856] HIGHLOW
	reloc   24 offset  85e [485e] HIGHLOW
	reloc   25 offset  869 [4869] HIGHLOW
	reloc   26 offset  87b [487b] HIGHLOW
	reloc   27 offset  8ae [48ae] HIGHLOW
	reloc   28 offset  8b8 [48b8] HIGHLOW
	reloc   29 offset  8c0 [48c0] HIGHLOW
	reloc   30 offset  8cb [48cb] HIGHLOW
	reloc   31 offset  8dd [48dd] HIGHLOW
	reloc   32 offset  919 [4919] HIGHLOW
	reloc   33 offset  920 [4920] HIGHLOW
	reloc   34 offset  93d [493d] HIGHLOW
	reloc   35 offset  a60 [4a60] HIGHLOW
	reloc   36 offset  a6a [4a6a] HIGHLOW
	reloc   37 offset  a72 [4a72] HIGHLOW
	reloc   38 offset  a7d [4a7d] HIGHLOW
	reloc   39 offset  a8f [4a8f] HIGHLOW
	reloc   40 offset  acb [4acb] HIGHLOW
	reloc   41 offset  ad2 [4ad2] HIGHLOW
	reloc   42 offset  aef [4aef] HIGHLOW
	reloc   43 offset  c1b [4c1b] HIGHLOW
	reloc   44 offset  cd6 [4cd6] HIGHLOW
	reloc   45 offset  d00 [4d00] HIGHLOW
	reloc   46 offset  e73 [4e73] HIGHLOW
	reloc   47 offset  e99 [4e99] HIGHLOW
	reloc   48 offset  ebe [4ebe] HIGHLOW
	reloc   49 offset  ec8 [4ec8] HIGHLOW
	reloc   50 offset  ed0 [4ed0] HIGHLOW
	reloc   51 offset  edb [4edb] HIGHLOW
	reloc   52 offset  eed [4eed] HIGHLOW
	reloc   53 offset  f5f [4f5f] HIGHLOW
	reloc   54 offset  fef [4fef] HIGHLOW
	reloc   55 offset  fff [4fff] HIGHLOW

Virtual Address: 00005000 Chunk size 84 (0x54) Number of fixups 38
	reloc    0 offset   18 [5018] HIGHLOW
	reloc    1 offset   2e [502e] HIGHLOW
	reloc    2 offset   38 [5038] HIGHLOW
	reloc    3 offset   bf [50bf] HIGHLOW
	reloc    4 offset   db [50db] HIGHLOW
	reloc    5 offset   eb [50eb] HIGHLOW
	reloc    6 offset  10b [510b] HIGHLOW
	reloc    7 offset  19d [519d] HIGHLOW
	reloc    8 offset  221 [5221] HIGHLOW
	reloc    9 offset  22b [522b] HIGHLOW
	reloc   10 offset  230 [5230] HIGHLOW
	reloc   11 offset  290 [5290] HIGHLOW
	reloc   12 offset  328 [5328] HIGHLOW
	reloc   13 offset  3d6 [53d6] HIGHLOW
	reloc   14 offset  445 [5445] HIGHLOW
	reloc   15 offset  500 [5500] HIGHLOW
	reloc   16 offset  52a [552a] HIGHLOW
	reloc   17 offset  69d [569d] HIGHLOW
	reloc   18 offset  6c3 [56c3] HIGHLOW
	reloc   19 offset  6f1 [56f1] HIGHLOW
	reloc   20 offset  6f8 [56f8] HIGHLOW
	reloc   21 offset  715 [5715] HIGHLOW
	reloc   22 offset  847 [5847] HIGHLOW
	reloc   23 offset  902 [5902] HIGHLOW
	reloc   24 offset  92c [592c] HIGHLOW
	reloc   25 offset  a9f [5a9f] HIGHLOW
	reloc   26 offset  ac5 [5ac5] HIGHLOW
	reloc   27 offset  af3 [5af3] HIGHLOW
	reloc   28 offset  afa [5afa] HIGHLOW
	reloc   29 offset  b17 [5b17] HIGHLOW
	reloc   30 offset  c49 [5c49] HIGHLOW
	reloc   31 offset  c50 [5c50] HIGHLOW
	reloc   32 offset  c6d [5c6d] HIGHLOW
	reloc   33 offset  d9f [5d9f] HIGHLOW
	reloc   34 offset  e5a [5e5a] HIGHLOW
	reloc   35 offset  e84 [5e84] HIGHLOW
	reloc   36 offset  ff7 [5ff7] HIGHLOW
	reloc   37 offset    0 [5000] ABSOLUTE

Virtual Address: 00006000 Chunk size 80 (0x50) Number of fixups 36
	reloc    0 offset   1d [601d] HIGHLOW
	reloc    1 offset   4b [604b] HIGHLOW
	reloc    2 offset   52 [6052] HIGHLOW
	reloc    3 offset   6f [606f] HIGHLOW
	reloc    4 offset  19b [619b] HIGHLOW
	reloc    5 offset  1a2 [61a2] HIGHLOW
	reloc    6 offset  1bf [61bf] HIGHLOW
	reloc    7 offset  395 [6395] HIGHLOW
	reloc    8 offset  412 [6412] HIGHLOW
	reloc    9 offset  427 [6427] HIGHLOW
	reloc   10 offset  497 [6497] HIGHLOW
	reloc   11 offset  4a7 [64a7] HIGHLOW
	reloc   12 offset  4c2 [64c2] HIGHLOW
	reloc   13 offset  622 [6622] HIGHLOW
	reloc   14 offset  70a [670a] HIGHLOW
	reloc   15 offset  79c [679c] HIGHLOW
	reloc   16 offset  822 [6822] HIGHLOW
	reloc   17 offset  8b4 [68b4] HIGHLOW
	reloc   18 offset  93a [693a] HIGHLOW
	reloc   19 offset  9b6 [69b6] HIGHLOW
	reloc   20 offset  a64 [6a64] HIGHLOW
	reloc   21 offset  aea [6aea] HIGHLOW
	reloc   22 offset  c5f [6c5f] HIGHLOW
	reloc   23 offset  c69 [6c69] HIGHLOW
	reloc   24 offset  c6e [6c6e] HIGHLOW
	reloc   25 offset  e22 [6e22] HIGHLOW
	reloc   26 offset  e37 [6e37] HIGHLOW
	reloc   27 offset  e74 [6e74] HIGHLOW
	reloc   28 offset  ead [6ead] HIGHLOW
	reloc   29 offset  ec2 [6ec2] HIGHLOW
	reloc   30 offset  f18 [6f18] HIGHLOW
	reloc   31 offset  f2d [6f2d] HIGHLOW
	reloc   32 offset  f6a [6f6a] HIGHLOW
	reloc   33 offset  fa3 [6fa3] HIGHLOW
	reloc   34 offset  fb8 [6fb8] HIGHLOW
	reloc   35 offset    0 [6000] ABSOLUTE

Virtual Address: 00007000 Chunk size 140 (0x8c) Number of fixups 66
	reloc    0 offset   60 [7060] HIGHLOW
	reloc    1 offset  1c8 [71c8] HIGHLOW
	reloc    2 offset  21c [721c] HIGHLOW
	reloc    3 offset  24f [724f] HIGHLOW
	reloc    4 offset  352 [7352] HIGHLOW
	reloc    5 offset  359 [7359] HIGHLOW
	reloc    6 offset  3cc [73cc] HIGHLOW
	reloc    7 offset  3d3 [73d3] HIGHLOW
	reloc    8 offset  437 [7437] HIGHLOW
	reloc    9 offset  43d [743d] HIGHLOW
	reloc   10 offset  5d7 [75d7] HIGHLOW
	reloc   11 offset  5e5 [75e5] HIGHLOW
	reloc   12 offset  5ec [75ec] HIGHLOW
	reloc   13 offset  649 [7649] HIGHLOW
	reloc   14 offset  6f6 [76f6] HIGHLOW
	reloc   15 offset  746 [7746] HIGHLOW
	reloc   16 offset  75d [775d] HIGHLOW
	reloc   17 offset  78b [778b] HIGHLOW
	reloc   18 offset  7a3 [77a3] HIGHLOW
	reloc   19 offset  7c5 [77c5] HIGHLOW
	reloc   20 offset  7d5 [77d5] HIGHLOW
	reloc   21 offset  7dc [77dc] HIGHLOW
	reloc   22 offset  7fa [77fa] HIGHLOW
	reloc   23 offset  801 [7801] HIGHLOW
	reloc   24 offset  806 [7806] HIGHLOW
	reloc   25 offset  819 [7819] HIGHLOW
	reloc   26 offset  820 [7820] HIGHLOW
	reloc   27 offset  825 [7825] HIGHLOW
	reloc   28 offset  838 [7838] HIGHLOW
	reloc   29 offset  83f [783f] HIGHLOW
	reloc   30 offset  844 [7844] HIGHLOW
	reloc   31 offset  857 [7857] HIGHLOW
	reloc   32 offset  85e [785e] HIGHLOW
	reloc   33 offset  863 [7863] HIGHLOW
	reloc   34 offset  876 [7876] HIGHLOW
	reloc   35 offset  87d [787d] HIGHLOW
	reloc   36 offset  882 [7882] HIGHLOW
	reloc   37 offset  895 [7895] HIGHLOW
	reloc   38 offset  89b [789b] HIGHLOW
	reloc   39 offset  8a3 [78a3] HIGHLOW
	reloc   40 offset  8aa [78aa] HIGHLOW
	reloc   41 offset  8c4 [78c4] HIGHLOW
	reloc   42 offset  8e5 [78e5] HIGHLOW
	reloc   43 offset  a05 [7a05] HIGHLOW
	reloc   44 offset  a15 [7a15] HIGHLOW
	reloc   45 offset  a5c [7a5c] HIGHLOW
	reloc   46 offset  a86 [7a86] HIGHLOW
	reloc   47 offset  ae1 [7ae1] HIGHLOW
	reloc   48 offset  afd [7afd] HIGHLOW
	reloc   49 offset  b0d [7b0d] HIGHLOW
	reloc   50 offset  b33 [7b33] HIGHLOW
	reloc   51 offset  b94 [7b94] HIGHLOW
	reloc   52 offset  bc5 [7bc5] HIGHLOW
	reloc   53 offset  bed [7bed] HIGHLOW
	reloc   54 offset  c1c [7c1c] HIGHLOW
	reloc   55 offset  c4c [7c4c] HIGHLOW
	reloc   56 offset  c53 [7c53] HIGHLOW
	reloc   57 offset  c8e [7c8e] HIGHLOW
	reloc   58 offset  cc4 [7cc4] HIGHLOW
	reloc   59 offset  ccb [7ccb] HIGHLOW
	reloc   60 offset  e50 [7e50] HIGHLOW
	reloc   61 offset  e89 [7e89] HIGHLOW
	reloc   62 offset  e90 [7e90] HIGHLOW
	reloc   63 offset  ecb [7ecb] HIGHLOW
	reloc   64 offset  f01 [7f01] HIGHLOW
	reloc   65 offset  f08 [7f08] HIGHLOW

Virtual Address: 00008000 Chunk size 132 (0x84) Number of fixups 62
	reloc    0 offset   fc [80fc] HIGHLOW
	reloc    1 offset  13e [813e] HIGHLOW
	reloc    2 offset  145 [8145] HIGHLOW
	reloc    3 offset  180 [8180] HIGHLOW
	reloc    4 offset  1b6 [81b6] HIGHLOW
	reloc    5 offset  1bd [81bd] HIGHLOW
	reloc    6 offset  2dd [82dd] HIGHLOW
	reloc    7 offset  2ed [82ed] HIGHLOW
	reloc    8 offset  3cc [83cc] HIGHLOW
	reloc    9 offset  3d8 [83d8] HIGHLOW
	reloc   10 offset  3df [83df] HIGHLOW
	reloc   11 offset  4eb [84eb] HIGHLOW
	reloc   12 offset  558 [8558] HIGHLOW
	reloc   13 offset  55f [855f] HIGHLOW
	reloc   14 offset  569 [8569] HIGHLOW
	reloc   15 offset  58f [858f] HIGHLOW
	reloc   16 offset  5ca [85ca] HIGHLOW
	reloc   17 offset  724 [8724] HIGHLOW
	reloc   18 offset  73a [873a] HIGHLOW
	reloc   19 offset  751 [8751] HIGHLOW
	reloc   20 offset  774 [8774] HIGHLOW
	reloc   21 offset  78a [878a] HIGHLOW
	reloc   22 offset  7fc [87fc] HIGHLOW
	reloc   23 offset  810 [8810] HIGHLOW
	reloc   24 offset  81e [881e] HIGHLOW
	reloc   25 offset  82c [882c] HIGHLOW
	reloc   26 offset  954 [8954] HIGHLOW
	reloc   27 offset  974 [8974] HIGHLOW
	reloc   28 offset  97b [897b] HIGHLOW
	reloc   29 offset  997 [8997] HIGHLOW
	reloc   30 offset  99f [899f] HIGHLOW
	reloc   31 offset  9d0 [89d0] HIGHLOW
	reloc   32 offset  9d8 [89d8] HIGHLOW
	reloc   33 offset  a56 [8a56] HIGHLOW
	reloc   34 offset  a5c [8a5c] HIGHLOW
	reloc   35 offset  a68 [8a68] HIGHLOW
	reloc   36 offset  a6d [8a6d] HIGHLOW
	reloc   37 offset  a79 [8a79] HIGHLOW
	reloc   38 offset  aa9 [8aa9] HIGHLOW
	reloc   39 offset  ae1 [8ae1] HIGHLOW
	reloc   40 offset  aff [8aff] HIGHLOW
	reloc   41 offset  b82 [8b82] HIGHLOW
	reloc   42 offset  bbc [8bbc] HIGHLOW
	reloc   43 offset  bdc [8bdc] HIGHLOW
	reloc   44 offset  c00 [8c00] HIGHLOW
	reloc   45 offset  c1b [8c1b] HIGHLOW
	reloc   46 offset  c2b [8c2b] HIGHLOW
	reloc   47 offset  d42 [8d42] HIGHLOW
	reloc   48 offset  d5d [8d5d] HIGHLOW
	reloc   49 offset  e21 [8e21] HIGHLOW
	reloc   50 offset  e2c [8e2c] HIGHLOW
	reloc   51 offset  e5d [8e5d] HIGHLOW
	reloc   52 offset  e67 [8e67] HIGHLOW
	reloc   53 offset  e90 [8e90] HIGHLOW
	reloc   54 offset  e9a [8e9a] HIGHLOW
	reloc   55 offset  f03 [8f03] HIGHLOW
	reloc   56 offset  f0a [8f0a] HIGHLOW
	reloc   57 offset  f1d [8f1d] HIGHLOW
	reloc   58 offset  f25 [8f25] HIGHLOW
	reloc   59 offset  f3a [8f3a] HIGHLOW
	reloc   60 offset  f53 [8f53] HIGHLOW
	reloc   61 offset  f7a [8f7a] HIGHLOW

Virtual Address: 00009000 Chunk size 144 (0x90) Number of fixups 68
	reloc    0 offset    d [900d] HIGHLOW
	reloc    1 offset   24 [9024] HIGHLOW
	reloc    2 offset   3f [903f] HIGHLOW
	reloc    3 offset   59 [9059] HIGHLOW
	reloc    4 offset   71 [9071] HIGHLOW
	reloc    5 offset   8c [908c] HIGHLOW
	reloc    6 offset   aa [90aa] HIGHLOW
	reloc    7 offset  119 [9119] HIGHLOW
	reloc    8 offset  120 [9120] HIGHLOW
	reloc    9 offset  130 [9130] HIGHLOW
	reloc   10 offset  138 [9138] HIGHLOW
	reloc   11 offset  22f [922f] HIGHLOW
	reloc   12 offset  27a [927a] HIGHLOW
	reloc   13 offset  2ca [92ca] HIGHLOW
	reloc   14 offset  30b [930b] HIGHLOW
	reloc   15 offset  33f [933f] HIGHLOW
	reloc   16 offset  34a [934a] HIGHLOW
	reloc   17 offset  37a [937a] HIGHLOW
	reloc   18 offset  3c8 [93c8] HIGHLOW
	reloc   19 offset  3cf [93cf] HIGHLOW
	reloc   20 offset  400 [9400] HIGHLOW
	reloc   21 offset  407 [9407] HIGHLOW
	reloc   22 offset  489 [9489] HIGHLOW
	reloc   23 offset  490 [9490] HIGHLOW
	reloc   24 offset  4c3 [94c3] HIGHLOW
	reloc   25 offset  558 [9558] HIGHLOW
	reloc   26 offset  595 [9595] HIGHLOW
	reloc   27 offset  59d [959d] HIGHLOW
	reloc   28 offset  5bc [95bc] HIGHLOW
	reloc   29 offset  5c4 [95c4] HIGHLOW
	reloc   30 offset  5ea [95ea] HIGHLOW
	reloc   31 offset  5f2 [95f2] HIGHLOW
	reloc   32 offset  618 [9618] HIGHLOW
	reloc   33 offset  620 [9620] HIGHLOW
	reloc   34 offset  63c [963c] HIGHLOW
	reloc   35 offset  644 [9644] HIGHLOW
	reloc   36 offset  65c [965c] HIGHLOW
	reloc   37 offset  664 [9664] HIGHLOW
	reloc   38 offset  678 [9678] HIGHLOW
	reloc   39 offset  684 [9684] HIGHLOW
	reloc   40 offset  68b [968b] HIGHLOW
	reloc   41 offset  6c1 [96c1] HIGHLOW
	reloc   42 offset  6c8 [96c8] HIGHLOW
	reloc   43 offset  6f7 [96f7] HIGHLOW
	reloc   44 offset  71c [971c] HIGHLOW
	reloc   45 offset  742 [9742] HIGHLOW
	reloc   46 offset  780 [9780] HIGHLOW
	reloc   47 offset  78d [978d] HIGHLOW
	reloc   48 offset  79a [979a] HIGHLOW
	reloc   49 offset  7ab [97ab] HIGHLOW
	reloc   50 offset  7b2 [97b2] HIGHLOW
	reloc   51 offset  7dd [97dd] HIGHLOW
	reloc   52 offset  7e4 [97e4] HIGHLOW
	reloc   53 offset  80e [980e] HIGHLOW
	reloc   54 offset  830 [9830] HIGHLOW
	reloc   55 offset  836 [9836] HIGHLOW
	reloc   56 offset  83d [983d] HIGHLOW
	reloc   57 offset  884 [9884] HIGHLOW
	reloc   58 offset  88a [988a] HIGHLOW
	reloc   59 offset  891 [9891] HIGHLOW
	reloc   60 offset  8ce [98ce] HIGHLOW
	reloc   61 offset  8e4 [98e4] HIGHLOW
	reloc   62 offset  b08 [9b08] HIGHLOW
	reloc   63 offset  d36 [9d36] HIGHLOW
	reloc   64 offset  d61 [9d61] HIGHLOW
	reloc   65 offset  d74 [9d74] HIGHLOW
	reloc   66 offset  eb6 [9eb6] HIGHLOW
	reloc   67 offset  fd2 [9fd2] HIGHLOW

Virtual Address: 0000a000 Chunk size 112 (0x70) Number of fixups 52
	reloc    0 offset   8b [a08b] HIGHLOW
	reloc    1 offset   c7 [a0c7] HIGHLOW
	reloc    2 offset  12b [a12b] HIGHLOW
	reloc    3 offset  13e [a13e] HIGHLOW
	reloc    4 offset  173 [a173] HIGHLOW
	reloc    5 offset  186 [a186] HIGHLOW
	reloc    6 offset  1e9 [a1e9] HIGHLOW
	reloc    7 offset  205 [a205] HIGHLOW
	reloc    8 offset  2a8 [a2a8] HIGHLOW
	reloc    9 offset  41d [a41d] HIGHLOW
	reloc   10 offset  423 [a423] HIGHLOW
	reloc   11 offset  435 [a435] HIGHLOW
	reloc   12 offset  43b [a43b] HIGHLOW
	reloc   13 offset  458 [a458] HIGHLOW
	reloc   14 offset  462 [a462] HIGHLOW
	reloc   15 offset  46a [a46a] HIGHLOW
	reloc   16 offset  475 [a475] HIGHLOW
	reloc   17 offset  487 [a487] HIGHLOW
	reloc   18 offset  4b0 [a4b0] HIGHLOW
	reloc   19 offset  4b6 [a4b6] HIGHLOW
	reloc   20 offset  4d4 [a4d4] HIGHLOW
	reloc   21 offset  4dc [a4dc] HIGHLOW
	reloc   22 offset  4fa [a4fa] HIGHLOW
	reloc   23 offset  502 [a502] HIGHLOW
	reloc   24 offset  544 [a544] HIGHLOW
	reloc   25 offset  566 [a566] HIGHLOW
	reloc   26 offset  58a [a58a] HIGHLOW
	reloc   27 offset  67a [a67a] HIGHLOW
	reloc   28 offset  72f [a72f] HIGHLOW
	reloc   29 offset  77d [a77d] HIGHLOW
	reloc   30 offset  7d6 [a7d6] HIGHLOW
	reloc   31 offset  824 [a824] HIGHLOW
	reloc   32 offset  864 [a864] HIGHLOW
	reloc   33 offset  929 [a929] HIGHLOW
	reloc   34 offset  999 [a999] HIGHLOW
	reloc   35 offset  a7f [aa7f] HIGHLOW
	reloc   36 offset  a8f [aa8f] HIGHLOW
	reloc   37 offset  a95 [aa95] HIGHLOW
	reloc   38 offset  aa5 [aaa5] HIGHLOW
	reloc   39 offset  ad2 [aad2] HIGHLOW
	reloc   40 offset  ad8 [aad8] HIGHLOW
	reloc   41 offset  cf3 [acf3] HIGHLOW
	reloc   42 offset  f4a [af4a] HIGHLOW
	reloc   43 offset  f50 [af50] HIGHLOW
	reloc   44 offset  f59 [af59] HIGHLOW
	reloc   45 offset  f60 [af60] HIGHLOW
	reloc   46 offset  f6b [af6b] HIGHLOW
	reloc   47 offset  f74 [af74] HIGHLOW
	reloc   48 offset  f86 [af86] HIGHLOW
	reloc   49 offset  fc5 [afc5] HIGHLOW
	reloc   50 offset  fcc [afcc] HIGHLOW
	reloc   51 offset  fe9 [afe9] HIGHLOW

Virtual Address: 0000b000 Chunk size 116 (0x74) Number of fixups 54
	reloc    0 offset  11c [b11c] HIGHLOW
	reloc    1 offset  14d [b14d] HIGHLOW
	reloc    2 offset  1ea [b1ea] HIGHLOW
	reloc    3 offset  214 [b214] HIGHLOW
	reloc    4 offset  350 [b350] HIGHLOW
	reloc    5 offset  38f [b38f] HIGHLOW
	reloc    6 offset  3b5 [b3b5] HIGHLOW
	reloc    7 offset  546 [b546] HIGHLOW
	reloc    8 offset  60e [b60e] HIGHLOW
	reloc    9 offset  68f [b68f] HIGHLOW
	reloc   10 offset  696 [b696] HIGHLOW
	reloc   11 offset  69f [b69f] HIGHLOW
	reloc   12 offset  6a5 [b6a5] HIGHLOW
	reloc   13 offset  6bc [b6bc] HIGHLOW
	reloc   14 offset  787 [b787] HIGHLOW
	reloc   15 offset  82b [b82b] HIGHLOW
	reloc   16 offset  833 [b833] HIGHLOW
	reloc   17 offset  852 [b852] HIGHLOW
	reloc   18 offset  85a [b85a] HIGHLOW
	reloc   19 offset  877 [b877] HIGHLOW
	reloc   20 offset  87f [b87f] HIGHLOW
	reloc   21 offset  885 [b885] HIGHLOW
	reloc   22 offset  88b [b88b] HIGHLOW
	reloc   23 offset  891 [b891] HIGHLOW
	reloc   24 offset  8a5 [b8a5] HIGHLOW
	reloc   25 offset  8b5 [b8b5] HIGHLOW
	reloc   26 offset  8bb [b8bb] HIGHLOW
	reloc   27 offset  8fe [b8fe] HIGHLOW
	reloc   28 offset  916 [b916] HIGHLOW
	reloc   29 offset  921 [b921] HIGHLOW
	reloc   30 offset  92b [b92b] HIGHLOW
	reloc   31 offset  982 [b982] HIGHLOW
	reloc   32 offset  9a9 [b9a9] HIGHLOW
	reloc   33 offset  a07 [ba07] HIGHLOW
	reloc   34 offset  a27 [ba27] HIGHLOW
	reloc   35 offset  a2d [ba2d] HIGHLOW
	reloc   36 offset  a41 [ba41] HIGHLOW
	reloc   37 offset  a51 [ba51] HIGHLOW
	reloc   38 offset  a57 [ba57] HIGHLOW
	reloc   39 offset  a68 [ba68] HIGHLOW
	reloc   40 offset  a86 [ba86] HIGHLOW
	reloc   41 offset  aa1 [baa1] HIGHLOW
	reloc   42 offset  ac4 [bac4] HIGHLOW
	reloc   43 offset  b01 [bb01] HIGHLOW
	reloc   44 offset  b07 [bb07] HIGHLOW
	reloc   45 offset  bbd [bbbd] HIGHLOW
	reloc   46 offset  bcc [bbcc] HIGHLOW
	reloc   47 offset  d86 [bd86] HIGHLOW
	reloc   48 offset  e3e [be3e] HIGHLOW
	reloc   49 offset  e60 [be60] HIGHLOW
	reloc   50 offset  e9e [be9e] HIGHLOW
	reloc   51 offset  ede [bede] HIGHLOW
	reloc   52 offset  ef2 [bef2] HIGHLOW
	reloc   53 offset    0 [b000] ABSOLUTE

Virtual Address: 0000c000 Chunk size 104 (0x68) Number of fixups 48
	reloc    0 offset  2b3 [c2b3] HIGHLOW
	reloc    1 offset  3e8 [c3e8] HIGHLOW
	reloc    2 offset  3ff [c3ff] HIGHLOW
	reloc    3 offset  40d [c40d] HIGHLOW
	reloc    4 offset  47a [c47a] HIGHLOW
	reloc    5 offset  55d [c55d] HIGHLOW
	reloc    6 offset  591 [c591] HIGHLOW
	reloc    7 offset  5b9 [c5b9] HIGHLOW
	reloc    8 offset  607 [c607] HIGHLOW
	reloc    9 offset  7ab [c7ab] HIGHLOW
	reloc   10 offset  7f9 [c7f9] HIGHLOW
	reloc   11 offset  82d [c82d] HIGHLOW
	reloc   12 offset  86f [c86f] HIGHLOW
	reloc   13 offset  a01 [ca01] HIGHLOW
	reloc   14 offset  b57 [cb57] HIGHLOW
	reloc   15 offset  bcf [cbcf] HIGHLOW
	reloc   16 offset  d33 [cd33] HIGHLOW
	reloc   17 offset  d7f [cd7f] HIGHLOW
	reloc   18 offset  eb8 [ceb8] HIGHLOW
	reloc   19 offset  ebc [cebc] HIGHLOW
	reloc   20 offset  ec0 [cec0] HIGHLOW
	reloc   21 offset  ec4 [cec4] HIGHLOW
	reloc   22 offset  ec8 [cec8] HIGHLOW
	reloc   23 offset  ecc [cecc] HIGHLOW
	reloc   24 offset  ed0 [ced0] HIGHLOW
	reloc   25 offset  ed4 [ced4] HIGHLOW
	reloc   26 offset  ed8 [ced8] HIGHLOW
	reloc   27 offset  edc [cedc] HIGHLOW
	reloc   28 offset  ee0 [cee0] HIGHLOW
	reloc   29 offset  ee4 [cee4] HIGHLOW
	reloc   30 offset  ee8 [cee8] HIGHLOW
	reloc   31 offset  eec [ceec] HIGHLOW
	reloc   32 offset  ef0 [cef0] HIGHLOW
	reloc   33 offset  ef4 [cef4] HIGHLOW
	reloc   34 offset  ef8 [cef8] HIGHLOW
	reloc   35 offset  efc [cefc] HIGHLOW
	reloc   36 offset  f00 [cf00] HIGHLOW
	reloc   37 offset  f04 [cf04] HIGHLOW
	reloc   38 offset  f08 [cf08] HIGHLOW
	reloc   39 offset  f0c [cf0c] HIGHLOW
	reloc   40 offset  f10 [cf10] HIGHLOW
	reloc   41 offset  f14 [cf14] HIGHLOW
	reloc   42 offset  f18 [cf18] HIGHLOW
	reloc   43 offset  f1c [cf1c] HIGHLOW
	reloc   44 offset  f20 [cf20] HIGHLOW
	reloc   45 offset  f24 [cf24] HIGHLOW
	reloc   46 offset  f28 [cf28] HIGHLOW
	reloc   47 offset    0 [c000] ABSOLUTE

Virtual Address: 0000d000 Chunk size 144 (0x90) Number of fixups 68
	reloc    0 offset  30f [d30f] HIGHLOW
	reloc    1 offset  318 [d318] HIGHLOW
	reloc    2 offset  32e [d32e] HIGHLOW
	reloc    3 offset  39e [d39e] HIGHLOW
	reloc    4 offset  4e7 [d4e7] HIGHLOW
	reloc    5 offset  4ee [d4ee] HIGHLOW
	reloc    6 offset  502 [d502] HIGHLOW
	reloc    7 offset  50c [d50c] HIGHLOW
	reloc    8 offset  9e8 [d9e8] HIGHLOW
	reloc    9 offset  a1f [da1f] HIGHLOW
	reloc   10 offset  a28 [da28] HIGHLOW
	reloc   11 offset  a34 [da34] HIGHLOW
	reloc   12 offset  a3d [da3d] HIGHLOW
	reloc   13 offset  a54 [da54] HIGHLOW
	reloc   14 offset  a5d [da5d] HIGHLOW
	reloc   15 offset  a69 [da69] HIGHLOW
	reloc   16 offset  a72 [da72] HIGHLOW
	reloc   17 offset  a86 [da86] HIGHLOW
	reloc   18 offset  a92 [da92] HIGHLOW
	reloc   19 offset  a9e [da9e] HIGHLOW
	reloc   20 offset  aa7 [daa7] HIGHLOW
	reloc   21 offset  abe [dabe] HIGHLOW
	reloc   22 offset  ac7 [dac7] HIGHLOW
	reloc   23 offset  ad3 [dad3] HIGHLOW
	reloc   24 offset  adc [dadc] HIGHLOW
	reloc   25 offset  af0 [daf0] HIGHLOW
	reloc   26 offset  afc [dafc] HIGHLOW
	reloc   27 offset  b08 [db08] HIGHLOW
	reloc   28 offset  b11 [db11] HIGHLOW
	reloc   29 offset  b25 [db25] HIGHLOW
	reloc   30 offset  b31 [db31] HIGHLOW
	reloc   31 offset  b3d [db3d] HIGHLOW
	reloc   32 offset  b46 [db46] HIGHLOW
	reloc   33 offset  b61 [db61] HIGHLOW
	reloc   34 offset  b6a [db6a] HIGHLOW
	reloc   35 offset  b76 [db76] HIGHLOW
	reloc   36 offset  b7f [db7f] HIGHLOW
	reloc   37 offset  b91 [db91] HIGHLOW
	reloc   38 offset  b9f [db9f] HIGHLOW
	reloc   39 offset  bab [dbab] HIGHLOW
	reloc   40 offset  bb4 [dbb4] HIGHLOW
	reloc   41 offset  bde [dbde] HIGHLOW
	reloc   42 offset  bec [dbec] HIGHLOW
	reloc   43 offset  bf8 [dbf8] HIGHLOW
	reloc   44 offset  c01 [dc01] HIGHLOW
	reloc   45 offset  c23 [dc23] HIGHLOW
	reloc   46 offset  c71 [dc71] HIGHLOW
	reloc   47 offset  c80 [dc80] HIGHLOW
	reloc   48 offset  c9e [dc9e] HIGHLOW
	reloc   49 offset  cab [dcab] HIGHLOW
	reloc   50 offset  ccb [dccb] HIGHLOW
	reloc   51 offset  cd1 [dcd1] HIGHLOW
	reloc   52 offset  cdf [dcdf] HIGHLOW
	reloc   53 offset  cec [dcec] HIGHLOW
	reloc   54 offset  cf8 [dcf8] HIGHLOW
	reloc   55 offset  d04 [dd04] HIGHLOW
	reloc   56 offset  d10 [dd10] HIGHLOW
	reloc   57 offset  d1c [dd1c] HIGHLOW
	reloc   58 offset  d28 [dd28] HIGHLOW
	reloc   59 offset  d34 [dd34] HIGHLOW
	reloc   60 offset  d41 [dd41] HIGHLOW
	reloc   61 offset  d5e [dd5e] HIGHLOW
	reloc   62 offset  db2 [ddb2] HIGHLOW
	reloc   63 offset  e90 [de90] HIGHLOW
	reloc   64 offset  ee3 [dee3] HIGHLOW
	reloc   65 offset  f11 [df11] HIGHLOW
	reloc   66 offset  f1d [df1d] HIGHLOW
	reloc   67 offset    0 [d000] ABSOLUTE

Virtual Address: 0000e000 Chunk size 16 (0x10) Number of fixups 4
	reloc    0 offset   15 [e015] HIGHLOW
	reloc    1 offset   41 [e041] HIGHLOW
	reloc    2 offset   5e [e05e] HIGHLOW
	reloc    3 offset   a6 [e0a6] HIGHLOW

Virtual Address: 00063000 Chunk size 12 (0xc) Number of fixups 2
	reloc    0 offset  f50 [63f50] HIGHLOW
	reloc    1 offset    0 [63000] ABSOLUTE

Virtual Address: 00064000 Chunk size 1008 (0x3f0) Number of fixups 500
	reloc    0 offset   5c [6405c] HIGHLOW
	reloc    1 offset   64 [64064] HIGHLOW
	reloc    2 offset   6c [6406c] HIGHLOW
	reloc    3 offset   74 [64074] HIGHLOW
	reloc    4 offset   7c [6407c] HIGHLOW
	reloc    5 offset   84 [64084] HIGHLOW
	reloc    6 offset   8c [6408c] HIGHLOW
	reloc    7 offset   94 [64094] HIGHLOW
	reloc    8 offset   9c [6409c] HIGHLOW
	reloc    9 offset   a4 [640a4] HIGHLOW
	reloc   10 offset   ac [640ac] HIGHLOW
	reloc   11 offset   b4 [640b4] HIGHLOW
	reloc   12 offset   bc [640bc] HIGHLOW
	reloc   13 offset   c4 [640c4] HIGHLOW
	reloc   14 offset   cc [640cc] HIGHLOW
	reloc   15 offset   d4 [640d4] HIGHLOW
	reloc   16 offset   dc [640dc] HIGHLOW
	reloc   17 offset   e4 [640e4] HIGHLOW
	reloc   18 offset   ec [640ec] HIGHLOW
	reloc   19 offset   f4 [640f4] HIGHLOW
	reloc   20 offset   fc [640fc] HIGHLOW
	reloc   21 offset  104 [64104] HIGHLOW
	reloc   22 offset  10c [6410c] HIGHLOW
	reloc   23 offset  114 [64114] HIGHLOW
	reloc   24 offset  11c [6411c] HIGHLOW
	reloc   25 offset  124 [64124] HIGHLOW
	reloc   26 offset  12c [6412c] HIGHLOW
	reloc   27 offset  134 [64134] HIGHLOW
	reloc   28 offset  13c [6413c] HIGHLOW
	reloc   29 offset  144 [64144] HIGHLOW
	reloc   30 offset  14c [6414c] HIGHLOW
	reloc   31 offset  154 [64154] HIGHLOW
	reloc   32 offset  15c [6415c] HIGHLOW
	reloc   33 offset  164 [64164] HIGHLOW
	reloc   34 offset  16c [6416c] HIGHLOW
	reloc   35 offset  174 [64174] HIGHLOW
	reloc   36 offset  17c [6417c] HIGHLOW
	reloc   37 offset  184 [64184] HIGHLOW
	reloc   38 offset  18c [6418c] HIGHLOW
	reloc   39 offset  194 [64194] HIGHLOW
	reloc   40 offset  19c [6419c] HIGHLOW
	reloc   41 offset  1a4 [641a4] HIGHLOW
	reloc   42 offset  1ac [641ac] HIGHLOW
	reloc   43 offset  1b4 [641b4] HIGHLOW
	reloc   44 offset  1bc [641bc] HIGHLOW
	reloc   45 offset  1c4 [641c4] HIGHLOW
	reloc   46 offset  1cc [641cc] HIGHLOW
	reloc   47 offset  1d4 [641d4] HIGHLOW
	reloc   48 offset  1dc [641dc] HIGHLOW
	reloc   49 offset  1e4 [641e4] HIGHLOW
	reloc   50 offset  1ec [641ec] HIGHLOW
	reloc   51 offset  1f4 [641f4] HIGHLOW
	reloc   52 offset  1fc [641fc] HIGHLOW
	reloc   53 offset  204 [64204] HIGHLOW
	reloc   54 offset  20c [6420c] HIGHLOW
	reloc   55 offset  214 [64214] HIGHLOW
	reloc   56 offset  21c [6421c] HIGHLOW
	reloc   57 offset  224 [64224] HIGHLOW
	reloc   58 offset  22c [6422c] HIGHLOW
	reloc   59 offset  234 [64234] HIGHLOW
	reloc   60 offset  23c [6423c] HIGHLOW
	reloc   61 offset  244 [64244] HIGHLOW
	reloc   62 offset  24c [6424c] HIGHLOW
	reloc   63 offset  254 [64254] HIGHLOW
	reloc   64 offset  25c [6425c] HIGHLOW
	reloc   65 offset  264 [64264] HIGHLOW
	reloc   66 offset  26c [6426c] HIGHLOW
	reloc   67 offset  274 [64274] HIGHLOW
	reloc   68 offset  27c [6427c] HIGHLOW
	reloc   69 offset  284 [64284] HIGHLOW
	reloc   70 offset  28c [6428c] HIGHLOW
	reloc   71 offset  294 [64294] HIGHLOW
	reloc   72 offset  29c [6429c] HIGHLOW
	reloc   73 offset  2a4 [642a4] HIGHLOW
	reloc   74 offset  2ac [642ac] HIGHLOW
	reloc   75 offset  2b4 [642b4] HIGHLOW
	reloc   76 offset  2bc [642bc] HIGHLOW
	reloc   77 offset  2c4 [642c4] HIGHLOW
	reloc   78 offset  2cc [642cc] HIGHLOW
	reloc   79 offset  2d4 [642d4] HIGHLOW
	reloc   80 offset  2dc [642dc] HIGHLOW
	reloc   81 offset  2e4 [642e4] HIGHLOW
	reloc   82 offset  2ec [642ec] HIGHLOW
	reloc   83 offset  2f4 [642f4] HIGHLOW
	reloc   84 offset  2fc [642fc] HIGHLOW
	reloc   85 offset  304 [64304] HIGHLOW
	reloc   86 offset  30c [6430c] HIGHLOW
	reloc   87 offset  314 [64314] HIGHLOW
	reloc   88 offset  31c [6431c] HIGHLOW
	reloc   89 offset  324 [64324] HIGHLOW
	reloc   90 offset  32c [6432c] HIGHLOW
	reloc   91 offset  334 [64334] HIGHLOW
	reloc   92 offset  33c [6433c] HIGHLOW
	reloc   93 offset  344 [64344] HIGHLOW
	reloc   94 offset  34c [6434c] HIGHLOW
	reloc   95 offset  354 [64354] HIGHLOW
	reloc   96 offset  35c [6435c] HIGHLOW
	reloc   97 offset  364 [64364] HIGHLOW
	reloc   98 offset  36c [6436c] HIGHLOW
	reloc   99 offset  374 [64374] HIGHLOW
	reloc  100 offset  37c [6437c] HIGHLOW
	reloc  101 offset  384 [64384] HIGHLOW
	reloc  102 offset  38c [6438c] HIGHLOW
	reloc  103 offset  394 [64394] HIGHLOW
	reloc  104 offset  39c [6439c] HIGHLOW
	reloc  105 offset  3a4 [643a4] HIGHLOW
	reloc  106 offset  3ac [643ac] HIGHLOW
	reloc  107 offset  3b4 [643b4] HIGHLOW
	reloc  108 offset  3bc [643bc] HIGHLOW
	reloc  109 offset  3c4 [643c4] HIGHLOW
	reloc  110 offset  3cc [643cc] HIGHLOW
	reloc  111 offset  3d4 [643d4] HIGHLOW
	reloc  112 offset  3dc [643dc] HIGHLOW
	reloc  113 offset  3e4 [643e4] HIGHLOW
	reloc  114 offset  3ec [643ec] HIGHLOW
	reloc  115 offset  3f4 [643f4] HIGHLOW
	reloc  116 offset  3fc [643fc] HIGHLOW
	reloc  117 offset  404 [64404] HIGHLOW
	reloc  118 offset  40c [6440c] HIGHLOW
	reloc  119 offset  414 [64414] HIGHLOW
	reloc  120 offset  41c [6441c] HIGHLOW
	reloc  121 offset  424 [64424] HIGHLOW
	reloc  122 offset  42c [6442c] HIGHLOW
	reloc  123 offset  434 [64434] HIGHLOW
	reloc  124 offset  43c [6443c] HIGHLOW
	reloc  125 offset  444 [64444] HIGHLOW
	reloc  126 offset  44c [6444c] HIGHLOW
	reloc  127 offset  454 [64454] HIGHLOW
	reloc  128 offset  45c [6445c] HIGHLOW
	reloc  129 offset  464 [64464] HIGHLOW
	reloc  130 offset  46c [6446c] HIGHLOW
	reloc  131 offset  474 [64474] HIGHLOW
	reloc  132 offset  47c [6447c] HIGHLOW
	reloc  133 offset  484 [64484] HIGHLOW
	reloc  134 offset  48c [6448c] HIGHLOW
	reloc  135 offset  494 [64494] HIGHLOW
	reloc  136 offset  49c [6449c] HIGHLOW
	reloc  137 offset  4a4 [644a4] HIGHLOW
	reloc  138 offset  4ac [644ac] HIGHLOW
	reloc  139 offset  4b4 [644b4] HIGHLOW
	reloc  140 offset  4bc [644bc] HIGHLOW
	reloc  141 offset  4c4 [644c4] HIGHLOW
	reloc  142 offset  4cc [644cc] HIGHLOW
	reloc  143 offset  4d4 [644d4] HIGHLOW
	reloc  144 offset  4dc [644dc] HIGHLOW
	reloc  145 offset  4e4 [644e4] HIGHLOW
	reloc  146 offset  4ec [644ec] HIGHLOW
	reloc  147 offset  4f4 [644f4] HIGHLOW
	reloc  148 offset  4fc [644fc] HIGHLOW
	reloc  149 offset  504 [64504] HIGHLOW
	reloc  150 offset  50c [6450c] HIGHLOW
	reloc  151 offset  514 [64514] HIGHLOW
	reloc  152 offset  51c [6451c] HIGHLOW
	reloc  153 offset  524 [64524] HIGHLOW
	reloc  154 offset  52c [6452c] HIGHLOW
	reloc  155 offset  534 [64534] HIGHLOW
	reloc  156 offset  53c [6453c] HIGHLOW
	reloc  157 offset  544 [64544] HIGHLOW
	reloc  158 offset  54c [6454c] HIGHLOW
	reloc  159 offset  554 [64554] HIGHLOW
	reloc  160 offset  55c [6455c] HIGHLOW
	reloc  161 offset  564 [64564] HIGHLOW
	reloc  162 offset  56c [6456c] HIGHLOW
	reloc  163 offset  574 [64574] HIGHLOW
	reloc  164 offset  57c [6457c] HIGHLOW
	reloc  165 offset  584 [64584] HIGHLOW
	reloc  166 offset  58c [6458c] HIGHLOW
	reloc  167 offset  594 [64594] HIGHLOW
	reloc  168 offset  59c [6459c] HIGHLOW
	reloc  169 offset  5a4 [645a4] HIGHLOW
	reloc  170 offset  5ac [645ac] HIGHLOW
	reloc  171 offset  5b4 [645b4] HIGHLOW
	reloc  172 offset  5bc [645bc] HIGHLOW
	reloc  173 offset  5c4 [645c4] HIGHLOW
	reloc  174 offset  5cc [645cc] HIGHLOW
	reloc  175 offset  5d4 [645d4] HIGHLOW
	reloc  176 offset  5dc [645dc] HIGHLOW
	reloc  177 offset  5e4 [645e4] HIGHLOW
	reloc  178 offset  5ec [645ec] HIGHLOW
	reloc  179 offset  5f4 [645f4] HIGHLOW
	reloc  180 offset  5fc [645fc] HIGHLOW
	reloc  181 offset  604 [64604] HIGHLOW
	reloc  182 offset  60c [6460c] HIGHLOW
	reloc  183 offset  614 [64614] HIGHLOW
	reloc  184 offset  61c [6461c] HIGHLOW
	reloc  185 offset  624 [64624] HIGHLOW
	reloc  186 offset  62c [6462c] HIGHLOW
	reloc  187 offset  634 [64634] HIGHLOW
	reloc  188 offset  63c [6463c] HIGHLOW
	reloc  189 offset  644 [64644] HIGHLOW
	reloc  190 offset  64c [6464c] HIGHLOW
	reloc  191 offset  654 [64654] HIGHLOW
	reloc  192 offset  65c [6465c] HIGHLOW
	reloc  193 offset  664 [64664] HIGHLOW
	reloc  194 offset  66c [6466c] HIGHLOW
	reloc  195 offset  674 [64674] HIGHLOW
	reloc  196 offset  67c [6467c] HIGHLOW
	reloc  197 offset  684 [64684] HIGHLOW
	reloc  198 offset  68c [6468c] HIGHLOW
	reloc  199 offset  694 [64694] HIGHLOW
	reloc  200 offset  69c [6469c] HIGHLOW
	reloc  201 offset  6a4 [646a4] HIGHLOW
	reloc  202 offset  6ac [646ac] HIGHLOW
	reloc  203 offset  6b4 [646b4] HIGHLOW
	reloc  204 offset  6bc [646bc] HIGHLOW
	reloc  205 offset  6c4 [646c4] HIGHLOW
	reloc  206 offset  6cc [646cc] HIGHLOW
	reloc  207 offset  6d4 [646d4] HIGHLOW
	reloc  208 offset  6dc [646dc] HIGHLOW
	reloc  209 offset  6e4 [646e4] HIGHLOW
	reloc  210 offset  6ec [646ec] HIGHLOW
	reloc  211 offset  6f4 [646f4] HIGHLOW
	reloc  212 offset  6fc [646fc] HIGHLOW
	reloc  213 offset  704 [64704] HIGHLOW
	reloc  214 offset  70c [6470c] HIGHLOW
	reloc  215 offset  714 [64714] HIGHLOW
	reloc  216 offset  71c [6471c] HIGHLOW
	reloc  217 offset  724 [64724] HIGHLOW
	reloc  218 offset  72c [6472c] HIGHLOW
	reloc  219 offset  734 [64734] HIGHLOW
	reloc  220 offset  73c [6473c] HIGHLOW
	reloc  221 offset  744 [64744] HIGHLOW
	reloc  222 offset  74c [6474c] HIGHLOW
	reloc  223 offset  754 [64754] HIGHLOW
	reloc  224 offset  75c [6475c] HIGHLOW
	reloc  225 offset  764 [64764] HIGHLOW
	reloc  226 offset  76c [6476c] HIGHLOW
	reloc  227 offset  774 [64774] HIGHLOW
	reloc  228 offset  77c [6477c] HIGHLOW
	reloc  229 offset  784 [64784] HIGHLOW
	reloc  230 offset  78c [6478c] HIGHLOW
	reloc  231 offset  794 [64794] HIGHLOW
	reloc  232 offset  79c [6479c] HIGHLOW
	reloc  233 offset  7a4 [647a4] HIGHLOW
	reloc  234 offset  7ac [647ac] HIGHLOW
	reloc  235 offset  7b4 [647b4] HIGHLOW
	reloc  236 offset  7bc [647bc] HIGHLOW
	reloc  237 offset  7c4 [647c4] HIGHLOW
	reloc  238 offset  7cc [647cc] HIGHLOW
	reloc  239 offset  7d4 [647d4] HIGHLOW
	reloc  240 offset  7dc [647dc] HIGHLOW
	reloc  241 offset  7e4 [647e4] HIGHLOW
	reloc  242 offset  7ec [647ec] HIGHLOW
	reloc  243 offset  7f4 [647f4] HIGHLOW
	reloc  244 offset  7fc [647fc] HIGHLOW
	reloc  245 offset  804 [64804] HIGHLOW
	reloc  246 offset  80c [6480c] HIGHLOW
	reloc  247 offset  814 [64814] HIGHLOW
	reloc  248 offset  81c [6481c] HIGHLOW
	reloc  249 offset  824 [64824] HIGHLOW
	reloc  250 offset  82c [6482c] HIGHLOW
	reloc  251 offset  834 [64834] HIGHLOW
	reloc  252 offset  83c [6483c] HIGHLOW
	reloc  253 offset  844 [64844] HIGHLOW
	reloc  254 offset  84c [6484c] HIGHLOW
	reloc  255 offset  854 [64854] HIGHLOW
	reloc  256 offset  864 [64864] HIGHLOW
	reloc  257 offset  86c [6486c] HIGHLOW
	reloc  258 offset  874 [64874] HIGHLOW
	reloc  259 offset  87c [6487c] HIGHLOW
	reloc  260 offset  884 [64884] HIGHLOW
	reloc  261 offset  88c [6488c] HIGHLOW
	reloc  262 offset  894 [64894] HIGHLOW
	reloc  263 offset  89c [6489c] HIGHLOW
	reloc  264 offset  8a4 [648a4] HIGHLOW
	reloc  265 offset  8ac [648ac] HIGHLOW
	reloc  266 offset  8b4 [648b4] HIGHLOW
	reloc  267 offset  8bc [648bc] HIGHLOW
	reloc  268 offset  8c4 [648c4] HIGHLOW
	reloc  269 offset  8cc [648cc] HIGHLOW
	reloc  270 offset  8d4 [648d4] HIGHLOW
	reloc  271 offset  8dc [648dc] HIGHLOW
	reloc  272 offset  8e4 [648e4] HIGHLOW
	reloc  273 offset  8ec [648ec] HIGHLOW
	reloc  274 offset  8f4 [648f4] HIGHLOW
	reloc  275 offset  8fc [648fc] HIGHLOW
	reloc  276 offset  904 [64904] HIGHLOW
	reloc  277 offset  90c [6490c] HIGHLOW
	reloc  278 offset  914 [64914] HIGHLOW
	reloc  279 offset  91c [6491c] HIGHLOW
	reloc  280 offset  924 [64924] HIGHLOW
	reloc  281 offset  92c [6492c] HIGHLOW
	reloc  282 offset  934 [64934] HIGHLOW
	reloc  283 offset  93c [6493c] HIGHLOW
	reloc  284 offset  944 [64944] HIGHLOW
	reloc  285 offset  94c [6494c] HIGHLOW
	reloc  286 offset  954 [64954] HIGHLOW
	reloc  287 offset  95c [6495c] HIGHLOW
	reloc  288 offset  964 [64964] HIGHLOW
	reloc  289 offset  96c [6496c] HIGHLOW
	reloc  290 offset  974 [64974] HIGHLOW
	reloc  291 offset  97c [6497c] HIGHLOW
	reloc  292 offset  984 [64984] HIGHLOW
	reloc  293 offset  98c [6498c] HIGHLOW
	reloc  294 offset  994 [64994] HIGHLOW
	reloc  295 offset  99c [6499c] HIGHLOW
	reloc  296 offset  9a4 [649a4] HIGHLOW
	reloc  297 offset  9ac [649ac] HIGHLOW
	reloc  298 offset  9b4 [649b4] HIGHLOW
	reloc  299 offset  9bc [649bc] HIGHLOW
	reloc  300 offset  9c4 [649c4] HIGHLOW
	reloc  301 offset  9cc [649cc] HIGHLOW
	reloc  302 offset  9d4 [649d4] HIGHLOW
	reloc  303 offset  9dc [649dc] HIGHLOW
	reloc  304 offset  9e4 [649e4] HIGHLOW
	reloc  305 offset  9ec [649ec] HIGHLOW
	reloc  306 offset  9f4 [649f4] HIGHLOW
	reloc  307 offset  9fc [649fc] HIGHLOW
	reloc  308 offset  a04 [64a04] HIGHLOW
	reloc  309 offset  a0c [64a0c] HIGHLOW
	reloc  310 offset  a14 [64a14] HIGHLOW
	reloc  311 offset  a1c [64a1c] HIGHLOW
	reloc  312 offset  a24 [64a24] HIGHLOW
	reloc  313 offset  a2c [64a2c] HIGHLOW
	reloc  314 offset  a34 [64a34] HIGHLOW
	reloc  315 offset  a3c [64a3c] HIGHLOW
	reloc  316 offset  a44 [64a44] HIGHLOW
	reloc  317 offset  a4c [64a4c] HIGHLOW
	reloc  318 offset  a54 [64a54] HIGHLOW
	reloc  319 offset  a5c [64a5c] HIGHLOW
	reloc  320 offset  a64 [64a64] HIGHLOW
	reloc  321 offset  a6c [64a6c] HIGHLOW
	reloc  322 offset  a74 [64a74] HIGHLOW
	reloc  323 offset  a7c [64a7c] HIGHLOW
	reloc  324 offset  a84 [64a84] HIGHLOW
	reloc  325 offset  a8c [64a8c] HIGHLOW
	reloc  326 offset  a94 [64a94] HIGHLOW
	reloc  327 offset  a9c [64a9c] HIGHLOW
	reloc  328 offset  aa4 [64aa4] HIGHLOW
	reloc  329 offset  aac [64aac] HIGHLOW
	reloc  330 offset  ab4 [64ab4] HIGHLOW
	reloc  331 offset  abc [64abc] HIGHLOW
	reloc  332 offset  ac4 [64ac4] HIGHLOW
	reloc  333 offset  acc [64acc] HIGHLOW
	reloc  334 offset  ad4 [64ad4] HIGHLOW
	reloc  335 offset  adc [64adc] HIGHLOW
	reloc  336 offset  ae4 [64ae4] HIGHLOW
	reloc  337 offset  aec [64aec] HIGHLOW
	reloc  338 offset  af4 [64af4] HIGHLOW
	reloc  339 offset  afc [64afc] HIGHLOW
	reloc  340 offset  b04 [64b04] HIGHLOW
	reloc  341 offset  b0c [64b0c] HIGHLOW
	reloc  342 offset  b14 [64b14] HIGHLOW
	reloc  343 offset  b1c [64b1c] HIGHLOW
	reloc  344 offset  b24 [64b24] HIGHLOW
	reloc  345 offset  b2c [64b2c] HIGHLOW
	reloc  346 offset  b34 [64b34] HIGHLOW
	reloc  347 offset  b3c [64b3c] HIGHLOW
	reloc  348 offset  b44 [64b44] HIGHLOW
	reloc  349 offset  b4c [64b4c] HIGHLOW
	reloc  350 offset  b54 [64b54] HIGHLOW
	reloc  351 offset  b5c [64b5c] HIGHLOW
	reloc  352 offset  b64 [64b64] HIGHLOW
	reloc  353 offset  b6c [64b6c] HIGHLOW
	reloc  354 offset  b74 [64b74] HIGHLOW
	reloc  355 offset  b7c [64b7c] HIGHLOW
	reloc  356 offset  b84 [64b84] HIGHLOW
	reloc  357 offset  b8c [64b8c] HIGHLOW
	reloc  358 offset  b94 [64b94] HIGHLOW
	reloc  359 offset  b9c [64b9c] HIGHLOW
	reloc  360 offset  ba4 [64ba4] HIGHLOW
	reloc  361 offset  bac [64bac] HIGHLOW
	reloc  362 offset  bb4 [64bb4] HIGHLOW
	reloc  363 offset  bbc [64bbc] HIGHLOW
	reloc  364 offset  bc4 [64bc4] HIGHLOW
	reloc  365 offset  bcc [64bcc] HIGHLOW
	reloc  366 offset  bd4 [64bd4] HIGHLOW
	reloc  367 offset  bdc [64bdc] HIGHLOW
	reloc  368 offset  be4 [64be4] HIGHLOW
	reloc  369 offset  bec [64bec] HIGHLOW
	reloc  370 offset  bf4 [64bf4] HIGHLOW
	reloc  371 offset  bfc [64bfc] HIGHLOW
	reloc  372 offset  c04 [64c04] HIGHLOW
	reloc  373 offset  c0c [64c0c] HIGHLOW
	reloc  374 offset  c14 [64c14] HIGHLOW
	reloc  375 offset  c1c [64c1c] HIGHLOW
	reloc  376 offset  c24 [64c24] HIGHLOW
	reloc  377 offset  c2c [64c2c] HIGHLOW
	reloc  378 offset  c34 [64c34] HIGHLOW
	reloc  379 offset  c3c [64c3c] HIGHLOW
	reloc  380 offset  c44 [64c44] HIGHLOW
	reloc  381 offset  c4c [64c4c] HIGHLOW
	reloc  382 offset  c54 [64c54] HIGHLOW
	reloc  383 offset  c5c [64c5c] HIGHLOW
	reloc  384 offset  c64 [64c64] HIGHLOW
	reloc  385 offset  c6c [64c6c] HIGHLOW
	reloc  386 offset  c74 [64c74] HIGHLOW
	reloc  387 offset  c7c [64c7c] HIGHLOW
	reloc  388 offset  c84 [64c84] HIGHLOW
	reloc  389 offset  c8c [64c8c] HIGHLOW
	reloc  390 offset  c94 [64c94] HIGHLOW
	reloc  391 offset  c9c [64c9c] HIGHLOW
	reloc  392 offset  ca4 [64ca4] HIGHLOW
	reloc  393 offset  cac [64cac] HIGHLOW
	reloc  394 offset  cb4 [64cb4] HIGHLOW
	reloc  395 offset  cbc [64cbc] HIGHLOW
	reloc  396 offset  cc4 [64cc4] HIGHLOW
	reloc  397 offset  ccc [64ccc] HIGHLOW
	reloc  398 offset  cd4 [64cd4] HIGHLOW
	reloc  399 offset  cdc [64cdc] HIGHLOW
	reloc  400 offset  ce4 [64ce4] HIGHLOW
	reloc  401 offset  cec [64cec] HIGHLOW
	reloc  402 offset  cf4 [64cf4] HIGHLOW
	reloc  403 offset  cfc [64cfc] HIGHLOW
	reloc  404 offset  d04 [64d04] HIGHLOW
	reloc  405 offset  d0c [64d0c] HIGHLOW
	reloc  406 offset  d14 [64d14] HIGHLOW
	reloc  407 offset  d1c [64d1c] HIGHLOW
	reloc  408 offset  d24 [64d24] HIGHLOW
	reloc  409 offset  d2c [64d2c] HIGHLOW
	reloc  410 offset  d34 [64d34] HIGHLOW
	reloc  411 offset  d3c [64d3c] HIGHLOW
	reloc  412 offset  d44 [64d44] HIGHLOW
	reloc  413 offset  d4c [64d4c] HIGHLOW
	reloc  414 offset  d54 [64d54] HIGHLOW
	reloc  415 offset  d5c [64d5c] HIGHLOW
	reloc  416 offset  d64 [64d64] HIGHLOW
	reloc  417 offset  d6c [64d6c] HIGHLOW
	reloc  418 offset  d74 [64d74] HIGHLOW
	reloc  419 offset  d7c [64d7c] HIGHLOW
	reloc  420 offset  d84 [64d84] HIGHLOW
	reloc  421 offset  d8c [64d8c] HIGHLOW
	reloc  422 offset  d94 [64d94] HIGHLOW
	reloc  423 offset  d9c [64d9c] HIGHLOW
	reloc  424 offset  da4 [64da4] HIGHLOW
	reloc  425 offset  dac [64dac] HIGHLOW
	reloc  426 offset  db4 [64db4] HIGHLOW
	reloc  427 offset  dbc [64dbc] HIGHLOW
	reloc  428 offset  dc4 [64dc4] HIGHLOW
	reloc  429 offset  dcc [64dcc] HIGHLOW
	reloc  430 offset  dd4 [64dd4] HIGHLOW
	reloc  431 offset  ddc [64ddc] HIGHLOW
	reloc  432 offset  de4 [64de4] HIGHLOW
	reloc  433 offset  dec [64dec] HIGHLOW
	reloc  434 offset  df4 [64df4] HIGHLOW
	reloc  435 offset  dfc [64dfc] HIGHLOW
	reloc  436 offset  e04 [64e04] HIGHLOW
	reloc  437 offset  e0c [64e0c] HIGHLOW
	reloc  438 offset  e14 [64e14] HIGHLOW
	reloc  439 offset  e1c [64e1c] HIGHLOW
	reloc  440 offset  e24 [64e24] HIGHLOW
	reloc  441 offset  e2c [64e2c] HIGHLOW
	reloc  442 offset  e34 [64e34] HIGHLOW
	reloc  443 offset  e3c [64e3c] HIGHLOW
	reloc  444 offset  e44 [64e44] HIGHLOW
	reloc  445 offset  e4c [64e4c] HIGHLOW
	reloc  446 offset  e54 [64e54] HIGHLOW
	reloc  447 offset  e5c [64e5c] HIGHLOW
	reloc  448 offset  e64 [64e64] HIGHLOW
	reloc  449 offset  e6c [64e6c] HIGHLOW
	reloc  450 offset  e74 [64e74] HIGHLOW
	reloc  451 offset  e7c [64e7c] HIGHLOW
	reloc  452 offset  e84 [64e84] HIGHLOW
	reloc  453 offset  e8c [64e8c] HIGHLOW
	reloc  454 offset  e94 [64e94] HIGHLOW
	reloc  455 offset  e9c [64e9c] HIGHLOW
	reloc  456 offset  ea4 [64ea4] HIGHLOW
	reloc  457 offset  eac [64eac] HIGHLOW
	reloc  458 offset  eb4 [64eb4] HIGHLOW
	reloc  459 offset  ebc [64ebc] HIGHLOW
	reloc  460 offset  ec4 [64ec4] HIGHLOW
	reloc  461 offset  ecc [64ecc] HIGHLOW
	reloc  462 offset  ed4 [64ed4] HIGHLOW
	reloc  463 offset  edc [64edc] HIGHLOW
	reloc  464 offset  ee4 [64ee4] HIGHLOW
	reloc  465 offset  eec [64eec] HIGHLOW
	reloc  466 offset  ef4 [64ef4] HIGHLOW
	reloc  467 offset  efc [64efc] HIGHLOW
	reloc  468 offset  f04 [64f04] HIGHLOW
	reloc  469 offset  f0c [64f0c] HIGHLOW
	reloc  470 offset  f14 [64f14] HIGHLOW
	reloc  471 offset  f1c [64f1c] HIGHLOW
	reloc  472 offset  f24 [64f24] HIGHLOW
	reloc  473 offset  f2c [64f2c] HIGHLOW
	reloc  474 offset  f34 [64f34] HIGHLOW
	reloc  475 offset  f3c [64f3c] HIGHLOW
	reloc  476 offset  f44 [64f44] HIGHLOW
	reloc  477 offset  f4c [64f4c] HIGHLOW
	reloc  478 offset  f54 [64f54] HIGHLOW
	reloc  479 offset  f5c [64f5c] HIGHLOW
	reloc  480 offset  f64 [64f64] HIGHLOW
	reloc  481 offset  f6c [64f6c] HIGHLOW
	reloc  482 offset  f74 [64f74] HIGHLOW
	reloc  483 offset  f7c [64f7c] HIGHLOW
	reloc  484 offset  f84 [64f84] HIGHLOW
	reloc  485 offset  f8c [64f8c] HIGHLOW
	reloc  486 offset  f94 [64f94] HIGHLOW
	reloc  487 offset  f9c [64f9c] HIGHLOW
	reloc  488 offset  fa4 [64fa4] HIGHLOW
	reloc  489 offset  fac [64fac] HIGHLOW
	reloc  490 offset  fb4 [64fb4] HIGHLOW
	reloc  491 offset  fbc [64fbc] HIGHLOW
	reloc  492 offset  fc4 [64fc4] HIGHLOW
	reloc  493 offset  fcc [64fcc] HIGHLOW
	reloc  494 offset  fd4 [64fd4] HIGHLOW
	reloc  495 offset  fdc [64fdc] HIGHLOW
	reloc  496 offset  fe4 [64fe4] HIGHLOW
	reloc  497 offset  fec [64fec] HIGHLOW
	reloc  498 offset  ff4 [64ff4] HIGHLOW
	reloc  499 offset  ffc [64ffc] HIGHLOW

Virtual Address: 00065000 Chunk size 52 (0x34) Number of fixups 22
	reloc    0 offset    4 [65004] HIGHLOW
	reloc    1 offset    c [6500c] HIGHLOW
	reloc    2 offset   14 [65014] HIGHLOW
	reloc    3 offset   1c [6501c] HIGHLOW
	reloc    4 offset   24 [65024] HIGHLOW
	reloc    5 offset   2c [6502c] HIGHLOW
	reloc    6 offset   34 [65034] HIGHLOW
	reloc    7 offset   3c [6503c] HIGHLOW
	reloc    8 offset   44 [65044] HIGHLOW
	reloc    9 offset   4c [6504c] HIGHLOW
	reloc   10 offset   54 [65054] HIGHLOW
	reloc   11 offset   5c [6505c] HIGHLOW
	reloc   12 offset  990 [65990] HIGHLOW
	reloc   13 offset  994 [65994] HIGHLOW
	reloc   14 offset  998 [65998] HIGHLOW
	reloc   15 offset  99c [6599c] HIGHLOW
	reloc   16 offset  9a0 [659a0] HIGHLOW
	reloc   17 offset  9a4 [659a4] HIGHLOW
	reloc   18 offset  9a8 [659a8] HIGHLOW
	reloc   19 offset  9ac [659ac] HIGHLOW
	reloc   20 offset  9b0 [659b0] HIGHLOW
	reloc   21 offset  9b4 [659b4] HIGHLOW

Virtual Address: 00067000 Chunk size 132 (0x84) Number of fixups 62
	reloc    0 offset  b24 [67b24] HIGHLOW
	reloc    1 offset  b28 [67b28] HIGHLOW
	reloc    2 offset  b30 [67b30] HIGHLOW
	reloc    3 offset  b34 [67b34] HIGHLOW
	reloc    4 offset  b5c [67b5c] HIGHLOW
	reloc    5 offset  b60 [67b60] HIGHLOW
	reloc    6 offset  b7c [67b7c] HIGHLOW
	reloc    7 offset  b80 [67b80] HIGHLOW
	reloc    8 offset  b9c [67b9c] HIGHLOW
	reloc    9 offset  ba0 [67ba0] HIGHLOW
	reloc   10 offset  bbc [67bbc] HIGHLOW
	reloc   11 offset  bc0 [67bc0] HIGHLOW
	reloc   12 offset  bdc [67bdc] HIGHLOW
	reloc   13 offset  be0 [67be0] HIGHLOW
	reloc   14 offset  bfc [67bfc] HIGHLOW
	reloc   15 offset  c00 [67c00] HIGHLOW
	reloc   16 offset  c1c [67c1c] HIGHLOW
	reloc   17 offset  c20 [67c20] HIGHLOW
	reloc   18 offset  c3c [67c3c] HIGHLOW
	reloc   19 offset  c40 [67c40] HIGHLOW
	reloc   20 offset  c5c [67c5c] HIGHLOW
	reloc   21 offset  c60 [67c60] HIGHLOW
	reloc   22 offset  c7c [67c7c] HIGHLOW
	reloc   23 offset  c80 [67c80] HIGHLOW
	reloc   24 offset  c9c [67c9c] HIGHLOW
	reloc   25 offset  ca0 [67ca0] HIGHLOW
	reloc   26 offset  cc0 [67cc0] HIGHLOW
	reloc   27 offset  cc8 [67cc8] HIGHLOW
	reloc   28 offset  ccc [67ccc] HIGHLOW
	reloc   29 offset  ce4 [67ce4] HIGHLOW
	reloc   30 offset  ce8 [67ce8] HIGHLOW
	reloc   31 offset  d04 [67d04] HIGHLOW
	reloc   32 offset  d08 [67d08] HIGHLOW
	reloc   33 offset  d24 [67d24] HIGHLOW
	reloc   34 offset  d28 [67d28] HIGHLOW
	reloc   35 offset  d44 [67d44] HIGHLOW
	reloc   36 offset  d48 [67d48] HIGHLOW
	reloc   37 offset  d64 [67d64] HIGHLOW
	reloc   38 offset  d68 [67d68] HIGHLOW
	reloc   39 offset  e00 [67e00] HIGHLOW
	reloc   40 offset  e04 [67e04] HIGHLOW
	reloc   41 offset  ec8 [67ec8] HIGHLOW
	reloc   42 offset  ecc [67ecc] HIGHLOW
	reloc   43 offset  ed0 [67ed0] HIGHLOW
	reloc   44 offset  ed4 [67ed4] HIGHLOW
	reloc   45 offset  ed8 [67ed8] HIGHLOW
	reloc   46 offset  edc [67edc] HIGHLOW
	reloc   47 offset  ee0 [67ee0] HIGHLOW
	reloc   48 offset  ee4 [67ee4] HIGHLOW
	reloc   49 offset  ee8 [67ee8] HIGHLOW
	reloc   50 offset  eec [67eec] HIGHLOW
	reloc   51 offset  ef0 [67ef0] HIGHLOW
	reloc   52 offset  ef4 [67ef4] HIGHLOW
	reloc   53 offset  ef8 [67ef8] HIGHLOW
	reloc   54 offset  efc [67efc] HIGHLOW
	reloc   55 offset  f00 [67f00] HIGHLOW
	reloc   56 offset  f04 [67f04] HIGHLOW
	reloc   57 offset  f08 [67f08] HIGHLOW
	reloc   58 offset  f0c [67f0c] HIGHLOW
	reloc   59 offset  f10 [67f10] HIGHLOW
	reloc   60 offset  f14 [67f14] HIGHLOW
	reloc   61 offset  f18 [67f18] HIGHLOW

Virtual Address: 00068000 Chunk size 20 (0x14) Number of fixups 6
	reloc    0 offset  e06 [68e06] HIGHLOW
	reloc    1 offset  e18 [68e18] HIGHLOW
	reloc    2 offset  e1f [68e1f] HIGHLOW
	reloc    3 offset  e24 [68e24] HIGHLOW
	reloc    4 offset  e2d [68e2d] HIGHLOW
	reloc    5 offset  e34 [68e34] HIGHLOW

The .rsrc Resource Directory section:
000  Type Table: Char: 0, Time: 00000000, Ver: 0/0, Num Names: 0, IDs: 1
010   Entry: ID: 0x000010, Value: 0x80000018
018    Name Table: Char: 0, Time: 00000000, Ver: 0/0, Num Names: 0, IDs: 1
028     Entry: ID: 0x000001, Value: 0x80000030
030      Language Table: Char: 0, Time: 00000000, Ver: 0/0, Num Names: 0, IDs: 1
040       Entry: ID: 0x000409, Value: 0x000048
048        Leaf: Addr: 0x069260, Size: 0x00029c, Codepage: 0
 Resources start at offset: 0x60

Sections:
Idx Name          Size      VMA       LMA       File off  Algn
  0 .text         0000ec61  00010600  00010600  00000600  2**2
                  CONTENTS, ALLOC, LOAD, READONLY, CODE
  1 .rdata        0005896c  0001f400  0001f400  0000f400  2**2
                  CONTENTS, ALLOC, LOAD, READONLY, DATA
  2 .data         00000ee4  00077e00  00077e00  00067e00  2**2
                  CONTENTS, ALLOC, LOAD, DATA
  3 INIT          00000268  00078e00  00078e00  00068e00  2**2
                  CONTENTS, ALLOC, LOAD, CODE
  4 .rsrc         00000300  00079200  00079200  00069200  2**2
                  CONTENTS, ALLOC, LOAD, READONLY, DATA
  5 .reloc        00001174  00079600  00079600  00069600  2**2
                  CONTENTS, ALLOC, LOAD, READONLY, DATA
SYMBOL TABLE:
no symbols



Disassembly of section .text:

00010600 <.text>:
   10600:	00 00                	add    %al,(%eax)
   10602:	00 00                	add    %al,(%eax)
   10604:	00 00                	add    %al,(%eax)
   10606:	8b ff                	mov    %edi,%edi
   10608:	55                   	push   %ebp
   10609:	8b ec                	mov    %esp,%ebp
   1060b:	8b 45 0c             	mov    0xc(%ebp),%eax
   1060e:	33 45 10             	xor    0x10(%ebp),%eax
   10611:	8b 4d 10             	mov    0x10(%ebp),%ecx
   10614:	25 fe ff ff 7f       	and    $0x7ffffffe,%eax
   10619:	33 45 0c             	xor    0xc(%ebp),%eax
   1061c:	80 e1 01             	and    $0x1,%cl
   1061f:	0f b6 c9             	movzbl %cl,%ecx
   10622:	d1 e8                	shr    %eax
   10624:	f7 d9                	neg    %ecx
   10626:	1b c9                	sbb    %ecx,%ecx
   10628:	81 e1 df b0 08 99    	and    $0x9908b0df,%ecx
   1062e:	33 c1                	xor    %ecx,%eax
   10630:	33 45 08             	xor    0x8(%ebp),%eax
   10633:	5d                   	pop    %ebp
   10634:	c2 0c 00             	ret    $0xc
   10637:	cc                   	int3
   10638:	cc                   	int3
   10639:	cc                   	int3
   1063a:	cc                   	int3
   1063b:	cc                   	int3
   1063c:	8b ff                	mov    %edi,%edi
   1063e:	55                   	push   %ebp
   1063f:	8b ec                	mov    %esp,%ebp
   10641:	8b 45 08             	mov    0x8(%ebp),%eax
   10644:	33 d2                	xor    %edx,%edx
   10646:	42                   	inc    %edx
   10647:	89 01                	mov    %eax,(%ecx)
   10649:	56                   	push   %esi
   1064a:	8b 01                	mov    (%ecx),%eax
   1064c:	8b f0                	mov    %eax,%esi
   1064e:	c1 ee 1e             	shr    $0x1e,%esi
   10651:	33 f0                	xor    %eax,%esi
   10653:	69 f6 65 89 07 6c    	imul   $0x6c078965,%esi,%esi
   10659:	83 c1 04             	add    $0x4,%ecx
   1065c:	03 f2                	add    %edx,%esi
   1065e:	42                   	inc    %edx
   1065f:	81 fa 70 02 00 00    	cmp    $0x270,%edx
   10665:	89 31                	mov    %esi,(%ecx)
   10667:	7c e1                	jl     0x1064a
   10669:	5e                   	pop    %esi
   1066a:	5d                   	pop    %ebp
   1066b:	c2 04 00             	ret    $0x4
   1066e:	cc                   	int3
   1066f:	cc                   	int3
   10670:	cc                   	int3
   10671:	cc                   	int3
   10672:	cc                   	int3
   10673:	cc                   	int3
   10674:	8b ff                	mov    %edi,%edi
   10676:	55                   	push   %ebp
   10677:	8b ec                	mov    %esp,%ebp
   10679:	51                   	push   %ecx
   1067a:	53                   	push   %ebx
   1067b:	56                   	push   %esi
   1067c:	57                   	push   %edi
   1067d:	8b f9                	mov    %ecx,%edi
   1067f:	8b f7                	mov    %edi,%esi
   10681:	bb e3 00 00 00       	mov    $0xe3,%ebx
   10686:	ff 76 04             	push   0x4(%esi)
   10689:	8b cf                	mov    %edi,%ecx
   1068b:	ff 36                	push   (%esi)
   1068d:	4b                   	dec    %ebx
   1068e:	ff b6 34 06 00 00    	push   0x634(%esi)
   10694:	e8 6d ff ff ff       	call   0x10606
   10699:	89 06                	mov    %eax,(%esi)
   1069b:	83 c6 04             	add    $0x4,%esi
   1069e:	85 db                	test   %ebx,%ebx
   106a0:	75 e4                	jne    0x10686
   106a2:	c7 45 fc 8c 01 00 00 	movl   $0x18c,-0x4(%ebp)
   106a9:	8d 5e 04             	lea    0x4(%esi),%ebx
   106ac:	ff 33                	push   (%ebx)
   106ae:	8b cf                	mov    %edi,%ecx
   106b0:	ff 36                	push   (%esi)
   106b2:	ff b6 74 fc ff ff    	push   -0x38c(%esi)
   106b8:	e8 49 ff ff ff       	call   0x10606
   106bd:	ff 4d fc             	decl   -0x4(%ebp)
   106c0:	89 06                	mov    %eax,(%esi)
   106c2:	8b f3                	mov    %ebx,%esi
   106c4:	75 e3                	jne    0x106a9
   106c6:	ff 37                	push   (%edi)
   106c8:	8b cf                	mov    %edi,%ecx
   106ca:	ff 36                	push   (%esi)
   106cc:	ff b6 74 fc ff ff    	push   -0x38c(%esi)
   106d2:	e8 2f ff ff ff       	call   0x10606
   106d7:	89 06                	mov    %eax,(%esi)
   106d9:	c7 87 c4 09 00 00 70 	movl   $0x270,0x9c4(%edi)
   106e0:	02 00 00 
   106e3:	89 bf c0 09 00 00    	mov    %edi,0x9c0(%edi)
   106e9:	5f                   	pop    %edi
   106ea:	5e                   	pop    %esi
   106eb:	5b                   	pop    %ebx
   106ec:	c9                   	leave
   106ed:	c3                   	ret
   106ee:	cc                   	int3
   106ef:	cc                   	int3
   106f0:	cc                   	int3
   106f1:	cc                   	int3
   106f2:	cc                   	int3
   106f3:	cc                   	int3
   106f4:	8b ff                	mov    %edi,%edi
   106f6:	55                   	push   %ebp
   106f7:	8b ec                	mov    %esp,%ebp
   106f9:	56                   	push   %esi
   106fa:	ff 75 08             	push   0x8(%ebp)
   106fd:	8b f1                	mov    %ecx,%esi
   106ff:	e8 38 ff ff ff       	call   0x1063c
   10704:	8b ce                	mov    %esi,%ecx
   10706:	e8 69 ff ff ff       	call   0x10674
   1070b:	5e                   	pop    %esi
   1070c:	5d                   	pop    %ebp
   1070d:	c2 04 00             	ret    $0x4
   10710:	cc                   	int3
   10711:	cc                   	int3
   10712:	cc                   	int3
   10713:	cc                   	int3
   10714:	cc                   	int3
   10715:	cc                   	int3
   10716:	8b ff                	mov    %edi,%edi
   10718:	56                   	push   %esi
   10719:	57                   	push   %edi
   1071a:	8b f9                	mov    %ecx,%edi
   1071c:	8d b7 c4 09 00 00    	lea    0x9c4(%edi),%esi
   10722:	83 3e 00             	cmpl   $0x0,(%esi)
   10725:	75 05                	jne    0x1072c
   10727:	e8 48 ff ff ff       	call   0x10674
   1072c:	ff 0e                	decl   (%esi)
   1072e:	8d 87 c0 09 00 00    	lea    0x9c0(%edi),%eax
   10734:	8b 10                	mov    (%eax),%edx
   10736:	8b 0a                	mov    (%edx),%ecx
   10738:	83 c2 04             	add    $0x4,%edx
   1073b:	89 10                	mov    %edx,(%eax)
   1073d:	8b c1                	mov    %ecx,%eax
   1073f:	c1 e8 0b             	shr    $0xb,%eax
   10742:	33 c8                	xor    %eax,%ecx
   10744:	8b c1                	mov    %ecx,%eax
   10746:	25 ad 58 3a ff       	and    $0xff3a58ad,%eax
   1074b:	c1 e0 07             	shl    $0x7,%eax
   1074e:	33 c8                	xor    %eax,%ecx
   10750:	8b c1                	mov    %ecx,%eax
   10752:	25 8c df ff ff       	and    $0xffffdf8c,%eax
   10757:	c1 e0 0f             	shl    $0xf,%eax
   1075a:	33 c8                	xor    %eax,%ecx
   1075c:	8b c1                	mov    %ecx,%eax
   1075e:	c1 e8 12             	shr    $0x12,%eax
   10761:	5f                   	pop    %edi
   10762:	33 c1                	xor    %ecx,%eax
   10764:	5e                   	pop    %esi
   10765:	c3                   	ret
   10766:	cc                   	int3
   10767:	cc                   	int3
   10768:	cc                   	int3
   10769:	cc                   	int3
   1076a:	cc                   	int3
   1076b:	cc                   	int3
   1076c:	8b ff                	mov    %edi,%edi
   1076e:	55                   	push   %ebp
   1076f:	8b ec                	mov    %esp,%ebp
   10771:	56                   	push   %esi
   10772:	8b 75 08             	mov    0x8(%ebp),%esi
   10775:	d1 ee                	shr    %esi
   10777:	0b 75 08             	or     0x8(%ebp),%esi
   1077a:	57                   	push   %edi
   1077b:	8b c6                	mov    %esi,%eax
   1077d:	c1 e8 02             	shr    $0x2,%eax
   10780:	0b f0                	or     %eax,%esi
   10782:	8b c6                	mov    %esi,%eax
   10784:	c1 e8 04             	shr    $0x4,%eax
   10787:	0b f0                	or     %eax,%esi
   10789:	8b c6                	mov    %esi,%eax
   1078b:	c1 e8 08             	shr    $0x8,%eax
   1078e:	0b f0                	or     %eax,%esi
   10790:	8b c6                	mov    %esi,%eax
   10792:	c1 e8 10             	shr    $0x10,%eax
   10795:	8b f9                	mov    %ecx,%edi
   10797:	0b f0                	or     %eax,%esi
   10799:	8b cf                	mov    %edi,%ecx
   1079b:	e8 76 ff ff ff       	call   0x10716
   107a0:	23 c6                	and    %esi,%eax
   107a2:	3b 45 08             	cmp    0x8(%ebp),%eax
   107a5:	77 f2                	ja     0x10799
   107a7:	5f                   	pop    %edi
   107a8:	5e                   	pop    %esi
   107a9:	5d                   	pop    %ebp
   107aa:	c2 04 00             	ret    $0x4
   107ad:	cc                   	int3
   107ae:	cc                   	int3
   107af:	cc                   	int3
   107b0:	cc                   	int3
   107b1:	cc                   	int3
   107b2:	8b ff                	mov    %edi,%edi
   107b4:	55                   	push   %ebp
   107b5:	8b ec                	mov    %esp,%ebp
   107b7:	81 ec 04 0a 00 00    	sub    $0xa04,%esp
   107bd:	53                   	push   %ebx
   107be:	56                   	push   %esi
   107bf:	8b 75 14             	mov    0x14(%ebp),%esi
   107c2:	57                   	push   %edi
   107c3:	85 f6                	test   %esi,%esi
   107c5:	0f 85 d5 00 00 00    	jne    0x108a0
   107cb:	33 c9                	xor    %ecx,%ecx
   107cd:	8d 45 c4             	lea    -0x3c(%ebp),%eax
   107d0:	ba ff 00 00 00       	mov    $0xff,%edx
   107d5:	d3 e2                	shl    %cl,%edx
   107d7:	23 55 08             	and    0x8(%ebp),%edx
   107da:	d3 ea                	shr    %cl,%edx
   107dc:	41                   	inc    %ecx
   107dd:	41                   	inc    %ecx
   107de:	89 10                	mov    %edx,(%eax)
   107e0:	83 c0 04             	add    $0x4,%eax
   107e3:	83 f9 14             	cmp    $0x14,%ecx
   107e6:	75 e8                	jne    0x107d0
   107e8:	8b 5d 0c             	mov    0xc(%ebp),%ebx
   107eb:	33 c0                	xor    %eax,%eax
   107ed:	66 89 03             	mov    %ax,(%ebx)
   107f0:	8b 45 c4             	mov    -0x3c(%ebp),%eax
   107f3:	6a 05                	push   $0x5
   107f5:	99                   	cltd
   107f6:	59                   	pop    %ecx
   107f7:	f7 f9                	idiv   %ecx
   107f9:	c7 45 ec d6 e0 01 00 	movl   $0x1e0d6,-0x14(%ebp)
   10800:	c7 45 f0 cc e0 01 00 	movl   $0x1e0cc,-0x10(%ebp)
   10807:	c7 45 f4 c4 e0 01 00 	movl   $0x1e0c4,-0xc(%ebp)
   1080e:	c7 45 f8 ba e0 01 00 	movl   $0x1e0ba,-0x8(%ebp)
   10815:	c7 45 fc b0 e0 01 00 	movl   $0x1e0b0,-0x4(%ebp)
   1081c:	8b 54 95 ec          	mov    -0x14(%ebp,%edx,4),%edx
   10820:	8b ca                	mov    %edx,%ecx
   10822:	66 8b 02             	mov    (%edx),%ax
   10825:	42                   	inc    %edx
   10826:	42                   	inc    %edx
   10827:	66 85 c0             	test   %ax,%ax
   1082a:	75 f6                	jne    0x10822
   1082c:	2b d1                	sub    %ecx,%edx
   1082e:	8b fb                	mov    %ebx,%edi
   10830:	4f                   	dec    %edi
   10831:	8b f1                	mov    %ecx,%esi
   10833:	4f                   	dec    %edi
   10834:	66 8b 47 02          	mov    0x2(%edi),%ax
   10838:	47                   	inc    %edi
   10839:	47                   	inc    %edi
   1083a:	66 85 c0             	test   %ax,%ax
   1083d:	75 f5                	jne    0x10834
   1083f:	8b ca                	mov    %edx,%ecx
   10841:	c1 e9 02             	shr    $0x2,%ecx
   10844:	f3 a5                	rep movsl %ds:(%esi),%es:(%edi)
   10846:	8b ca                	mov    %edx,%ecx
   10848:	83 e1 03             	and    $0x3,%ecx
   1084b:	8b c3                	mov    %ebx,%eax
   1084d:	f3 a4                	rep movsb %ds:(%esi),%es:(%edi)
   1084f:	8d 48 02             	lea    0x2(%eax),%ecx
   10852:	66 8b 10             	mov    (%eax),%dx
   10855:	40                   	inc    %eax
   10856:	40                   	inc    %eax
   10857:	66 85 d2             	test   %dx,%dx
   1085a:	75 f6                	jne    0x10852
   1085c:	2b c1                	sub    %ecx,%eax
   1085e:	d1 f8                	sar    %eax
   10860:	8b c8                	mov    %eax,%ecx
   10862:	8b 45 c8             	mov    -0x38(%ebp),%eax
   10865:	6a 03                	push   $0x3
   10867:	99                   	cltd
   10868:	5e                   	pop    %esi
   10869:	f7 fe                	idiv   %esi
   1086b:	83 fa fe             	cmp    $0xfffffffe,%edx
   1086e:	0f 84 e0 00 00 00    	je     0x10954
   10874:	83 c2 02             	add    $0x2,%edx
   10877:	8d 75 cc             	lea    -0x34(%ebp),%esi
   1087a:	89 55 08             	mov    %edx,0x8(%ebp)
   1087d:	8b 06                	mov    (%esi),%eax
   1087f:	99                   	cltd
   10880:	6a 1a                	push   $0x1a
   10882:	5f                   	pop    %edi
   10883:	f7 ff                	idiv   %edi
   10885:	83 c6 04             	add    $0x4,%esi
   10888:	33 c0                	xor    %eax,%eax
   1088a:	83 c2 61             	add    $0x61,%edx
   1088d:	66 89 14 4b          	mov    %dx,(%ebx,%ecx,2)
   10891:	41                   	inc    %ecx
   10892:	ff 4d 08             	decl   0x8(%ebp)
   10895:	66 89 04 4b          	mov    %ax,(%ebx,%ecx,2)
   10899:	75 e2                	jne    0x1087d
   1089b:	e9 b4 00 00 00       	jmp    0x10954
   108a0:	83 fe 01             	cmp    $0x1,%esi
   108a3:	74 0b                	je     0x108b0
   108a5:	8b c6                	mov    %esi,%eax
   108a7:	6b c0 0a             	imul   $0xa,%eax,%eax
   108aa:	03 45 10             	add    0x10(%ebp),%eax
   108ad:	01 45 08             	add    %eax,0x8(%ebp)
   108b0:	ff 75 08             	push   0x8(%ebp)
   108b3:	8d 8d fc f5 ff ff    	lea    -0xa04(%ebp),%ecx
   108b9:	e8 36 fe ff ff       	call   0x106f4
   108be:	8d 46 ff             	lea    -0x1(%esi),%eax
   108c1:	83 f8 05             	cmp    $0x5,%eax
   108c4:	77 0f                	ja     0x108d5
   108c6:	6b f6 03             	imul   $0x3,%esi,%esi
   108c9:	03 75 10             	add    0x10(%ebp),%esi
   108cc:	8b 34 b5 bc 7e 07 00 	mov    0x77ebc(,%esi,4),%esi
   108d3:	eb 05                	jmp    0x108da
   108d5:	be ae e0 01 00       	mov    $0x1e0ae,%esi
   108da:	8b 5d 0c             	mov    0xc(%ebp),%ebx
   108dd:	33 c0                	xor    %eax,%eax
   108df:	66 89 03             	mov    %ax,(%ebx)
   108e2:	8b c6                	mov    %esi,%eax
   108e4:	8b d6                	mov    %esi,%edx
   108e6:	66 8b 08             	mov    (%eax),%cx
   108e9:	40                   	inc    %eax
   108ea:	40                   	inc    %eax
   108eb:	66 85 c9             	test   %cx,%cx
   108ee:	75 f6                	jne    0x108e6
   108f0:	2b c2                	sub    %edx,%eax
   108f2:	8b fb                	mov    %ebx,%edi
   108f4:	4f                   	dec    %edi
   108f5:	4f                   	dec    %edi
   108f6:	66 8b 4f 02          	mov    0x2(%edi),%cx
   108fa:	47                   	inc    %edi
   108fb:	47                   	inc    %edi
   108fc:	66 85 c9             	test   %cx,%cx
   108ff:	75 f5                	jne    0x108f6
   10901:	8b c8                	mov    %eax,%ecx
   10903:	c1 e9 02             	shr    $0x2,%ecx
   10906:	8b f2                	mov    %edx,%esi
   10908:	f3 a5                	rep movsl %ds:(%esi),%es:(%edi)
   1090a:	8b c8                	mov    %eax,%ecx
   1090c:	83 e1 03             	and    $0x3,%ecx
   1090f:	8b c3                	mov    %ebx,%eax
   10911:	f3 a4                	rep movsb %ds:(%esi),%es:(%edi)
   10913:	8d 48 02             	lea    0x2(%eax),%ecx
   10916:	66 8b 10             	mov    (%eax),%dx
   10919:	40                   	inc    %eax
   1091a:	40                   	inc    %eax
   1091b:	66 85 d2             	test   %dx,%dx
   1091e:	75 f6                	jne    0x10916
   10920:	2b c1                	sub    %ecx,%eax
   10922:	d1 f8                	sar    %eax
   10924:	6a 05                	push   $0x5
   10926:	8b f0                	mov    %eax,%esi
   10928:	5f                   	pop    %edi
   10929:	6a 23                	push   $0x23
   1092b:	8d 8d fc f5 ff ff    	lea    -0xa04(%ebp),%ecx
   10931:	e8 36 fe ff ff       	call   0x1076c
   10936:	83 f8 0a             	cmp    $0xa,%eax
   10939:	73 05                	jae    0x10940
   1093b:	83 c0 30             	add    $0x30,%eax
   1093e:	eb 03                	jmp    0x10943
   10940:	83 c0 57             	add    $0x57,%eax
   10943:	0f b7 c0             	movzwl %ax,%eax
   10946:	66 89 04 73          	mov    %ax,(%ebx,%esi,2)
   1094a:	46                   	inc    %esi
   1094b:	33 c0                	xor    %eax,%eax
   1094d:	4f                   	dec    %edi
   1094e:	66 89 04 73          	mov    %ax,(%ebx,%esi,2)
   10952:	75 d5                	jne    0x10929
   10954:	5f                   	pop    %edi
   10955:	5e                   	pop    %esi
   10956:	5b                   	pop    %ebx
   10957:	c9                   	leave
   10958:	c2 10 00             	ret    $0x10
   1095b:	cc                   	int3
   1095c:	cc                   	int3
   1095d:	cc                   	int3
   1095e:	cc                   	int3
   1095f:	cc                   	int3
   10960:	8b ff                	mov    %edi,%edi
   10962:	55                   	push   %ebp
   10963:	8b ec                	mov    %esp,%ebp
   10965:	8b 45 08             	mov    0x8(%ebp),%eax
   10968:	8d 50 02             	lea    0x2(%eax),%edx
   1096b:	66 8b 08             	mov    (%eax),%cx
   1096e:	40                   	inc    %eax
   1096f:	40                   	inc    %eax
   10970:	66 85 c9             	test   %cx,%cx
   10973:	75 f6                	jne    0x1096b
   10975:	2b c2                	sub    %edx,%eax
   10977:	d1 f8                	sar    %eax
   10979:	5d                   	pop    %ebp
   1097a:	c2 04 00             	ret    $0x4
   1097d:	cc                   	int3
   1097e:	cc                   	int3
   1097f:	cc                   	int3
   10980:	cc                   	int3
   10981:	cc                   	int3
   10982:	8b c1                	mov    %ecx,%eax
   10984:	c3                   	ret
   10985:	cc                   	int3
   10986:	cc                   	int3
   10987:	cc                   	int3
   10988:	cc                   	int3
   10989:	cc                   	int3
   1098a:	c3                   	ret
   1098b:	cc                   	int3
   1098c:	cc                   	int3
   1098d:	cc                   	int3
   1098e:	cc                   	int3
   1098f:	cc                   	int3
   10990:	8b ff                	mov    %edi,%edi
   10992:	55                   	push   %ebp
   10993:	8b ec                	mov    %esp,%ebp
   10995:	56                   	push   %esi
   10996:	33 f6                	xor    %esi,%esi
   10998:	33 d2                	xor    %edx,%edx
   1099a:	39 75 0c             	cmp    %esi,0xc(%ebp)
   1099d:	74 1b                	je     0x109ba
   1099f:	8b 45 08             	mov    0x8(%ebp),%eax
   109a2:	8b 4d 10             	mov    0x10(%ebp),%ecx
   109a5:	8a 0c 0a             	mov    (%edx,%ecx,1),%cl
   109a8:	03 c6                	add    %esi,%eax
   109aa:	30 08                	xor    %cl,(%eax)
   109ac:	8d 42 01             	lea    0x1(%edx),%eax
   109af:	33 d2                	xor    %edx,%edx
   109b1:	f7 75 14             	divl   0x14(%ebp)
   109b4:	46                   	inc    %esi
   109b5:	3b 75 0c             	cmp    0xc(%ebp),%esi
   109b8:	75 e5                	jne    0x1099f
   109ba:	5e                   	pop    %esi
   109bb:	5d                   	pop    %ebp
   109bc:	c2 10 00             	ret    $0x10
   109bf:	cc                   	int3
   109c0:	cc                   	int3
   109c1:	cc                   	int3
   109c2:	cc                   	int3
   109c3:	cc                   	int3
   109c4:	8b ff                	mov    %edi,%edi
   109c6:	55                   	push   %ebp
   109c7:	8b ec                	mov    %esp,%ebp
   109c9:	8b 4d 08             	mov    0x8(%ebp),%ecx
   109cc:	8b c1                	mov    %ecx,%eax
   109ce:	8d 50 02             	lea    0x2(%eax),%edx
   109d1:	56                   	push   %esi
   109d2:	66 8b 30             	mov    (%eax),%si
   109d5:	40                   	inc    %eax
   109d6:	40                   	inc    %eax
   109d7:	66 85 f6             	test   %si,%si
   109da:	75 f6                	jne    0x109d2
   109dc:	2b c2                	sub    %edx,%eax
   109de:	d1 f8                	sar    %eax
   109e0:	83 f8 0c             	cmp    $0xc,%eax
   109e3:	73 07                	jae    0x109ec
   109e5:	32 c0                	xor    %al,%al
   109e7:	e9 ce 00 00 00       	jmp    0x10aba
   109ec:	8d 44 41 e8          	lea    -0x18(%ecx,%eax,2),%eax
   109f0:	0f b7 08             	movzwl (%eax),%ecx
   109f3:	66 83 f9 69          	cmp    $0x69,%cx
   109f7:	74 06                	je     0x109ff
   109f9:	66 83 f9 49          	cmp    $0x49,%cx
   109fd:	75 e6                	jne    0x109e5
   109ff:	0f b7 48 02          	movzwl 0x2(%eax),%ecx
   10a03:	6a 45                	push   $0x45
   10a05:	5e                   	pop    %esi
   10a06:	6a 65                	push   $0x65
   10a08:	5a                   	pop    %edx
   10a09:	66 3b ca             	cmp    %dx,%cx
   10a0c:	74 05                	je     0x10a13
   10a0e:	66 3b ce             	cmp    %si,%cx
   10a11:	75 d2                	jne    0x109e5
   10a13:	0f b7 48 04          	movzwl 0x4(%eax),%ecx
   10a17:	66 83 f9 78          	cmp    $0x78,%cx
   10a1b:	74 06                	je     0x10a23
   10a1d:	66 83 f9 58          	cmp    $0x58,%cx
   10a21:	75 c2                	jne    0x109e5
   10a23:	0f b7 48 06          	movzwl 0x6(%eax),%ecx
   10a27:	66 83 f9 70          	cmp    $0x70,%cx
   10a2b:	74 06                	je     0x10a33
   10a2d:	66 83 f9 50          	cmp    $0x50,%cx
   10a31:	75 b2                	jne    0x109e5
   10a33:	0f b7 48 08          	movzwl 0x8(%eax),%ecx
   10a37:	66 83 f9 6c          	cmp    $0x6c,%cx
   10a3b:	74 06                	je     0x10a43
   10a3d:	66 83 f9 4c          	cmp    $0x4c,%cx
   10a41:	75 a2                	jne    0x109e5
   10a43:	0f b7 48 0a          	movzwl 0xa(%eax),%ecx
   10a47:	66 83 f9 6f          	cmp    $0x6f,%cx
   10a4b:	74 06                	je     0x10a53
   10a4d:	66 83 f9 4f          	cmp    $0x4f,%cx
   10a51:	75 92                	jne    0x109e5
   10a53:	0f b7 48 0c          	movzwl 0xc(%eax),%ecx
   10a57:	66 83 f9 72          	cmp    $0x72,%cx
   10a5b:	74 06                	je     0x10a63
   10a5d:	66 83 f9 52          	cmp    $0x52,%cx
   10a61:	75 82                	jne    0x109e5
   10a63:	0f b7 48 0e          	movzwl 0xe(%eax),%ecx
   10a67:	66 3b ca             	cmp    %dx,%cx
   10a6a:	74 09                	je     0x10a75
   10a6c:	66 3b ce             	cmp    %si,%cx
   10a6f:	0f 85 70 ff ff ff    	jne    0x109e5
   10a75:	66 83 78 10 2e       	cmpw   $0x2e,0x10(%eax)
   10a7a:	0f 85 65 ff ff ff    	jne    0x109e5
   10a80:	0f b7 48 12          	movzwl 0x12(%eax),%ecx
   10a84:	66 3b ca             	cmp    %dx,%cx
   10a87:	74 09                	je     0x10a92
   10a89:	66 3b ce             	cmp    %si,%cx
   10a8c:	0f 85 53 ff ff ff    	jne    0x109e5
   10a92:	0f b7 48 14          	movzwl 0x14(%eax),%ecx
   10a96:	66 83 f9 78          	cmp    $0x78,%cx
   10a9a:	74 0a                	je     0x10aa6
   10a9c:	66 83 f9 58          	cmp    $0x58,%cx
   10aa0:	0f 85 3f ff ff ff    	jne    0x109e5
   10aa6:	0f b7 40 16          	movzwl 0x16(%eax),%eax
   10aaa:	66 3b c2             	cmp    %dx,%ax
   10aad:	74 09                	je     0x10ab8
   10aaf:	66 3b c6             	cmp    %si,%ax
   10ab2:	0f 85 2d ff ff ff    	jne    0x109e5
   10ab8:	b0 01                	mov    $0x1,%al
   10aba:	5e                   	pop    %esi
   10abb:	5d                   	pop    %ebp
   10abc:	c2 04 00             	ret    $0x4
   10abf:	cc                   	int3
   10ac0:	cc                   	int3
   10ac1:	cc                   	int3
   10ac2:	cc                   	int3
   10ac3:	cc                   	int3
   10ac4:	8b ff                	mov    %edi,%edi
   10ac6:	55                   	push   %ebp
   10ac7:	8b ec                	mov    %esp,%ebp
   10ac9:	8b 4d 08             	mov    0x8(%ebp),%ecx
   10acc:	8b c1                	mov    %ecx,%eax
   10ace:	8d 50 02             	lea    0x2(%eax),%edx
   10ad1:	56                   	push   %esi
   10ad2:	66 8b 30             	mov    (%eax),%si
   10ad5:	40                   	inc    %eax
   10ad6:	40                   	inc    %eax
   10ad7:	66 85 f6             	test   %si,%si
   10ada:	75 f6                	jne    0x10ad2
   10adc:	2b c2                	sub    %edx,%eax
   10ade:	d1 f8                	sar    %eax
   10ae0:	5e                   	pop    %esi
   10ae1:	83 f8 0b             	cmp    $0xb,%eax
   10ae4:	73 07                	jae    0x10aed
   10ae6:	32 c0                	xor    %al,%al
   10ae8:	e9 bc 00 00 00       	jmp    0x10ba9
   10aed:	8d 44 41 ea          	lea    -0x16(%ecx,%eax,2),%eax
   10af1:	0f b7 08             	movzwl (%eax),%ecx
   10af4:	66 83 f9 66          	cmp    $0x66,%cx
   10af8:	74 06                	je     0x10b00
   10afa:	66 83 f9 46          	cmp    $0x46,%cx
   10afe:	75 e6                	jne    0x10ae6
   10b00:	0f b7 48 02          	movzwl 0x2(%eax),%ecx
   10b04:	66 83 f9 69          	cmp    $0x69,%cx
   10b08:	74 06                	je     0x10b10
   10b0a:	66 83 f9 49          	cmp    $0x49,%cx
   10b0e:	75 d6                	jne    0x10ae6
   10b10:	0f b7 48 04          	movzwl 0x4(%eax),%ecx
   10b14:	66 83 f9 72          	cmp    $0x72,%cx
   10b18:	74 06                	je     0x10b20
   10b1a:	66 83 f9 52          	cmp    $0x52,%cx
   10b1e:	75 c6                	jne    0x10ae6
   10b20:	0f b7 48 06          	movzwl 0x6(%eax),%ecx
   10b24:	66 83 f9 65          	cmp    $0x65,%cx
   10b28:	74 06                	je     0x10b30
   10b2a:	66 83 f9 45          	cmp    $0x45,%cx
   10b2e:	75 b6                	jne    0x10ae6
   10b30:	0f b7 48 08          	movzwl 0x8(%eax),%ecx
   10b34:	66 83 f9 66          	cmp    $0x66,%cx
   10b38:	74 06                	je     0x10b40
   10b3a:	66 83 f9 46          	cmp    $0x46,%cx
   10b3e:	75 a6                	jne    0x10ae6
   10b40:	0f b7 48 0a          	movzwl 0xa(%eax),%ecx
   10b44:	66 83 f9 6f          	cmp    $0x6f,%cx
   10b48:	74 06                	je     0x10b50
   10b4a:	66 83 f9 4f          	cmp    $0x4f,%cx
   10b4e:	75 96                	jne    0x10ae6
   10b50:	0f b7 48 0c          	movzwl 0xc(%eax),%ecx
   10b54:	66 83 f9 78          	cmp    $0x78,%cx
   10b58:	74 06                	je     0x10b60
   10b5a:	66 83 f9 58          	cmp    $0x58,%cx
   10b5e:	75 86                	jne    0x10ae6
   10b60:	66 83 78 0e 2e       	cmpw   $0x2e,0xe(%eax)
   10b65:	0f 85 7b ff ff ff    	jne    0x10ae6
   10b6b:	0f b7 48 10          	movzwl 0x10(%eax),%ecx
   10b6f:	66 83 f9 65          	cmp    $0x65,%cx
   10b73:	74 0a                	je     0x10b7f
   10b75:	66 83 f9 45          	cmp    $0x45,%cx
   10b79:	0f 85 67 ff ff ff    	jne    0x10ae6
   10b7f:	0f b7 48 12          	movzwl 0x12(%eax),%ecx
   10b83:	66 83 f9 78          	cmp    $0x78,%cx
   10b87:	74 0a                	je     0x10b93
   10b89:	66 83 f9 58          	cmp    $0x58,%cx
   10b8d:	0f 85 53 ff ff ff    	jne    0x10ae6
   10b93:	0f b7 40 14          	movzwl 0x14(%eax),%eax
   10b97:	66 83 f8 65          	cmp    $0x65,%ax
   10b9b:	74 0a                	je     0x10ba7
   10b9d:	66 83 f8 45          	cmp    $0x45,%ax
   10ba1:	0f 85 3f ff ff ff    	jne    0x10ae6
   10ba7:	b0 01                	mov    $0x1,%al
   10ba9:	5d                   	pop    %ebp
   10baa:	c2 04 00             	ret    $0x4
   10bad:	cc                   	int3
   10bae:	cc                   	int3
   10baf:	cc                   	int3
   10bb0:	cc                   	int3
   10bb1:	cc                   	int3
   10bb2:	8b ff                	mov    %edi,%edi
   10bb4:	55                   	push   %ebp
   10bb5:	8b ec                	mov    %esp,%ebp
   10bb7:	8b 4d 08             	mov    0x8(%ebp),%ecx
   10bba:	8b c1                	mov    %ecx,%eax
   10bbc:	8d 50 02             	lea    0x2(%eax),%edx
   10bbf:	56                   	push   %esi
   10bc0:	66 8b 30             	mov    (%eax),%si
   10bc3:	40                   	inc    %eax
   10bc4:	40                   	inc    %eax
   10bc5:	66 85 f6             	test   %si,%si
   10bc8:	75 f6                	jne    0x10bc0
   10bca:	2b c2                	sub    %edx,%eax
   10bcc:	d1 f8                	sar    %eax
   10bce:	5e                   	pop    %esi
   10bcf:	83 f8 0a             	cmp    $0xa,%eax
   10bd2:	73 07                	jae    0x10bdb
   10bd4:	32 c0                	xor    %al,%al
   10bd6:	e9 a8 00 00 00       	jmp    0x10c83
   10bdb:	8d 44 41 ec          	lea    -0x14(%ecx,%eax,2),%eax
   10bdf:	0f b7 08             	movzwl (%eax),%ecx
   10be2:	66 83 f9 63          	cmp    $0x63,%cx
   10be6:	74 06                	je     0x10bee
   10be8:	66 83 f9 43          	cmp    $0x43,%cx
   10bec:	75 e6                	jne    0x10bd4
   10bee:	0f b7 48 02          	movzwl 0x2(%eax),%ecx
   10bf2:	66 83 f9 68          	cmp    $0x68,%cx
   10bf6:	74 06                	je     0x10bfe
   10bf8:	66 83 f9 48          	cmp    $0x48,%cx
   10bfc:	75 d6                	jne    0x10bd4
   10bfe:	0f b7 48 04          	movzwl 0x4(%eax),%ecx
   10c02:	66 83 f9 72          	cmp    $0x72,%cx
   10c06:	74 06                	je     0x10c0e
   10c08:	66 83 f9 52          	cmp    $0x52,%cx
   10c0c:	75 c6                	jne    0x10bd4
   10c0e:	0f b7 48 06          	movzwl 0x6(%eax),%ecx
   10c12:	66 83 f9 6f          	cmp    $0x6f,%cx
   10c16:	74 06                	je     0x10c1e
   10c18:	66 83 f9 4f          	cmp    $0x4f,%cx
   10c1c:	75 b6                	jne    0x10bd4
   10c1e:	0f b7 48 08          	movzwl 0x8(%eax),%ecx
   10c22:	66 83 f9 6d          	cmp    $0x6d,%cx
   10c26:	74 06                	je     0x10c2e
   10c28:	66 83 f9 4d          	cmp    $0x4d,%cx
   10c2c:	75 a6                	jne    0x10bd4
   10c2e:	0f b7 48 0a          	movzwl 0xa(%eax),%ecx
   10c32:	66 83 f9 65          	cmp    $0x65,%cx
   10c36:	74 06                	je     0x10c3e
   10c38:	66 83 f9 45          	cmp    $0x45,%cx
   10c3c:	75 96                	jne    0x10bd4
   10c3e:	66 83 78 0c 2e       	cmpw   $0x2e,0xc(%eax)
   10c43:	75 8f                	jne    0x10bd4
   10c45:	0f b7 48 0e          	movzwl 0xe(%eax),%ecx
   10c49:	66 83 f9 65          	cmp    $0x65,%cx
   10c4d:	74 0a                	je     0x10c59
   10c4f:	66 83 f9 45          	cmp    $0x45,%cx
   10c53:	0f 85 7b ff ff ff    	jne    0x10bd4
   10c59:	0f b7 48 10          	movzwl 0x10(%eax),%ecx
   10c5d:	66 83 f9 78          	cmp    $0x78,%cx
   10c61:	74 0a                	je     0x10c6d
   10c63:	66 83 f9 58          	cmp    $0x58,%cx
   10c67:	0f 85 67 ff ff ff    	jne    0x10bd4
   10c6d:	0f b7 40 12          	movzwl 0x12(%eax),%eax
   10c71:	66 83 f8 65          	cmp    $0x65,%ax
   10c75:	74 0a                	je     0x10c81
   10c77:	66 83 f8 45          	cmp    $0x45,%ax
   10c7b:	0f 85 53 ff ff ff    	jne    0x10bd4
   10c81:	b0 01                	mov    $0x1,%al
   10c83:	5d                   	pop    %ebp
   10c84:	c2 04 00             	ret    $0x4
   10c87:	cc                   	int3
   10c88:	cc                   	int3
   10c89:	cc                   	int3
   10c8a:	cc                   	int3
   10c8b:	cc                   	int3
   10c8c:	8b ff                	mov    %edi,%edi
   10c8e:	55                   	push   %ebp
   10c8f:	8b ec                	mov    %esp,%ebp
   10c91:	8b 4d 08             	mov    0x8(%ebp),%ecx
   10c94:	8b c1                	mov    %ecx,%eax
   10c96:	8d 50 02             	lea    0x2(%eax),%edx
   10c99:	56                   	push   %esi
   10c9a:	66 8b 30             	mov    (%eax),%si
   10c9d:	40                   	inc    %eax
   10c9e:	40                   	inc    %eax
   10c9f:	66 85 f6             	test   %si,%si
   10ca2:	75 f6                	jne    0x10c9a
   10ca4:	2b c2                	sub    %edx,%eax
   10ca6:	d1 f8                	sar    %eax
   10ca8:	5e                   	pop    %esi
   10ca9:	83 f8 09             	cmp    $0x9,%eax
   10cac:	73 07                	jae    0x10cb5
   10cae:	32 c0                	xor    %al,%al
   10cb0:	e9 94 00 00 00       	jmp    0x10d49
   10cb5:	8d 44 41 ee          	lea    -0x12(%ecx,%eax,2),%eax
   10cb9:	0f b7 08             	movzwl (%eax),%ecx
   10cbc:	66 83 f9 6d          	cmp    $0x6d,%cx
   10cc0:	74 06                	je     0x10cc8
   10cc2:	66 83 f9 4d          	cmp    $0x4d,%cx
   10cc6:	75 e6                	jne    0x10cae
   10cc8:	0f b7 48 02          	movzwl 0x2(%eax),%ecx
   10ccc:	66 83 f9 73          	cmp    $0x73,%cx
   10cd0:	74 06                	je     0x10cd8
   10cd2:	66 83 f9 53          	cmp    $0x53,%cx
   10cd6:	75 d6                	jne    0x10cae
   10cd8:	0f b7 48 04          	movzwl 0x4(%eax),%ecx
   10cdc:	66 83 f9 68          	cmp    $0x68,%cx
   10ce0:	74 06                	je     0x10ce8
   10ce2:	66 83 f9 48          	cmp    $0x48,%cx
   10ce6:	75 c6                	jne    0x10cae
   10ce8:	0f b7 48 06          	movzwl 0x6(%eax),%ecx
   10cec:	66 83 f9 74          	cmp    $0x74,%cx
   10cf0:	74 06                	je     0x10cf8
   10cf2:	66 83 f9 54          	cmp    $0x54,%cx
   10cf6:	75 b6                	jne    0x10cae
   10cf8:	0f b7 48 08          	movzwl 0x8(%eax),%ecx
   10cfc:	66 83 f9 61          	cmp    $0x61,%cx
   10d00:	74 06                	je     0x10d08
   10d02:	66 83 f9 41          	cmp    $0x41,%cx
   10d06:	75 a6                	jne    0x10cae
   10d08:	66 83 78 0a 2e       	cmpw   $0x2e,0xa(%eax)
   10d0d:	75 9f                	jne    0x10cae
   10d0f:	0f b7 48 0c          	movzwl 0xc(%eax),%ecx
   10d13:	66 83 f9 65          	cmp    $0x65,%cx
   10d17:	74 06                	je     0x10d1f
   10d19:	66 83 f9 45          	cmp    $0x45,%cx
   10d1d:	75 8f                	jne    0x10cae
   10d1f:	0f b7 48 0e          	movzwl 0xe(%eax),%ecx
   10d23:	66 83 f9 78          	cmp    $0x78,%cx
   10d27:	74 0a                	je     0x10d33
   10d29:	66 83 f9 58          	cmp    $0x58,%cx
   10d2d:	0f 85 7b ff ff ff    	jne    0x10cae
   10d33:	0f b7 40 10          	movzwl 0x10(%eax),%eax
   10d37:	66 83 f8 65          	cmp    $0x65,%ax
   10d3b:	74 0a                	je     0x10d47
   10d3d:	66 83 f8 45          	cmp    $0x45,%ax
   10d41:	0f 85 67 ff ff ff    	jne    0x10cae
   10d47:	b0 01                	mov    $0x1,%al
   10d49:	5d                   	pop    %ebp
   10d4a:	c2 04 00             	ret    $0x4
   10d4d:	cc                   	int3
   10d4e:	cc                   	int3
   10d4f:	cc                   	int3
   10d50:	cc                   	int3
   10d51:	cc                   	int3
   10d52:	8b ff                	mov    %edi,%edi
   10d54:	55                   	push   %ebp
   10d55:	8b ec                	mov    %esp,%ebp
   10d57:	56                   	push   %esi
   10d58:	8b 75 08             	mov    0x8(%ebp),%esi
   10d5b:	56                   	push   %esi
   10d5c:	e8 63 fc ff ff       	call   0x109c4
   10d61:	84 c0                	test   %al,%al
   10d63:	74 05                	je     0x10d6a
   10d65:	33 c0                	xor    %eax,%eax
   10d67:	40                   	inc    %eax
   10d68:	eb 2d                	jmp    0x10d97
   10d6a:	56                   	push   %esi
   10d6b:	e8 54 fd ff ff       	call   0x10ac4
   10d70:	84 c0                	test   %al,%al
   10d72:	74 05                	je     0x10d79
   10d74:	6a 02                	push   $0x2
   10d76:	58                   	pop    %eax
   10d77:	eb 1e                	jmp    0x10d97
   10d79:	56                   	push   %esi
   10d7a:	e8 33 fe ff ff       	call   0x10bb2
   10d7f:	84 c0                	test   %al,%al
   10d81:	74 04                	je     0x10d87
   10d83:	6a 03                	push   $0x3
   10d85:	eb ef                	jmp    0x10d76
   10d87:	56                   	push   %esi
   10d88:	e8 ff fe ff ff       	call   0x10c8c
   10d8d:	0f b6 c0             	movzbl %al,%eax
   10d90:	f7 d8                	neg    %eax
   10d92:	1b c0                	sbb    %eax,%eax
   10d94:	83 e0 04             	and    $0x4,%eax
   10d97:	5e                   	pop    %esi
   10d98:	5d                   	pop    %ebp
   10d99:	c2 04 00             	ret    $0x4
   10d9c:	cc                   	int3
   10d9d:	cc                   	int3
   10d9e:	cc                   	int3
   10d9f:	cc                   	int3
   10da0:	cc                   	int3
   10da1:	cc                   	int3
   10da2:	8b ff                	mov    %edi,%edi
   10da4:	55                   	push   %ebp
   10da5:	8b ec                	mov    %esp,%ebp
   10da7:	8b 45 08             	mov    0x8(%ebp),%eax
   10daa:	8b 55 0c             	mov    0xc(%ebp),%edx
   10dad:	56                   	push   %esi
   10dae:	33 f6                	xor    %esi,%esi
   10db0:	eb 23                	jmp    0x10dd5
   10db2:	8b c8                	mov    %eax,%ecx
   10db4:	83 e1 01             	and    $0x1,%ecx
   10db7:	0b ce                	or     %esi,%ecx
   10db9:	56                   	push   %esi
   10dba:	75 0b                	jne    0x10dc7
   10dbc:	6a 02                	push   $0x2
   10dbe:	52                   	push   %edx
   10dbf:	50                   	push   %eax
   10dc0:	e8 31 cf 00 00       	call   0x1dcf6
   10dc5:	eb 0e                	jmp    0x10dd5
   10dc7:	6a 03                	push   $0x3
   10dc9:	52                   	push   %edx
   10dca:	50                   	push   %eax
   10dcb:	e8 1a cf 00 00       	call   0x1dcea
   10dd0:	83 c0 01             	add    $0x1,%eax
   10dd3:	13 d6                	adc    %esi,%edx
   10dd5:	83 f8 04             	cmp    $0x4,%eax
   10dd8:	75 d8                	jne    0x10db2
   10dda:	3b d6                	cmp    %esi,%edx
   10ddc:	75 d4                	jne    0x10db2
   10dde:	5e                   	pop    %esi
   10ddf:	5d                   	pop    %ebp
   10de0:	c2 08 00             	ret    $0x8
   10de3:	cc                   	int3
   10de4:	cc                   	int3
   10de5:	cc                   	int3
   10de6:	cc                   	int3
   10de7:	cc                   	int3
   10de8:	8b ff                	mov    %edi,%edi
   10dea:	55                   	push   %ebp
   10deb:	8b ec                	mov    %esp,%ebp
   10ded:	8b 45 08             	mov    0x8(%ebp),%eax
   10df0:	8b 15 b0 8a 07 00    	mov    0x78ab0,%edx
   10df6:	eb 02                	jmp    0x10dfa
   10df8:	8b c1                	mov    %ecx,%eax
   10dfa:	8b 48 08             	mov    0x8(%eax),%ecx
   10dfd:	3b ca                	cmp    %edx,%ecx
   10dff:	75 f7                	jne    0x10df8
   10e01:	5d                   	pop    %ebp
   10e02:	c2 04 00             	ret    $0x4
   10e05:	cc                   	int3
   10e06:	cc                   	int3
   10e07:	cc                   	int3
   10e08:	cc                   	int3
   10e09:	cc                   	int3
   10e0a:	8b ff                	mov    %edi,%edi
   10e0c:	55                   	push   %ebp
   10e0d:	8b ec                	mov    %esp,%ebp
   10e0f:	8b 45 08             	mov    0x8(%ebp),%eax
   10e12:	8b 15 b0 8a 07 00    	mov    0x78ab0,%edx
   10e18:	eb 02                	jmp    0x10e1c
   10e1a:	8b c1                	mov    %ecx,%eax
   10e1c:	8b 08                	mov    (%eax),%ecx
   10e1e:	3b ca                	cmp    %edx,%ecx
   10e20:	75 f8                	jne    0x10e1a
   10e22:	5d                   	pop    %ebp
   10e23:	c2 04 00             	ret    $0x4
   10e26:	cc                   	int3
   10e27:	cc                   	int3
   10e28:	cc                   	int3
   10e29:	cc                   	int3
   10e2a:	cc                   	int3
   10e2b:	cc                   	int3
   10e2c:	8b ff                	mov    %edi,%edi
   10e2e:	55                   	push   %ebp
   10e2f:	8b ec                	mov    %esp,%ebp
   10e31:	8b 45 08             	mov    0x8(%ebp),%eax
   10e34:	8b 15 b4 8a 07 00    	mov    0x78ab4,%edx
   10e3a:	eb 02                	jmp    0x10e3e
   10e3c:	8b c1                	mov    %ecx,%eax
   10e3e:	8b 48 08             	mov    0x8(%eax),%ecx
   10e41:	3b ca                	cmp    %edx,%ecx
   10e43:	75 f7                	jne    0x10e3c
   10e45:	5d                   	pop    %ebp
   10e46:	c2 04 00             	ret    $0x4
   10e49:	cc                   	int3
   10e4a:	cc                   	int3
   10e4b:	cc                   	int3
   10e4c:	cc                   	int3
   10e4d:	cc                   	int3
   10e4e:	8b ff                	mov    %edi,%edi
   10e50:	55                   	push   %ebp
   10e51:	8b ec                	mov    %esp,%ebp
   10e53:	8b 45 08             	mov    0x8(%ebp),%eax
   10e56:	8b 15 b4 8a 07 00    	mov    0x78ab4,%edx
   10e5c:	eb 02                	jmp    0x10e60
   10e5e:	8b c1                	mov    %ecx,%eax
   10e60:	8b 08                	mov    (%eax),%ecx
   10e62:	3b ca                	cmp    %edx,%ecx
   10e64:	75 f8                	jne    0x10e5e
   10e66:	5d                   	pop    %ebp
   10e67:	c2 04 00             	ret    $0x4
   10e6a:	cc                   	int3
   10e6b:	cc                   	int3
   10e6c:	cc                   	int3
   10e6d:	cc                   	int3
   10e6e:	cc                   	int3
   10e6f:	cc                   	int3
   10e70:	8b ff                	mov    %edi,%edi
   10e72:	55                   	push   %ebp
   10e73:	8b ec                	mov    %esp,%ebp
   10e75:	8b 45 08             	mov    0x8(%ebp),%eax
   10e78:	8b 15 b8 8a 07 00    	mov    0x78ab8,%edx
   10e7e:	eb 02                	jmp    0x10e82
   10e80:	8b c1                	mov    %ecx,%eax
   10e82:	8b 48 08             	mov    0x8(%eax),%ecx
   10e85:	3b ca                	cmp    %edx,%ecx
   10e87:	75 f7                	jne    0x10e80
   10e89:	5d                   	pop    %ebp
   10e8a:	c2 04 00             	ret    $0x4
   10e8d:	cc                   	int3
   10e8e:	cc                   	int3
   10e8f:	cc                   	int3
   10e90:	cc                   	int3
   10e91:	cc                   	int3
   10e92:	8b ff                	mov    %edi,%edi
   10e94:	55                   	push   %ebp
   10e95:	8b ec                	mov    %esp,%ebp
   10e97:	8b 45 08             	mov    0x8(%ebp),%eax
   10e9a:	8b 15 b8 8a 07 00    	mov    0x78ab8,%edx
   10ea0:	eb 02                	jmp    0x10ea4
   10ea2:	8b c1                	mov    %ecx,%eax
   10ea4:	8b 08                	mov    (%eax),%ecx
   10ea6:	3b ca                	cmp    %edx,%ecx
   10ea8:	75 f8                	jne    0x10ea2
   10eaa:	5d                   	pop    %ebp
   10eab:	c2 04 00             	ret    $0x4
   10eae:	cc                   	int3
   10eaf:	cc                   	int3
   10eb0:	cc                   	int3
   10eb1:	cc                   	int3
   10eb2:	cc                   	int3
   10eb3:	cc                   	int3
   10eb4:	8b ff                	mov    %edi,%edi
   10eb6:	56                   	push   %esi
   10eb7:	8b f1                	mov    %ecx,%esi
   10eb9:	8b 0e                	mov    (%esi),%ecx
   10ebb:	83 79 14 00          	cmpl   $0x0,0x14(%ecx)
   10ebf:	75 0d                	jne    0x10ece
   10ec1:	8b 41 04             	mov    0x4(%ecx),%eax
   10ec4:	39 48 04             	cmp    %ecx,0x4(%eax)
   10ec7:	75 05                	jne    0x10ece
   10ec9:	8b 41 08             	mov    0x8(%ecx),%eax
   10ecc:	eb 1d                	jmp    0x10eeb
   10ece:	8b 01                	mov    (%ecx),%eax
   10ed0:	3b 05 b0 8a 07 00    	cmp    0x78ab0,%eax
   10ed6:	74 0c                	je     0x10ee4
   10ed8:	50                   	push   %eax
   10ed9:	e8 0a ff ff ff       	call   0x10de8
   10ede:	eb 0b                	jmp    0x10eeb
   10ee0:	89 06                	mov    %eax,(%esi)
   10ee2:	8b c8                	mov    %eax,%ecx
   10ee4:	8b 41 04             	mov    0x4(%ecx),%eax
   10ee7:	3b 08                	cmp    (%eax),%ecx
   10ee9:	74 f5                	je     0x10ee0
   10eeb:	89 06                	mov    %eax,(%esi)
   10eed:	5e                   	pop    %esi
   10eee:	c3                   	ret
   10eef:	cc                   	int3
   10ef0:	cc                   	int3
   10ef1:	cc                   	int3
   10ef2:	cc                   	int3
   10ef3:	cc                   	int3
   10ef4:	8b ff                	mov    %edi,%edi
   10ef6:	56                   	push   %esi
   10ef7:	8b f1                	mov    %ecx,%esi
   10ef9:	8b 0e                	mov    (%esi),%ecx
   10efb:	8b 41 08             	mov    0x8(%ecx),%eax
   10efe:	3b 05 b0 8a 07 00    	cmp    0x78ab0,%eax
   10f04:	74 0c                	je     0x10f12
   10f06:	50                   	push   %eax
   10f07:	e8 fe fe ff ff       	call   0x10e0a
   10f0c:	eb 13                	jmp    0x10f21
   10f0e:	89 06                	mov    %eax,(%esi)
   10f10:	8b c8                	mov    %eax,%ecx
   10f12:	8b 41 04             	mov    0x4(%ecx),%eax
   10f15:	3b 48 08             	cmp    0x8(%eax),%ecx
   10f18:	74 f4                	je     0x10f0e
   10f1a:	8b 0e                	mov    (%esi),%ecx
   10f1c:	39 41 08             	cmp    %eax,0x8(%ecx)
   10f1f:	74 02                	je     0x10f23
   10f21:	89 06                	mov    %eax,(%esi)
   10f23:	5e                   	pop    %esi
   10f24:	c3                   	ret
   10f25:	cc                   	int3
   10f26:	cc                   	int3
   10f27:	cc                   	int3
   10f28:	cc                   	int3
   10f29:	cc                   	int3
   10f2a:	8b ff                	mov    %edi,%edi
   10f2c:	55                   	push   %ebp
   10f2d:	8b ec                	mov    %esp,%ebp
   10f2f:	8b 55 08             	mov    0x8(%ebp),%edx
   10f32:	8b 42 08             	mov    0x8(%edx),%eax
   10f35:	56                   	push   %esi
   10f36:	8b 30                	mov    (%eax),%esi
   10f38:	89 72 08             	mov    %esi,0x8(%edx)
   10f3b:	8b 30                	mov    (%eax),%esi
   10f3d:	3b 35 bc 8a 07 00    	cmp    0x78abc,%esi
   10f43:	74 03                	je     0x10f48
   10f45:	89 56 04             	mov    %edx,0x4(%esi)
   10f48:	8b 72 04             	mov    0x4(%edx),%esi
   10f4b:	89 70 04             	mov    %esi,0x4(%eax)
   10f4e:	8b 49 04             	mov    0x4(%ecx),%ecx
   10f51:	5e                   	pop    %esi
   10f52:	3b 51 04             	cmp    0x4(%ecx),%edx
   10f55:	75 05                	jne    0x10f5c
   10f57:	89 41 04             	mov    %eax,0x4(%ecx)
   10f5a:	eb 0e                	jmp    0x10f6a
   10f5c:	8b 4a 04             	mov    0x4(%edx),%ecx
   10f5f:	3b 11                	cmp    (%ecx),%edx
   10f61:	75 04                	jne    0x10f67
   10f63:	89 01                	mov    %eax,(%ecx)
   10f65:	eb 03                	jmp    0x10f6a
   10f67:	89 41 08             	mov    %eax,0x8(%ecx)
   10f6a:	89 10                	mov    %edx,(%eax)
   10f6c:	89 42 04             	mov    %eax,0x4(%edx)
   10f6f:	5d                   	pop    %ebp
   10f70:	c2 04 00             	ret    $0x4
   10f73:	cc                   	int3
   10f74:	cc                   	int3
   10f75:	cc                   	int3
   10f76:	cc                   	int3
   10f77:	cc                   	int3
   10f78:	8b ff                	mov    %edi,%edi
   10f7a:	55                   	push   %ebp
   10f7b:	8b ec                	mov    %esp,%ebp
   10f7d:	8b 45 08             	mov    0x8(%ebp),%eax
   10f80:	8b 15 bc 8a 07 00    	mov    0x78abc,%edx
   10f86:	eb 02                	jmp    0x10f8a
   10f88:	8b c1                	mov    %ecx,%eax
   10f8a:	8b 48 08             	mov    0x8(%eax),%ecx
   10f8d:	3b ca                	cmp    %edx,%ecx
   10f8f:	75 f7                	jne    0x10f88
   10f91:	5d                   	pop    %ebp
   10f92:	c2 04 00             	ret    $0x4
   10f95:	cc                   	int3
   10f96:	cc                   	int3
   10f97:	cc                   	int3
   10f98:	cc                   	int3
   10f99:	cc                   	int3
   10f9a:	8b ff                	mov    %edi,%edi
   10f9c:	55                   	push   %ebp
   10f9d:	8b ec                	mov    %esp,%ebp
   10f9f:	8b 55 08             	mov    0x8(%ebp),%edx
   10fa2:	8b 02                	mov    (%edx),%eax
   10fa4:	56                   	push   %esi
   10fa5:	8b 70 08             	mov    0x8(%eax),%esi
   10fa8:	89 32                	mov    %esi,(%edx)
   10faa:	8b 70 08             	mov    0x8(%eax),%esi
   10fad:	3b 35 bc 8a 07 00    	cmp    0x78abc,%esi
   10fb3:	74 03                	je     0x10fb8
   10fb5:	89 56 04             	mov    %edx,0x4(%esi)
   10fb8:	8b 72 04             	mov    0x4(%edx),%esi
   10fbb:	89 70 04             	mov    %esi,0x4(%eax)
   10fbe:	8b 49 04             	mov    0x4(%ecx),%ecx
   10fc1:	5e                   	pop    %esi
   10fc2:	3b 51 04             	cmp    0x4(%ecx),%edx
   10fc5:	75 05                	jne    0x10fcc
   10fc7:	89 41 04             	mov    %eax,0x4(%ecx)
   10fca:	eb 0f                	jmp    0x10fdb
   10fcc:	8b 4a 04             	mov    0x4(%edx),%ecx
   10fcf:	3b 51 08             	cmp    0x8(%ecx),%edx
   10fd2:	75 05                	jne    0x10fd9
   10fd4:	89 41 08             	mov    %eax,0x8(%ecx)
   10fd7:	eb 02                	jmp    0x10fdb
   10fd9:	89 01                	mov    %eax,(%ecx)
   10fdb:	89 50 08             	mov    %edx,0x8(%eax)
   10fde:	89 42 04             	mov    %eax,0x4(%edx)
   10fe1:	5d                   	pop    %ebp
   10fe2:	c2 04 00             	ret    $0x4
   10fe5:	cc                   	int3
   10fe6:	cc                   	int3
   10fe7:	cc                   	int3
   10fe8:	cc                   	int3
   10fe9:	cc                   	int3
   10fea:	8b ff                	mov    %edi,%edi
   10fec:	56                   	push   %esi
   10fed:	8b f1                	mov    %ecx,%esi
   10fef:	8b 0e                	mov    (%esi),%ecx
   10ff1:	83 79 58 00          	cmpl   $0x0,0x58(%ecx)
   10ff5:	75 0d                	jne    0x11004
   10ff7:	8b 41 04             	mov    0x4(%ecx),%eax
   10ffa:	39 48 04             	cmp    %ecx,0x4(%eax)
   10ffd:	75 05                	jne    0x11004
   10fff:	8b 41 08             	mov    0x8(%ecx),%eax
   11002:	eb 1d                	jmp    0x11021
   11004:	8b 01                	mov    (%ecx),%eax
   11006:	3b 05 bc 8a 07 00    	cmp    0x78abc,%eax
   1100c:	74 0c                	je     0x1101a
   1100e:	50                   	push   %eax
   1100f:	e8 64 ff ff ff       	call   0x10f78
   11014:	eb 0b                	jmp    0x11021
   11016:	89 06                	mov    %eax,(%esi)
   11018:	8b c8                	mov    %eax,%ecx
   1101a:	8b 41 04             	mov    0x4(%ecx),%eax
   1101d:	3b 08                	cmp    (%eax),%ecx
   1101f:	74 f5                	je     0x11016
   11021:	89 06                	mov    %eax,(%esi)
   11023:	5e                   	pop    %esi
   11024:	c3                   	ret
   11025:	cc                   	int3
   11026:	cc                   	int3
   11027:	cc                   	int3
   11028:	cc                   	int3
   11029:	cc                   	int3
   1102a:	8b ff                	mov    %edi,%edi
   1102c:	55                   	push   %ebp
   1102d:	8b ec                	mov    %esp,%ebp
   1102f:	8b 45 08             	mov    0x8(%ebp),%eax
   11032:	8b 15 c0 8a 07 00    	mov    0x78ac0,%edx
   11038:	eb 02                	jmp    0x1103c
   1103a:	8b c1                	mov    %ecx,%eax
   1103c:	8b 48 08             	mov    0x8(%eax),%ecx
   1103f:	3b ca                	cmp    %edx,%ecx
   11041:	75 f7                	jne    0x1103a
   11043:	5d                   	pop    %ebp
   11044:	c2 04 00             	ret    $0x4
   11047:	cc                   	int3
   11048:	cc                   	int3
   11049:	cc                   	int3
   1104a:	cc                   	int3
   1104b:	cc                   	int3
   1104c:	8b ff                	mov    %edi,%edi
   1104e:	55                   	push   %ebp
   1104f:	8b ec                	mov    %esp,%ebp
   11051:	8b 45 08             	mov    0x8(%ebp),%eax
   11054:	8b 15 c0 8a 07 00    	mov    0x78ac0,%edx
   1105a:	eb 02                	jmp    0x1105e
   1105c:	8b c1                	mov    %ecx,%eax
   1105e:	8b 08                	mov    (%eax),%ecx
   11060:	3b ca                	cmp    %edx,%ecx
   11062:	75 f8                	jne    0x1105c
   11064:	5d                   	pop    %ebp
   11065:	c2 04 00             	ret    $0x4
   11068:	cc                   	int3
   11069:	cc                   	int3
   1106a:	cc                   	int3
   1106b:	cc                   	int3
   1106c:	cc                   	int3
   1106d:	cc                   	int3
   1106e:	8b ff                	mov    %edi,%edi
   11070:	56                   	push   %esi
   11071:	8b f1                	mov    %ecx,%esi
   11073:	8b 0e                	mov    (%esi),%ecx
   11075:	83 79 1c 00          	cmpl   $0x0,0x1c(%ecx)
   11079:	75 0d                	jne    0x11088
   1107b:	8b 41 04             	mov    0x4(%ecx),%eax
   1107e:	39 48 04             	cmp    %ecx,0x4(%eax)
   11081:	75 05                	jne    0x11088
   11083:	8b 41 08             	mov    0x8(%ecx),%eax
   11086:	eb 1d                	jmp    0x110a5
   11088:	8b 01                	mov    (%ecx),%eax
   1108a:	3b 05 c0 8a 07 00    	cmp    0x78ac0,%eax
   11090:	74 0c                	je     0x1109e
   11092:	50                   	push   %eax
   11093:	e8 92 ff ff ff       	call   0x1102a
   11098:	eb 0b                	jmp    0x110a5
   1109a:	89 06                	mov    %eax,(%esi)
   1109c:	8b c8                	mov    %eax,%ecx
   1109e:	8b 41 04             	mov    0x4(%ecx),%eax
   110a1:	3b 08                	cmp    (%eax),%ecx
   110a3:	74 f5                	je     0x1109a
   110a5:	89 06                	mov    %eax,(%esi)
   110a7:	5e                   	pop    %esi
   110a8:	c3                   	ret
   110a9:	cc                   	int3
   110aa:	cc                   	int3
   110ab:	cc                   	int3
   110ac:	cc                   	int3
   110ad:	cc                   	int3
   110ae:	8b ff                	mov    %edi,%edi
   110b0:	55                   	push   %ebp
   110b1:	8b ec                	mov    %esp,%ebp
   110b3:	8b 45 08             	mov    0x8(%ebp),%eax
   110b6:	8b 15 c4 8a 07 00    	mov    0x78ac4,%edx
   110bc:	eb 02                	jmp    0x110c0
   110be:	8b c1                	mov    %ecx,%eax
   110c0:	8b 48 08             	mov    0x8(%eax),%ecx
   110c3:	3b ca                	cmp    %edx,%ecx
   110c5:	75 f7                	jne    0x110be
   110c7:	5d                   	pop    %ebp
   110c8:	c2 04 00             	ret    $0x4
   110cb:	cc                   	int3
   110cc:	cc                   	int3
   110cd:	cc                   	int3
   110ce:	cc                   	int3
   110cf:	cc                   	int3
   110d0:	8b ff                	mov    %edi,%edi
   110d2:	55                   	push   %ebp
   110d3:	8b ec                	mov    %esp,%ebp
   110d5:	8b 45 08             	mov    0x8(%ebp),%eax
   110d8:	8b 15 c4 8a 07 00    	mov    0x78ac4,%edx
   110de:	eb 02                	jmp    0x110e2
   110e0:	8b c1                	mov    %ecx,%eax
   110e2:	8b 08                	mov    (%eax),%ecx
   110e4:	3b ca                	cmp    %edx,%ecx
   110e6:	75 f8                	jne    0x110e0
   110e8:	5d                   	pop    %ebp
   110e9:	c2 04 00             	ret    $0x4
   110ec:	cc                   	int3
   110ed:	cc                   	int3
   110ee:	cc                   	int3
   110ef:	cc                   	int3
   110f0:	cc                   	int3
   110f1:	cc                   	int3
   110f2:	8b ff                	mov    %edi,%edi
   110f4:	56                   	push   %esi
   110f5:	8b f1                	mov    %ecx,%esi
   110f7:	8b 0e                	mov    (%esi),%ecx
   110f9:	83 79 14 00          	cmpl   $0x0,0x14(%ecx)
   110fd:	75 0d                	jne    0x1110c
   110ff:	8b 41 04             	mov    0x4(%ecx),%eax
   11102:	39 48 04             	cmp    %ecx,0x4(%eax)
   11105:	75 05                	jne    0x1110c
   11107:	8b 41 08             	mov    0x8(%ecx),%eax
   1110a:	eb 1d                	jmp    0x11129
   1110c:	8b 01                	mov    (%ecx),%eax
   1110e:	3b 05 c4 8a 07 00    	cmp    0x78ac4,%eax
   11114:	74 0c                	je     0x11122
   11116:	50                   	push   %eax
   11117:	e8 92 ff ff ff       	call   0x110ae
   1111c:	eb 0b                	jmp    0x11129
   1111e:	89 06                	mov    %eax,(%esi)
   11120:	8b c8                	mov    %eax,%ecx
   11122:	8b 41 04             	mov    0x4(%ecx),%eax
   11125:	3b 08                	cmp    (%eax),%ecx
   11127:	74 f5                	je     0x1111e
   11129:	89 06                	mov    %eax,(%esi)
   1112b:	5e                   	pop    %esi
   1112c:	c3                   	ret
   1112d:	cc                   	int3
   1112e:	cc                   	int3
   1112f:	cc                   	int3
   11130:	cc                   	int3
   11131:	cc                   	int3
   11132:	8b ff                	mov    %edi,%edi
   11134:	56                   	push   %esi
   11135:	8b f1                	mov    %ecx,%esi
   11137:	8b 0e                	mov    (%esi),%ecx
   11139:	83 79 60 00          	cmpl   $0x0,0x60(%ecx)
   1113d:	75 0d                	jne    0x1114c
   1113f:	8b 41 04             	mov    0x4(%ecx),%eax
   11142:	39 48 04             	cmp    %ecx,0x4(%eax)
   11145:	75 05                	jne    0x1114c
   11147:	8b 41 08             	mov    0x8(%ecx),%eax
   1114a:	eb 1d                	jmp    0x11169
   1114c:	8b 01                	mov    (%ecx),%eax
   1114e:	3b 05 b8 8a 07 00    	cmp    0x78ab8,%eax
   11154:	74 0c                	je     0x11162
   11156:	50                   	push   %eax
   11157:	e8 14 fd ff ff       	call   0x10e70
   1115c:	eb 0b                	jmp    0x11169
   1115e:	89 06                	mov    %eax,(%esi)
   11160:	8b c8                	mov    %eax,%ecx
   11162:	8b 41 04             	mov    0x4(%ecx),%eax
   11165:	3b 08                	cmp    (%eax),%ecx
   11167:	74 f5                	je     0x1115e
   11169:	89 06                	mov    %eax,(%esi)
   1116b:	5e                   	pop    %esi
   1116c:	c3                   	ret
   1116d:	cc                   	int3
   1116e:	cc                   	int3
   1116f:	cc                   	int3
   11170:	cc                   	int3
   11171:	cc                   	int3
   11172:	8b ff                	mov    %edi,%edi
   11174:	56                   	push   %esi
   11175:	8b f1                	mov    %ecx,%esi
   11177:	8b 0e                	mov    (%esi),%ecx
   11179:	8b 41 08             	mov    0x8(%ecx),%eax
   1117c:	3b 05 c0 8a 07 00    	cmp    0x78ac0,%eax
   11182:	74 0c                	je     0x11190
   11184:	50                   	push   %eax
   11185:	e8 c2 fe ff ff       	call   0x1104c
   1118a:	eb 13                	jmp    0x1119f
   1118c:	89 06                	mov    %eax,(%esi)
   1118e:	8b c8                	mov    %eax,%ecx
   11190:	8b 41 04             	mov    0x4(%ecx),%eax
   11193:	3b 48 08             	cmp    0x8(%eax),%ecx
   11196:	74 f4                	je     0x1118c
   11198:	8b 0e                	mov    (%esi),%ecx
   1119a:	39 41 08             	cmp    %eax,0x8(%ecx)
   1119d:	74 02                	je     0x111a1
   1119f:	89 06                	mov    %eax,(%esi)
   111a1:	5e                   	pop    %esi
   111a2:	c3                   	ret
   111a3:	cc                   	int3
   111a4:	cc                   	int3
   111a5:	cc                   	int3
   111a6:	cc                   	int3
   111a7:	cc                   	int3
   111a8:	8b ff                	mov    %edi,%edi
   111aa:	56                   	push   %esi
   111ab:	8b f1                	mov    %ecx,%esi
   111ad:	8b 0e                	mov    (%esi),%ecx
   111af:	8b 41 08             	mov    0x8(%ecx),%eax
   111b2:	3b 05 c4 8a 07 00    	cmp    0x78ac4,%eax
   111b8:	74 0c                	je     0x111c6
   111ba:	50                   	push   %eax
   111bb:	e8 10 ff ff ff       	call   0x110d0
   111c0:	eb 13                	jmp    0x111d5
   111c2:	89 06                	mov    %eax,(%esi)
   111c4:	8b c8                	mov    %eax,%ecx
   111c6:	8b 41 04             	mov    0x4(%ecx),%eax
   111c9:	3b 48 08             	cmp    0x8(%eax),%ecx
   111cc:	74 f4                	je     0x111c2
   111ce:	8b 0e                	mov    (%esi),%ecx
   111d0:	39 41 08             	cmp    %eax,0x8(%ecx)
   111d3:	74 02                	je     0x111d7
   111d5:	89 06                	mov    %eax,(%esi)
   111d7:	5e                   	pop    %esi
   111d8:	c3                   	ret
   111d9:	cc                   	int3
   111da:	cc                   	int3
   111db:	cc                   	int3
   111dc:	cc                   	int3
   111dd:	cc                   	int3
   111de:	8b ff                	mov    %edi,%edi
   111e0:	55                   	push   %ebp
   111e1:	8b ec                	mov    %esp,%ebp
   111e3:	8b 45 08             	mov    0x8(%ebp),%eax
   111e6:	8b 15 cc 8a 07 00    	mov    0x78acc,%edx
   111ec:	eb 02                	jmp    0x111f0
   111ee:	8b c1                	mov    %ecx,%eax
   111f0:	8b 48 08             	mov    0x8(%eax),%ecx
   111f3:	3b ca                	cmp    %edx,%ecx
   111f5:	75 f7                	jne    0x111ee
   111f7:	5d                   	pop    %ebp
   111f8:	c2 04 00             	ret    $0x4
   111fb:	cc                   	int3
   111fc:	cc                   	int3
   111fd:	cc                   	int3
   111fe:	cc                   	int3
   111ff:	cc                   	int3
   11200:	8b ff                	mov    %edi,%edi
   11202:	55                   	push   %ebp
   11203:	8b ec                	mov    %esp,%ebp
   11205:	51                   	push   %ecx
   11206:	51                   	push   %ecx
   11207:	8b 45 08             	mov    0x8(%ebp),%eax
   1120a:	89 45 fc             	mov    %eax,-0x4(%ebp)
   1120d:	8d 48 02             	lea    0x2(%eax),%ecx
   11210:	66 8b 10             	mov    (%eax),%dx
   11213:	40                   	inc    %eax
   11214:	40                   	inc    %eax
   11215:	66 85 d2             	test   %dx,%dx
   11218:	75 f6                	jne    0x11210
   1121a:	2b c1                	sub    %ecx,%eax
   1121c:	d1 f8                	sar    %eax
   1121e:	03 c0                	add    %eax,%eax
   11220:	66 89 45 f8          	mov    %ax,-0x8(%ebp)
   11224:	66 89 45 fa          	mov    %ax,-0x6(%ebp)
   11228:	8d 45 f8             	lea    -0x8(%ebp),%eax
   1122b:	50                   	push   %eax
   1122c:	ff 15 14 f4 01 00    	call   *0x1f414
   11232:	c9                   	leave
   11233:	c2 04 00             	ret    $0x4
   11236:	cc                   	int3
   11237:	cc                   	int3
   11238:	cc                   	int3
   11239:	cc                   	int3
   1123a:	cc                   	int3
   1123b:	cc                   	int3
   1123c:	8b ff                	mov    %edi,%edi
   1123e:	55                   	push   %ebp
   1123f:	8b ec                	mov    %esp,%ebp
   11241:	8b 45 08             	mov    0x8(%ebp),%eax
   11244:	85 c0                	test   %eax,%eax
   11246:	74 0d                	je     0x11255
   11248:	8b 4d 0c             	mov    0xc(%ebp),%ecx
   1124b:	8b 11                	mov    (%ecx),%edx
   1124d:	89 10                	mov    %edx,(%eax)
   1124f:	8b 49 04             	mov    0x4(%ecx),%ecx
   11252:	89 48 04             	mov    %ecx,0x4(%eax)
   11255:	5d                   	pop    %ebp
   11256:	c2 08 00             	ret    $0x8
   11259:	cc                   	int3
   1125a:	cc                   	int3
   1125b:	cc                   	int3
   1125c:	cc                   	int3
   1125d:	cc                   	int3
   1125e:	f6 05 d4 8a 07 00 01 	testb  $0x1,0x78ad4
   11265:	75 16                	jne    0x1127d
   11267:	83 0d d4 8a 07 00 01 	orl    $0x1,0x78ad4
   1126e:	68 7c e1 01 00       	push   $0x1e17c
   11273:	e8 88 ff ff ff       	call   0x11200
   11278:	a3 d0 8a 07 00       	mov    %eax,0x78ad0
   1127d:	a1 d0 8a 07 00       	mov    0x78ad0,%eax
   11282:	c3                   	ret
   11283:	cc                   	int3
   11284:	cc                   	int3
   11285:	cc                   	int3
   11286:	cc                   	int3
   11287:	cc                   	int3
   11288:	f6 05 dc 8a 07 00 01 	testb  $0x1,0x78adc
   1128f:	75 16                	jne    0x112a7
   11291:	83 0d dc 8a 07 00 01 	orl    $0x1,0x78adc
   11298:	68 98 e1 01 00       	push   $0x1e198
   1129d:	e8 5e ff ff ff       	call   0x11200
   112a2:	a3 d8 8a 07 00       	mov    %eax,0x78ad8
   112a7:	a1 d8 8a 07 00       	mov    0x78ad8,%eax
   112ac:	c3                   	ret
   112ad:	cc                   	int3
   112ae:	cc                   	int3
   112af:	cc                   	int3
   112b0:	cc                   	int3
   112b1:	cc                   	int3
   112b2:	f6 05 e4 8a 07 00 01 	testb  $0x1,0x78ae4
   112b9:	75 16                	jne    0x112d1
   112bb:	83 0d e4 8a 07 00 01 	orl    $0x1,0x78ae4
   112c2:	68 c8 e1 01 00       	push   $0x1e1c8
   112c7:	e8 34 ff ff ff       	call   0x11200
   112cc:	a3 e0 8a 07 00       	mov    %eax,0x78ae0
   112d1:	a1 e0 8a 07 00       	mov    0x78ae0,%eax
   112d6:	c3                   	ret
   112d7:	cc                   	int3
   112d8:	cc                   	int3
   112d9:	cc                   	int3
   112da:	cc                   	int3
   112db:	cc                   	int3
   112dc:	f6 05 ec 8a 07 00 01 	testb  $0x1,0x78aec
   112e3:	75 16                	jne    0x112fb
   112e5:	83 0d ec 8a 07 00 01 	orl    $0x1,0x78aec
   112ec:	68 00 e2 01 00       	push   $0x1e200
   112f1:	e8 0a ff ff ff       	call   0x11200
   112f6:	a3 e8 8a 07 00       	mov    %eax,0x78ae8
   112fb:	a1 e8 8a 07 00       	mov    0x78ae8,%eax
   11300:	c3                   	ret
   11301:	cc                   	int3
   11302:	cc                   	int3
   11303:	cc                   	int3
   11304:	cc                   	int3
   11305:	cc                   	int3
   11306:	f6 05 f4 8a 07 00 01 	testb  $0x1,0x78af4
   1130d:	75 16                	jne    0x11325
   1130f:	83 0d f4 8a 07 00 01 	orl    $0x1,0x78af4
   11316:	68 22 e2 01 00       	push   $0x1e222
   1131b:	e8 e0 fe ff ff       	call   0x11200
   11320:	a3 f0 8a 07 00       	mov    %eax,0x78af0
   11325:	a1 f0 8a 07 00       	mov    0x78af0,%eax
   1132a:	c3                   	ret
   1132b:	cc                   	int3
   1132c:	cc                   	int3
   1132d:	cc                   	int3
   1132e:	cc                   	int3
   1132f:	cc                   	int3
   11330:	f6 05 fc 8a 07 00 01 	testb  $0x1,0x78afc
   11337:	75 16                	jne    0x1134f
   11339:	83 0d fc 8a 07 00 01 	orl    $0x1,0x78afc
   11340:	68 62 e2 01 00       	push   $0x1e262
   11345:	e8 b6 fe ff ff       	call   0x11200
   1134a:	a3 f8 8a 07 00       	mov    %eax,0x78af8
   1134f:	a1 f8 8a 07 00       	mov    0x78af8,%eax
   11354:	c3                   	ret
   11355:	cc                   	int3
   11356:	cc                   	int3
   11357:	cc                   	int3
   11358:	cc                   	int3
   11359:	cc                   	int3
   1135a:	f6 05 04 8b 07 00 01 	testb  $0x1,0x78b04
   11361:	75 16                	jne    0x11379
   11363:	83 0d 04 8b 07 00 01 	orl    $0x1,0x78b04
   1136a:	68 78 e2 01 00       	push   $0x1e278
   1136f:	e8 8c fe ff ff       	call   0x11200
   11374:	a3 00 8b 07 00       	mov    %eax,0x78b00
   11379:	a1 00 8b 07 00       	mov    0x78b00,%eax
   1137e:	c3                   	ret
   1137f:	cc                   	int3
   11380:	cc                   	int3
   11381:	cc                   	int3
   11382:	cc                   	int3
   11383:	cc                   	int3
   11384:	f6 05 0c 8b 07 00 01 	testb  $0x1,0x78b0c
   1138b:	75 16                	jne    0x113a3
   1138d:	83 0d 0c 8b 07 00 01 	orl    $0x1,0x78b0c
   11394:	68 ac e2 01 00       	push   $0x1e2ac
   11399:	e8 62 fe ff ff       	call   0x11200
   1139e:	a3 08 8b 07 00       	mov    %eax,0x78b08
   113a3:	a1 08 8b 07 00       	mov    0x78b08,%eax
   113a8:	c3                   	ret
   113a9:	cc                   	int3
   113aa:	cc                   	int3
   113ab:	cc                   	int3
   113ac:	cc                   	int3
   113ad:	cc                   	int3
   113ae:	f6 05 14 8b 07 00 01 	testb  $0x1,0x78b14
   113b5:	75 16                	jne    0x113cd
   113b7:	83 0d 14 8b 07 00 01 	orl    $0x1,0x78b14
   113be:	68 de e2 01 00       	push   $0x1e2de
   113c3:	e8 38 fe ff ff       	call   0x11200
   113c8:	a3 10 8b 07 00       	mov    %eax,0x78b10
   113cd:	a1 10 8b 07 00       	mov    0x78b10,%eax
   113d2:	c3                   	ret
   113d3:	cc                   	int3
   113d4:	cc                   	int3
   113d5:	cc                   	int3
   113d6:	cc                   	int3
   113d7:	cc                   	int3
   113d8:	f6 05 1c 8b 07 00 01 	testb  $0x1,0x78b1c
   113df:	75 16                	jne    0x113f7
   113e1:	83 0d 1c 8b 07 00 01 	orl    $0x1,0x78b1c
   113e8:	68 f2 e2 01 00       	push   $0x1e2f2
   113ed:	e8 0e fe ff ff       	call   0x11200
   113f2:	a3 18 8b 07 00       	mov    %eax,0x78b18
   113f7:	a1 18 8b 07 00       	mov    0x78b18,%eax
   113fc:	c3                   	ret
   113fd:	cc                   	int3
   113fe:	cc                   	int3
   113ff:	cc                   	int3
   11400:	cc                   	int3
   11401:	cc                   	int3
   11402:	f6 05 24 8b 07 00 01 	testb  $0x1,0x78b24
   11409:	75 16                	jne    0x11421
   1140b:	83 0d 24 8b 07 00 01 	orl    $0x1,0x78b24
   11412:	68 0a e3 01 00       	push   $0x1e30a
   11417:	e8 e4 fd ff ff       	call   0x11200
   1141c:	a3 20 8b 07 00       	mov    %eax,0x78b20
   11421:	a1 20 8b 07 00       	mov    0x78b20,%eax
   11426:	c3                   	ret
   11427:	cc                   	int3
   11428:	cc                   	int3
   11429:	cc                   	int3
   1142a:	cc                   	int3
   1142b:	cc                   	int3
   1142c:	f6 05 2c 8b 07 00 01 	testb  $0x1,0x78b2c
   11433:	75 16                	jne    0x1144b
   11435:	83 0d 2c 8b 07 00 01 	orl    $0x1,0x78b2c
   1143c:	68 26 e3 01 00       	push   $0x1e326
   11441:	e8 ba fd ff ff       	call   0x11200
   11446:	a3 28 8b 07 00       	mov    %eax,0x78b28
   1144b:	a1 28 8b 07 00       	mov    0x78b28,%eax
   11450:	c3                   	ret
   11451:	cc                   	int3
   11452:	cc                   	int3
   11453:	cc                   	int3
   11454:	cc                   	int3
   11455:	cc                   	int3
   11456:	f6 05 34 8b 07 00 01 	testb  $0x1,0x78b34
   1145d:	75 16                	jne    0x11475
   1145f:	83 0d 34 8b 07 00 01 	orl    $0x1,0x78b34
   11466:	68 60 e3 01 00       	push   $0x1e360
   1146b:	e8 90 fd ff ff       	call   0x11200
   11470:	a3 30 8b 07 00       	mov    %eax,0x78b30
   11475:	a1 30 8b 07 00       	mov    0x78b30,%eax
   1147a:	c3                   	ret
   1147b:	cc                   	int3
   1147c:	cc                   	int3
   1147d:	cc                   	int3
   1147e:	cc                   	int3
   1147f:	cc                   	int3
   11480:	f6 05 3c 8b 07 00 01 	testb  $0x1,0x78b3c
   11487:	75 16                	jne    0x1149f
   11489:	83 0d 3c 8b 07 00 01 	orl    $0x1,0x78b3c
   11490:	68 7a e3 01 00       	push   $0x1e37a
   11495:	e8 66 fd ff ff       	call   0x11200
   1149a:	a3 38 8b 07 00       	mov    %eax,0x78b38
   1149f:	a1 38 8b 07 00       	mov    0x78b38,%eax
   114a4:	c3                   	ret
   114a5:	cc                   	int3
   114a6:	cc                   	int3
   114a7:	cc                   	int3
   114a8:	cc                   	int3
   114a9:	cc                   	int3
   114aa:	f6 05 44 8b 07 00 01 	testb  $0x1,0x78b44
   114b1:	75 16                	jne    0x114c9
   114b3:	83 0d 44 8b 07 00 01 	orl    $0x1,0x78b44
   114ba:	68 9c e3 01 00       	push   $0x1e39c
   114bf:	e8 3c fd ff ff       	call   0x11200
   114c4:	a3 40 8b 07 00       	mov    %eax,0x78b40
   114c9:	a1 40 8b 07 00       	mov    0x78b40,%eax
   114ce:	c3                   	ret
   114cf:	cc                   	int3
   114d0:	cc                   	int3
   114d1:	cc                   	int3
   114d2:	cc                   	int3
   114d3:	cc                   	int3
   114d4:	f6 05 4c 8b 07 00 01 	testb  $0x1,0x78b4c
   114db:	75 16                	jne    0x114f3
   114dd:	83 0d 4c 8b 07 00 01 	orl    $0x1,0x78b4c
   114e4:	68 d6 e3 01 00       	push   $0x1e3d6
   114e9:	e8 12 fd ff ff       	call   0x11200
   114ee:	a3 48 8b 07 00       	mov    %eax,0x78b48
   114f3:	a1 48 8b 07 00       	mov    0x78b48,%eax
   114f8:	c3                   	ret
   114f9:	cc                   	int3
   114fa:	cc                   	int3
   114fb:	cc                   	int3
   114fc:	cc                   	int3
   114fd:	cc                   	int3
   114fe:	f6 05 54 8b 07 00 01 	testb  $0x1,0x78b54
   11505:	75 16                	jne    0x1151d
   11507:	83 0d 54 8b 07 00 01 	orl    $0x1,0x78b54
   1150e:	68 fc e3 01 00       	push   $0x1e3fc
   11513:	e8 e8 fc ff ff       	call   0x11200
   11518:	a3 50 8b 07 00       	mov    %eax,0x78b50
   1151d:	a1 50 8b 07 00       	mov    0x78b50,%eax
   11522:	c3                   	ret
   11523:	cc                   	int3
   11524:	cc                   	int3
   11525:	cc                   	int3
   11526:	cc                   	int3
   11527:	cc                   	int3
   11528:	f6 05 5c 8b 07 00 01 	testb  $0x1,0x78b5c
   1152f:	75 16                	jne    0x11547
   11531:	83 0d 5c 8b 07 00 01 	orl    $0x1,0x78b5c
   11538:	68 2c e4 01 00       	push   $0x1e42c
   1153d:	e8 be fc ff ff       	call   0x11200
   11542:	a3 58 8b 07 00       	mov    %eax,0x78b58
   11547:	a1 58 8b 07 00       	mov    0x78b58,%eax
   1154c:	c3                   	ret
   1154d:	cc                   	int3
   1154e:	cc                   	int3
   1154f:	cc                   	int3
   11550:	cc                   	int3
   11551:	cc                   	int3
   11552:	f6 05 64 8b 07 00 01 	testb  $0x1,0x78b64
   11559:	75 16                	jne    0x11571
   1155b:	83 0d 64 8b 07 00 01 	orl    $0x1,0x78b64
   11562:	68 5e e4 01 00       	push   $0x1e45e
   11567:	e8 94 fc ff ff       	call   0x11200
   1156c:	a3 60 8b 07 00       	mov    %eax,0x78b60
   11571:	a1 60 8b 07 00       	mov    0x78b60,%eax
   11576:	c3                   	ret
   11577:	cc                   	int3
   11578:	cc                   	int3
   11579:	cc                   	int3
   1157a:	cc                   	int3
   1157b:	cc                   	int3
   1157c:	f6 05 6c 8b 07 00 01 	testb  $0x1,0x78b6c
   11583:	75 16                	jne    0x1159b
   11585:	83 0d 6c 8b 07 00 01 	orl    $0x1,0x78b6c
   1158c:	68 6e e4 01 00       	push   $0x1e46e
   11591:	e8 6a fc ff ff       	call   0x11200
   11596:	a3 68 8b 07 00       	mov    %eax,0x78b68
   1159b:	a1 68 8b 07 00       	mov    0x78b68,%eax
   115a0:	c3                   	ret
   115a1:	cc                   	int3
   115a2:	cc                   	int3
   115a3:	cc                   	int3
   115a4:	cc                   	int3
   115a5:	cc                   	int3
   115a6:	f6 05 74 8b 07 00 01 	testb  $0x1,0x78b74
   115ad:	75 16                	jne    0x115c5
   115af:	83 0d 74 8b 07 00 01 	orl    $0x1,0x78b74
   115b6:	68 98 e4 01 00       	push   $0x1e498
   115bb:	e8 40 fc ff ff       	call   0x11200
   115c0:	a3 70 8b 07 00       	mov    %eax,0x78b70
   115c5:	a1 70 8b 07 00       	mov    0x78b70,%eax
   115ca:	c3                   	ret
   115cb:	cc                   	int3
   115cc:	cc                   	int3
   115cd:	cc                   	int3
   115ce:	cc                   	int3
   115cf:	cc                   	int3
   115d0:	f6 05 7c 8b 07 00 01 	testb  $0x1,0x78b7c
   115d7:	75 16                	jne    0x115ef
   115d9:	83 0d 7c 8b 07 00 01 	orl    $0x1,0x78b7c
   115e0:	68 b4 e4 01 00       	push   $0x1e4b4
   115e5:	e8 16 fc ff ff       	call   0x11200
   115ea:	a3 78 8b 07 00       	mov    %eax,0x78b78
   115ef:	a1 78 8b 07 00       	mov    0x78b78,%eax
   115f4:	c3                   	ret
   115f5:	cc                   	int3
   115f6:	cc                   	int3
   115f7:	cc                   	int3
   115f8:	cc                   	int3
   115f9:	cc                   	int3
   115fa:	f6 05 84 8b 07 00 01 	testb  $0x1,0x78b84
   11601:	75 16                	jne    0x11619
   11603:	83 0d 84 8b 07 00 01 	orl    $0x1,0x78b84
   1160a:	68 f0 e4 01 00       	push   $0x1e4f0
   1160f:	e8 ec fb ff ff       	call   0x11200
   11614:	a3 80 8b 07 00       	mov    %eax,0x78b80
   11619:	a1 80 8b 07 00       	mov    0x78b80,%eax
   1161e:	c3                   	ret
   1161f:	cc                   	int3
   11620:	cc                   	int3
   11621:	cc                   	int3
   11622:	cc                   	int3
   11623:	cc                   	int3
   11624:	f6 05 8c 8b 07 00 01 	testb  $0x1,0x78b8c
   1162b:	75 16                	jne    0x11643
   1162d:	83 0d 8c 8b 07 00 01 	orl    $0x1,0x78b8c
   11634:	68 14 e5 01 00       	push   $0x1e514
   11639:	e8 c2 fb ff ff       	call   0x11200
   1163e:	a3 88 8b 07 00       	mov    %eax,0x78b88
   11643:	a1 88 8b 07 00       	mov    0x78b88,%eax
   11648:	c3                   	ret
   11649:	cc                   	int3
   1164a:	cc                   	int3
   1164b:	cc                   	int3
   1164c:	cc                   	int3
   1164d:	cc                   	int3
   1164e:	f6 05 94 8b 07 00 01 	testb  $0x1,0x78b94
   11655:	75 16                	jne    0x1166d
   11657:	83 0d 94 8b 07 00 01 	orl    $0x1,0x78b94
   1165e:	68 3e e5 01 00       	push   $0x1e53e
   11663:	e8 98 fb ff ff       	call   0x11200
   11668:	a3 90 8b 07 00       	mov    %eax,0x78b90
   1166d:	a1 90 8b 07 00       	mov    0x78b90,%eax
   11672:	c3                   	ret
   11673:	cc                   	int3
   11674:	cc                   	int3
   11675:	cc                   	int3
   11676:	cc                   	int3
   11677:	cc                   	int3
   11678:	f6 05 9c 8b 07 00 01 	testb  $0x1,0x78b9c
   1167f:	75 16                	jne    0x11697
   11681:	83 0d 9c 8b 07 00 01 	orl    $0x1,0x78b9c
   11688:	68 6a e5 01 00       	push   $0x1e56a
   1168d:	e8 6e fb ff ff       	call   0x11200
   11692:	a3 98 8b 07 00       	mov    %eax,0x78b98
   11697:	a1 98 8b 07 00       	mov    0x78b98,%eax
   1169c:	c3                   	ret
   1169d:	cc                   	int3
   1169e:	cc                   	int3
   1169f:	cc                   	int3
   116a0:	cc                   	int3
   116a1:	cc                   	int3
   116a2:	f6 05 a4 8b 07 00 01 	testb  $0x1,0x78ba4
   116a9:	75 16                	jne    0x116c1
   116ab:	83 0d a4 8b 07 00 01 	orl    $0x1,0x78ba4
   116b2:	68 7e e5 01 00       	push   $0x1e57e
   116b7:	e8 44 fb ff ff       	call   0x11200
   116bc:	a3 a0 8b 07 00       	mov    %eax,0x78ba0
   116c1:	a1 a0 8b 07 00       	mov    0x78ba0,%eax
   116c6:	c3                   	ret
   116c7:	cc                   	int3
   116c8:	cc                   	int3
   116c9:	cc                   	int3
   116ca:	cc                   	int3
   116cb:	cc                   	int3
   116cc:	f6 05 ac 8b 07 00 01 	testb  $0x1,0x78bac
   116d3:	75 16                	jne    0x116eb
   116d5:	83 0d ac 8b 07 00 01 	orl    $0x1,0x78bac
   116dc:	68 ae e5 01 00       	push   $0x1e5ae
   116e1:	e8 1a fb ff ff       	call   0x11200
   116e6:	a3 a8 8b 07 00       	mov    %eax,0x78ba8
   116eb:	a1 a8 8b 07 00       	mov    0x78ba8,%eax
   116f0:	c3                   	ret
   116f1:	cc                   	int3
   116f2:	cc                   	int3
   116f3:	cc                   	int3
   116f4:	cc                   	int3
   116f5:	cc                   	int3
   116f6:	f6 05 b4 8b 07 00 01 	testb  $0x1,0x78bb4
   116fd:	75 16                	jne    0x11715
   116ff:	83 0d b4 8b 07 00 01 	orl    $0x1,0x78bb4
   11706:	68 cc e5 01 00       	push   $0x1e5cc
   1170b:	e8 f0 fa ff ff       	call   0x11200
   11710:	a3 b0 8b 07 00       	mov    %eax,0x78bb0
   11715:	a1 b0 8b 07 00       	mov    0x78bb0,%eax
   1171a:	c3                   	ret
   1171b:	cc                   	int3
   1171c:	cc                   	int3
   1171d:	cc                   	int3
   1171e:	cc                   	int3
   1171f:	cc                   	int3
   11720:	f6 05 bc 8b 07 00 01 	testb  $0x1,0x78bbc
   11727:	75 16                	jne    0x1173f
   11729:	83 0d bc 8b 07 00 01 	orl    $0x1,0x78bbc
   11730:	68 e6 e5 01 00       	push   $0x1e5e6
   11735:	e8 c6 fa ff ff       	call   0x11200
   1173a:	a3 b8 8b 07 00       	mov    %eax,0x78bb8
   1173f:	a1 b8 8b 07 00       	mov    0x78bb8,%eax
   11744:	c3                   	ret
   11745:	cc                   	int3
   11746:	cc                   	int3
   11747:	cc                   	int3
   11748:	cc                   	int3
   11749:	cc                   	int3
   1174a:	f6 05 c4 8b 07 00 01 	testb  $0x1,0x78bc4
   11751:	75 16                	jne    0x11769
   11753:	83 0d c4 8b 07 00 01 	orl    $0x1,0x78bc4
   1175a:	68 fe e5 01 00       	push   $0x1e5fe
   1175f:	e8 9c fa ff ff       	call   0x11200
   11764:	a3 c0 8b 07 00       	mov    %eax,0x78bc0
   11769:	a1 c0 8b 07 00       	mov    0x78bc0,%eax
   1176e:	c3                   	ret
   1176f:	cc                   	int3
   11770:	cc                   	int3
   11771:	cc                   	int3
   11772:	cc                   	int3
   11773:	cc                   	int3
   11774:	f6 05 cc 8b 07 00 01 	testb  $0x1,0x78bcc
   1177b:	75 16                	jne    0x11793
   1177d:	83 0d cc 8b 07 00 01 	orl    $0x1,0x78bcc
   11784:	68 1c e6 01 00       	push   $0x1e61c
   11789:	e8 72 fa ff ff       	call   0x11200
   1178e:	a3 c8 8b 07 00       	mov    %eax,0x78bc8
   11793:	a1 c8 8b 07 00       	mov    0x78bc8,%eax
   11798:	c3                   	ret
   11799:	cc                   	int3
   1179a:	cc                   	int3
   1179b:	cc                   	int3
   1179c:	cc                   	int3
   1179d:	cc                   	int3
   1179e:	f6 05 d4 8b 07 00 01 	testb  $0x1,0x78bd4
   117a5:	75 16                	jne    0x117bd
   117a7:	83 0d d4 8b 07 00 01 	orl    $0x1,0x78bd4
   117ae:	68 3c e6 01 00       	push   $0x1e63c
   117b3:	e8 48 fa ff ff       	call   0x11200
   117b8:	a3 d0 8b 07 00       	mov    %eax,0x78bd0
   117bd:	a1 d0 8b 07 00       	mov    0x78bd0,%eax
   117c2:	c3                   	ret
   117c3:	cc                   	int3
   117c4:	cc                   	int3
   117c5:	cc                   	int3
   117c6:	cc                   	int3
   117c7:	cc                   	int3
   117c8:	f6 05 dc 8b 07 00 01 	testb  $0x1,0x78bdc
   117cf:	75 16                	jne    0x117e7
   117d1:	83 0d dc 8b 07 00 01 	orl    $0x1,0x78bdc
   117d8:	68 5c e6 01 00       	push   $0x1e65c
   117dd:	e8 1e fa ff ff       	call   0x11200
   117e2:	a3 d8 8b 07 00       	mov    %eax,0x78bd8
   117e7:	a1 d8 8b 07 00       	mov    0x78bd8,%eax
   117ec:	c3                   	ret
   117ed:	cc                   	int3
   117ee:	cc                   	int3
   117ef:	cc                   	int3
   117f0:	cc                   	int3
   117f1:	cc                   	int3
   117f2:	f6 05 e4 8b 07 00 01 	testb  $0x1,0x78be4
   117f9:	75 16                	jne    0x11811
   117fb:	83 0d e4 8b 07 00 01 	orl    $0x1,0x78be4
   11802:	68 7c e6 01 00       	push   $0x1e67c
   11807:	e8 f4 f9 ff ff       	call   0x11200
   1180c:	a3 e0 8b 07 00       	mov    %eax,0x78be0
   11811:	a1 e0 8b 07 00       	mov    0x78be0,%eax
   11816:	c3                   	ret
   11817:	cc                   	int3
   11818:	cc                   	int3
   11819:	cc                   	int3
   1181a:	cc                   	int3
   1181b:	cc                   	int3
   1181c:	f6 05 ec 8b 07 00 01 	testb  $0x1,0x78bec
   11823:	75 16                	jne    0x1183b
   11825:	83 0d ec 8b 07 00 01 	orl    $0x1,0x78bec
   1182c:	68 92 e6 01 00       	push   $0x1e692
   11831:	e8 ca f9 ff ff       	call   0x11200
   11836:	a3 e8 8b 07 00       	mov    %eax,0x78be8
   1183b:	a1 e8 8b 07 00       	mov    0x78be8,%eax
   11840:	c3                   	ret
   11841:	cc                   	int3
   11842:	cc                   	int3
   11843:	cc                   	int3
   11844:	cc                   	int3
   11845:	cc                   	int3
   11846:	f6 05 f4 8b 07 00 01 	testb  $0x1,0x78bf4
   1184d:	75 16                	jne    0x11865
   1184f:	83 0d f4 8b 07 00 01 	orl    $0x1,0x78bf4
   11856:	68 bc e6 01 00       	push   $0x1e6bc
   1185b:	e8 a0 f9 ff ff       	call   0x11200
   11860:	a3 f0 8b 07 00       	mov    %eax,0x78bf0
   11865:	a1 f0 8b 07 00       	mov    0x78bf0,%eax
   1186a:	c3                   	ret
   1186b:	cc                   	int3
   1186c:	cc                   	int3
   1186d:	cc                   	int3
   1186e:	cc                   	int3
   1186f:	cc                   	int3
   11870:	f6 05 fc 8b 07 00 01 	testb  $0x1,0x78bfc
   11877:	75 16                	jne    0x1188f
   11879:	83 0d fc 8b 07 00 01 	orl    $0x1,0x78bfc
   11880:	68 d4 e6 01 00       	push   $0x1e6d4
   11885:	e8 76 f9 ff ff       	call   0x11200
   1188a:	a3 f8 8b 07 00       	mov    %eax,0x78bf8
   1188f:	a1 f8 8b 07 00       	mov    0x78bf8,%eax
   11894:	c3                   	ret
   11895:	cc                   	int3
   11896:	cc                   	int3
   11897:	cc                   	int3
   11898:	cc                   	int3
   11899:	cc                   	int3
   1189a:	f6 05 04 8c 07 00 01 	testb  $0x1,0x78c04
   118a1:	75 16                	jne    0x118b9
   118a3:	83 0d 04 8c 07 00 01 	orl    $0x1,0x78c04
   118aa:	68 02 e7 01 00       	push   $0x1e702
   118af:	e8 4c f9 ff ff       	call   0x11200
   118b4:	a3 00 8c 07 00       	mov    %eax,0x78c00
   118b9:	a1 00 8c 07 00       	mov    0x78c00,%eax
   118be:	c3                   	ret
   118bf:	cc                   	int3
   118c0:	cc                   	int3
   118c1:	cc                   	int3
   118c2:	cc                   	int3
   118c3:	cc                   	int3
   118c4:	f6 05 0c 8c 07 00 01 	testb  $0x1,0x78c0c
   118cb:	75 16                	jne    0x118e3
   118cd:	83 0d 0c 8c 07 00 01 	orl    $0x1,0x78c0c
   118d4:	68 2c e7 01 00       	push   $0x1e72c
   118d9:	e8 22 f9 ff ff       	call   0x11200
   118de:	a3 08 8c 07 00       	mov    %eax,0x78c08
   118e3:	a1 08 8c 07 00       	mov    0x78c08,%eax
   118e8:	c3                   	ret
   118e9:	cc                   	int3
   118ea:	cc                   	int3
   118eb:	cc                   	int3
   118ec:	cc                   	int3
   118ed:	cc                   	int3
   118ee:	f6 05 14 8c 07 00 01 	testb  $0x1,0x78c14
   118f5:	75 16                	jne    0x1190d
   118f7:	83 0d 14 8c 07 00 01 	orl    $0x1,0x78c14
   118fe:	68 4a e7 01 00       	push   $0x1e74a
   11903:	e8 f8 f8 ff ff       	call   0x11200
   11908:	a3 10 8c 07 00       	mov    %eax,0x78c10
   1190d:	a1 10 8c 07 00       	mov    0x78c10,%eax
   11912:	c3                   	ret
   11913:	cc                   	int3
   11914:	cc                   	int3
   11915:	cc                   	int3
   11916:	cc                   	int3
   11917:	cc                   	int3
   11918:	f6 05 1c 8c 07 00 01 	testb  $0x1,0x78c1c
   1191f:	75 16                	jne    0x11937
   11921:	83 0d 1c 8c 07 00 01 	orl    $0x1,0x78c1c
   11928:	68 78 e7 01 00       	push   $0x1e778
   1192d:	e8 ce f8 ff ff       	call   0x11200
   11932:	a3 18 8c 07 00       	mov    %eax,0x78c18
   11937:	a1 18 8c 07 00       	mov    0x78c18,%eax
   1193c:	c3                   	ret
   1193d:	cc                   	int3
   1193e:	cc                   	int3
   1193f:	cc                   	int3
   11940:	cc                   	int3
   11941:	cc                   	int3
   11942:	f6 05 24 8c 07 00 01 	testb  $0x1,0x78c24
   11949:	75 16                	jne    0x11961
   1194b:	83 0d 24 8c 07 00 01 	orl    $0x1,0x78c24
   11952:	68 9c e7 01 00       	push   $0x1e79c
   11957:	e8 a4 f8 ff ff       	call   0x11200
   1195c:	a3 20 8c 07 00       	mov    %eax,0x78c20
   11961:	a1 20 8c 07 00       	mov    0x78c20,%eax
   11966:	c3                   	ret
   11967:	cc                   	int3
   11968:	cc                   	int3
   11969:	cc                   	int3
   1196a:	cc                   	int3
   1196b:	cc                   	int3
   1196c:	f6 05 2c 8c 07 00 01 	testb  $0x1,0x78c2c
   11973:	75 16                	jne    0x1198b
   11975:	83 0d 2c 8c 07 00 01 	orl    $0x1,0x78c2c
   1197c:	68 c2 e7 01 00       	push   $0x1e7c2
   11981:	e8 7a f8 ff ff       	call   0x11200
   11986:	a3 28 8c 07 00       	mov    %eax,0x78c28
   1198b:	a1 28 8c 07 00       	mov    0x78c28,%eax
   11990:	c3                   	ret
   11991:	cc                   	int3
   11992:	cc                   	int3
   11993:	cc                   	int3
   11994:	cc                   	int3
   11995:	cc                   	int3
   11996:	f6 05 34 8c 07 00 01 	testb  $0x1,0x78c34
   1199d:	75 16                	jne    0x119b5
   1199f:	83 0d 34 8c 07 00 01 	orl    $0x1,0x78c34
   119a6:	68 e2 e7 01 00       	push   $0x1e7e2
   119ab:	e8 50 f8 ff ff       	call   0x11200
   119b0:	a3 30 8c 07 00       	mov    %eax,0x78c30
   119b5:	a1 30 8c 07 00       	mov    0x78c30,%eax
   119ba:	c3                   	ret
   119bb:	cc                   	int3
   119bc:	cc                   	int3
   119bd:	cc                   	int3
   119be:	cc                   	int3
   119bf:	cc                   	int3
   119c0:	f6 05 3c 8c 07 00 01 	testb  $0x1,0x78c3c
   119c7:	75 16                	jne    0x119df
   119c9:	83 0d 3c 8c 07 00 01 	orl    $0x1,0x78c3c
   119d0:	68 0c e8 01 00       	push   $0x1e80c
   119d5:	e8 26 f8 ff ff       	call   0x11200
   119da:	a3 38 8c 07 00       	mov    %eax,0x78c38
   119df:	a1 38 8c 07 00       	mov    0x78c38,%eax
   119e4:	c3                   	ret
   119e5:	cc                   	int3
   119e6:	cc                   	int3
   119e7:	cc                   	int3
   119e8:	cc                   	int3
   119e9:	cc                   	int3
   119ea:	f6 05 44 8c 07 00 01 	testb  $0x1,0x78c44
   119f1:	75 16                	jne    0x11a09
   119f3:	83 0d 44 8c 07 00 01 	orl    $0x1,0x78c44
   119fa:	68 30 e8 01 00       	push   $0x1e830
   119ff:	e8 fc f7 ff ff       	call   0x11200
   11a04:	a3 40 8c 07 00       	mov    %eax,0x78c40
   11a09:	a1 40 8c 07 00       	mov    0x78c40,%eax
   11a0e:	c3                   	ret
   11a0f:	cc                   	int3
   11a10:	cc                   	int3
   11a11:	cc                   	int3
   11a12:	cc                   	int3
   11a13:	cc                   	int3
   11a14:	f6 05 4c 8c 07 00 01 	testb  $0x1,0x78c4c
   11a1b:	75 16                	jne    0x11a33
   11a1d:	83 0d 4c 8c 07 00 01 	orl    $0x1,0x78c4c
   11a24:	68 5c e8 01 00       	push   $0x1e85c
   11a29:	e8 d2 f7 ff ff       	call   0x11200
   11a2e:	a3 48 8c 07 00       	mov    %eax,0x78c48
   11a33:	a1 48 8c 07 00       	mov    0x78c48,%eax
   11a38:	c3                   	ret
   11a39:	cc                   	int3
   11a3a:	cc                   	int3
   11a3b:	cc                   	int3
   11a3c:	cc                   	int3
   11a3d:	cc                   	int3
   11a3e:	f6 05 54 8c 07 00 01 	testb  $0x1,0x78c54
   11a45:	75 16                	jne    0x11a5d
   11a47:	83 0d 54 8c 07 00 01 	orl    $0x1,0x78c54
   11a4e:	68 7a e8 01 00       	push   $0x1e87a
   11a53:	e8 a8 f7 ff ff       	call   0x11200
   11a58:	a3 50 8c 07 00       	mov    %eax,0x78c50
   11a5d:	a1 50 8c 07 00       	mov    0x78c50,%eax
   11a62:	c3                   	ret
   11a63:	cc                   	int3
   11a64:	cc                   	int3
   11a65:	cc                   	int3
   11a66:	cc                   	int3
   11a67:	cc                   	int3
   11a68:	f6 05 5c 8c 07 00 01 	testb  $0x1,0x78c5c
   11a6f:	75 16                	jne    0x11a87
   11a71:	83 0d 5c 8c 07 00 01 	orl    $0x1,0x78c5c
   11a78:	68 b0 e8 01 00       	push   $0x1e8b0
   11a7d:	e8 7e f7 ff ff       	call   0x11200
   11a82:	a3 58 8c 07 00       	mov    %eax,0x78c58
   11a87:	a1 58 8c 07 00       	mov    0x78c58,%eax
   11a8c:	c3                   	ret
   11a8d:	cc                   	int3
   11a8e:	cc                   	int3
   11a8f:	cc                   	int3
   11a90:	cc                   	int3
   11a91:	cc                   	int3
   11a92:	e8 c7 f7 ff ff       	call   0x1125e
   11a97:	85 c0                	test   %eax,%eax
   11a99:	75 03                	jne    0x11a9e
   11a9b:	33 c0                	xor    %eax,%eax
   11a9d:	c3                   	ret
   11a9e:	e8 e5 f7 ff ff       	call   0x11288
   11aa3:	85 c0                	test   %eax,%eax
   11aa5:	74 f4                	je     0x11a9b
   11aa7:	e8 06 f8 ff ff       	call   0x112b2
   11aac:	85 c0                	test   %eax,%eax
   11aae:	74 eb                	je     0x11a9b
   11ab0:	e8 27 f8 ff ff       	call   0x112dc
   11ab5:	85 c0                	test   %eax,%eax
   11ab7:	74 e2                	je     0x11a9b
   11ab9:	e8 48 f8 ff ff       	call   0x11306
   11abe:	85 c0                	test   %eax,%eax
   11ac0:	74 d9                	je     0x11a9b
   11ac2:	e8 69 f8 ff ff       	call   0x11330
   11ac7:	85 c0                	test   %eax,%eax
   11ac9:	74 d0                	je     0x11a9b
   11acb:	e8 8a f8 ff ff       	call   0x1135a
   11ad0:	85 c0                	test   %eax,%eax
   11ad2:	74 c7                	je     0x11a9b
   11ad4:	e8 ab f8 ff ff       	call   0x11384
   11ad9:	85 c0                	test   %eax,%eax
   11adb:	74 be                	je     0x11a9b
   11add:	e8 cc f8 ff ff       	call   0x113ae
   11ae2:	85 c0                	test   %eax,%eax
   11ae4:	74 b5                	je     0x11a9b
   11ae6:	e8 ed f8 ff ff       	call   0x113d8
   11aeb:	85 c0                	test   %eax,%eax
   11aed:	74 ac                	je     0x11a9b
   11aef:	e8 0e f9 ff ff       	call   0x11402
   11af4:	85 c0                	test   %eax,%eax
   11af6:	74 a3                	je     0x11a9b
   11af8:	e8 2f f9 ff ff       	call   0x1142c
   11afd:	85 c0                	test   %eax,%eax
   11aff:	74 9a                	je     0x11a9b
   11b01:	e8 50 f9 ff ff       	call   0x11456
   11b06:	85 c0                	test   %eax,%eax
   11b08:	74 91                	je     0x11a9b
   11b0a:	e8 71 f9 ff ff       	call   0x11480
   11b0f:	85 c0                	test   %eax,%eax
   11b11:	74 88                	je     0x11a9b
   11b13:	e8 92 f9 ff ff       	call   0x114aa
   11b18:	85 c0                	test   %eax,%eax
   11b1a:	0f 84 7b ff ff ff    	je     0x11a9b
   11b20:	e8 af f9 ff ff       	call   0x114d4
   11b25:	85 c0                	test   %eax,%eax
   11b27:	0f 84 6e ff ff ff    	je     0x11a9b
   11b2d:	e8 cc f9 ff ff       	call   0x114fe
   11b32:	85 c0                	test   %eax,%eax
   11b34:	0f 84 61 ff ff ff    	je     0x11a9b
   11b3a:	e8 e9 f9 ff ff       	call   0x11528
   11b3f:	85 c0                	test   %eax,%eax
   11b41:	0f 84 54 ff ff ff    	je     0x11a9b
   11b47:	e8 06 fa ff ff       	call   0x11552
   11b4c:	85 c0                	test   %eax,%eax
   11b4e:	0f 84 47 ff ff ff    	je     0x11a9b
   11b54:	e8 23 fa ff ff       	call   0x1157c
   11b59:	85 c0                	test   %eax,%eax
   11b5b:	0f 84 3a ff ff ff    	je     0x11a9b
   11b61:	e8 40 fa ff ff       	call   0x115a6
   11b66:	85 c0                	test   %eax,%eax
   11b68:	0f 84 2d ff ff ff    	je     0x11a9b
   11b6e:	e8 5d fa ff ff       	call   0x115d0
   11b73:	85 c0                	test   %eax,%eax
   11b75:	0f 84 20 ff ff ff    	je     0x11a9b
   11b7b:	e8 7a fa ff ff       	call   0x115fa
   11b80:	85 c0                	test   %eax,%eax
   11b82:	0f 84 13 ff ff ff    	je     0x11a9b
   11b88:	e8 97 fa ff ff       	call   0x11624
   11b8d:	85 c0                	test   %eax,%eax
   11b8f:	0f 84 06 ff ff ff    	je     0x11a9b
   11b95:	e8 b4 fa ff ff       	call   0x1164e
   11b9a:	85 c0                	test   %eax,%eax
   11b9c:	0f 84 f9 fe ff ff    	je     0x11a9b
   11ba2:	e8 d1 fa ff ff       	call   0x11678
   11ba7:	85 c0                	test   %eax,%eax
   11ba9:	0f 84 ec fe ff ff    	je     0x11a9b
   11baf:	e8 ee fa ff ff       	call   0x116a2
   11bb4:	85 c0                	test   %eax,%eax
   11bb6:	0f 84 df fe ff ff    	je     0x11a9b
   11bbc:	e8 0b fb ff ff       	call   0x116cc
   11bc1:	85 c0                	test   %eax,%eax
   11bc3:	0f 84 d2 fe ff ff    	je     0x11a9b
   11bc9:	e8 28 fb ff ff       	call   0x116f6
   11bce:	85 c0                	test   %eax,%eax
   11bd0:	0f 84 c5 fe ff ff    	je     0x11a9b
   11bd6:	e8 45 fb ff ff       	call   0x11720
   11bdb:	85 c0                	test   %eax,%eax
   11bdd:	0f 84 b8 fe ff ff    	je     0x11a9b
   11be3:	e8 62 fb ff ff       	call   0x1174a
   11be8:	85 c0                	test   %eax,%eax
   11bea:	0f 84 ab fe ff ff    	je     0x11a9b
   11bf0:	e8 7f fb ff ff       	call   0x11774
   11bf5:	85 c0                	test   %eax,%eax
   11bf7:	0f 84 9e fe ff ff    	je     0x11a9b
   11bfd:	e8 9c fb ff ff       	call   0x1179e
   11c02:	85 c0                	test   %eax,%eax
   11c04:	0f 84 91 fe ff ff    	je     0x11a9b
   11c0a:	e8 b9 fb ff ff       	call   0x117c8
   11c0f:	85 c0                	test   %eax,%eax
   11c11:	0f 84 84 fe ff ff    	je     0x11a9b
   11c17:	e8 d6 fb ff ff       	call   0x117f2
   11c1c:	85 c0                	test   %eax,%eax
   11c1e:	0f 84 77 fe ff ff    	je     0x11a9b
   11c24:	e8 f3 fb ff ff       	call   0x1181c
   11c29:	85 c0                	test   %eax,%eax
   11c2b:	0f 84 6a fe ff ff    	je     0x11a9b
   11c31:	e8 10 fc ff ff       	call   0x11846
   11c36:	85 c0                	test   %eax,%eax
   11c38:	0f 84 5d fe ff ff    	je     0x11a9b
   11c3e:	e8 2d fc ff ff       	call   0x11870
   11c43:	85 c0                	test   %eax,%eax
   11c45:	0f 84 50 fe ff ff    	je     0x11a9b
   11c4b:	e8 4a fc ff ff       	call   0x1189a
   11c50:	85 c0                	test   %eax,%eax
   11c52:	0f 84 43 fe ff ff    	je     0x11a9b
   11c58:	e8 67 fc ff ff       	call   0x118c4
   11c5d:	85 c0                	test   %eax,%eax
   11c5f:	0f 84 36 fe ff ff    	je     0x11a9b
   11c65:	e8 84 fc ff ff       	call   0x118ee
   11c6a:	85 c0                	test   %eax,%eax
   11c6c:	0f 84 29 fe ff ff    	je     0x11a9b
   11c72:	e8 a1 fc ff ff       	call   0x11918
   11c77:	85 c0                	test   %eax,%eax
   11c79:	0f 84 1c fe ff ff    	je     0x11a9b
   11c7f:	e8 be fc ff ff       	call   0x11942
   11c84:	85 c0                	test   %eax,%eax
   11c86:	0f 84 0f fe ff ff    	je     0x11a9b
   11c8c:	e8 db fc ff ff       	call   0x1196c
   11c91:	85 c0                	test   %eax,%eax
   11c93:	0f 84 02 fe ff ff    	je     0x11a9b
   11c99:	e8 f8 fc ff ff       	call   0x11996
   11c9e:	85 c0                	test   %eax,%eax
   11ca0:	0f 84 f5 fd ff ff    	je     0x11a9b
   11ca6:	e8 15 fd ff ff       	call   0x119c0
   11cab:	85 c0                	test   %eax,%eax
   11cad:	0f 84 e8 fd ff ff    	je     0x11a9b
   11cb3:	e8 32 fd ff ff       	call   0x119ea
   11cb8:	85 c0                	test   %eax,%eax
   11cba:	0f 84 db fd ff ff    	je     0x11a9b
   11cc0:	e8 4f fd ff ff       	call   0x11a14
   11cc5:	85 c0                	test   %eax,%eax
   11cc7:	0f 84 ce fd ff ff    	je     0x11a9b
   11ccd:	e8 6c fd ff ff       	call   0x11a3e
   11cd2:	85 c0                	test   %eax,%eax
   11cd4:	0f 84 c1 fd ff ff    	je     0x11a9b
   11cda:	e8 89 fd ff ff       	call   0x11a68
   11cdf:	f7 d8                	neg    %eax
   11ce1:	1b c0                	sbb    %eax,%eax
   11ce3:	f7 d8                	neg    %eax
   11ce5:	c3                   	ret
   11ce6:	cc                   	int3
   11ce7:	cc                   	int3
   11ce8:	cc                   	int3
   11ce9:	cc                   	int3
   11cea:	cc                   	int3
   11ceb:	cc                   	int3
   11cec:	8b ff                	mov    %edi,%edi
   11cee:	55                   	push   %ebp
   11cef:	8b ec                	mov    %esp,%ebp
   11cf1:	56                   	push   %esi
   11cf2:	6a 20                	push   $0x20
   11cf4:	68 73 79 73 61       	push   $0x61737973
   11cf9:	ff 75 08             	push   0x8(%ebp)
   11cfc:	6a 01                	push   $0x1
   11cfe:	e8 cd f8 ff ff       	call   0x115d0
   11d03:	ff d0                	call   *%eax
   11d05:	8b f0                	mov    %eax,%esi
   11d07:	85 f6                	test   %esi,%esi
   11d09:	75 0c                	jne    0x11d17
   11d0b:	68 9a 00 00 c0       	push   $0xc000009a
   11d10:	e8 91 f8 ff ff       	call   0x115a6
   11d15:	ff d0                	call   *%eax
   11d17:	8b c6                	mov    %esi,%eax
   11d19:	5e                   	pop    %esi
   11d1a:	5d                   	pop    %ebp
   11d1b:	c3                   	ret
   11d1c:	cc                   	int3
   11d1d:	cc                   	int3
   11d1e:	cc                   	int3
   11d1f:	cc                   	int3
   11d20:	cc                   	int3
   11d21:	cc                   	int3
   11d22:	8b ff                	mov    %edi,%edi
   11d24:	55                   	push   %ebp
   11d25:	8b ec                	mov    %esp,%ebp
   11d27:	83 7d 08 00          	cmpl   $0x0,0x8(%ebp)
   11d2b:	74 0c                	je     0x11d39
   11d2d:	6a 00                	push   $0x0
   11d2f:	ff 75 08             	push   0x8(%ebp)
   11d32:	e8 c3 f8 ff ff       	call   0x115fa
   11d37:	ff d0                	call   *%eax
   11d39:	5d                   	pop    %ebp
   11d3a:	c3                   	ret
   11d3b:	cc                   	int3
   11d3c:	cc                   	int3
   11d3d:	cc                   	int3
   11d3e:	cc                   	int3
   11d3f:	cc                   	int3
   11d40:	8b ff                	mov    %edi,%edi
   11d42:	55                   	push   %ebp
   11d43:	8b ec                	mov    %esp,%ebp
   11d45:	8b c1                	mov    %ecx,%eax
   11d47:	8b 4d 08             	mov    0x8(%ebp),%ecx
   11d4a:	8b 11                	mov    (%ecx),%edx
   11d4c:	85 d2                	test   %edx,%edx
   11d4e:	74 07                	je     0x11d57
   11d50:	89 10                	mov    %edx,(%eax)
   11d52:	ff 42 04             	incl   0x4(%edx)
   11d55:	eb 03                	jmp    0x11d5a
   11d57:	83 20 00             	andl   $0x0,(%eax)
   11d5a:	5d                   	pop    %ebp
   11d5b:	c2 04 00             	ret    $0x4
   11d5e:	cc                   	int3
   11d5f:	cc                   	int3
   11d60:	cc                   	int3
   11d61:	cc                   	int3
   11d62:	cc                   	int3
   11d63:	cc                   	int3
   11d64:	8b ff                	mov    %edi,%edi
   11d66:	56                   	push   %esi
   11d67:	8b f1                	mov    %ecx,%esi
   11d69:	ff 4e 04             	decl   0x4(%esi)
   11d6c:	75 0f                	jne    0x11d7d
   11d6e:	ff 36                	push   (%esi)
   11d70:	e8 ad ff ff ff       	call   0x11d22
   11d75:	56                   	push   %esi
   11d76:	e8 a7 ff ff ff       	call   0x11d22
   11d7b:	59                   	pop    %ecx
   11d7c:	59                   	pop    %ecx
   11d7d:	5e                   	pop    %esi
   11d7e:	c3                   	ret
   11d7f:	cc                   	int3
   11d80:	cc                   	int3
   11d81:	cc                   	int3
   11d82:	cc                   	int3
   11d83:	cc                   	int3
   11d84:	8b ff                	mov    %edi,%edi
   11d86:	55                   	push   %ebp
   11d87:	8b ec                	mov    %esp,%ebp
   11d89:	51                   	push   %ecx
   11d8a:	57                   	push   %edi
   11d8b:	8d 45 fc             	lea    -0x4(%ebp),%eax
   11d8e:	50                   	push   %eax
   11d8f:	33 ff                	xor    %edi,%edi
   11d91:	57                   	push   %edi
   11d92:	57                   	push   %edi
   11d93:	6a 1b                	push   $0x1b
   11d95:	ff 75 08             	push   0x8(%ebp)
   11d98:	e8 bd f5 ff ff       	call   0x1135a
   11d9d:	ff d0                	call   *%eax
   11d9f:	3d 04 00 00 c0       	cmp    $0xc0000004,%eax
   11da4:	75 69                	jne    0x11e0f
   11da6:	8b 4d fc             	mov    -0x4(%ebp),%ecx
   11da9:	53                   	push   %ebx
   11daa:	8b 5d 0c             	mov    0xc(%ebp),%ebx
   11dad:	0f b7 53 02          	movzwl 0x2(%ebx),%edx
   11db1:	8d 41 f8             	lea    -0x8(%ecx),%eax
   11db4:	3b d0                	cmp    %eax,%edx
   11db6:	73 0a                	jae    0x11dc2
   11db8:	66 89 03             	mov    %ax,(%ebx)
   11dbb:	b8 05 00 00 80       	mov    $0x80000005,%eax
   11dc0:	eb 4c                	jmp    0x11e0e
   11dc2:	56                   	push   %esi
   11dc3:	68 49 66 73 20       	push   $0x20736649
   11dc8:	51                   	push   %ecx
   11dc9:	57                   	push   %edi
   11dca:	e8 7f f8 ff ff       	call   0x1164e
   11dcf:	ff d0                	call   *%eax
   11dd1:	8b f0                	mov    %eax,%esi
   11dd3:	3b f7                	cmp    %edi,%esi
   11dd5:	75 07                	jne    0x11dde
   11dd7:	b8 9a 00 00 c0       	mov    $0xc000009a,%eax
   11ddc:	eb 2f                	jmp    0x11e0d
   11dde:	8d 45 fc             	lea    -0x4(%ebp),%eax
   11de1:	50                   	push   %eax
   11de2:	ff 75 fc             	push   -0x4(%ebp)
   11de5:	56                   	push   %esi
   11de6:	6a 1b                	push   $0x1b
   11de8:	ff 75 08             	push   0x8(%ebp)
   11deb:	e8 6a f5 ff ff       	call   0x1135a
   11df0:	ff d0                	call   *%eax
   11df2:	8b f8                	mov    %eax,%edi
   11df4:	85 ff                	test   %edi,%edi
   11df6:	7c 09                	jl     0x11e01
   11df8:	56                   	push   %esi
   11df9:	53                   	push   %ebx
   11dfa:	e8 25 f8 ff ff       	call   0x11624
   11dff:	ff d0                	call   *%eax
   11e01:	6a 00                	push   $0x0
   11e03:	56                   	push   %esi
   11e04:	e8 f1 f7 ff ff       	call   0x115fa
   11e09:	ff d0                	call   *%eax
   11e0b:	8b c7                	mov    %edi,%eax
   11e0d:	5e                   	pop    %esi
   11e0e:	5b                   	pop    %ebx
   11e0f:	5f                   	pop    %edi
   11e10:	c9                   	leave
   11e11:	c2 08 00             	ret    $0x8
   11e14:	cc                   	int3
   11e15:	cc                   	int3
   11e16:	cc                   	int3
   11e17:	cc                   	int3
   11e18:	cc                   	int3
   11e19:	cc                   	int3
   11e1a:	8b ff                	mov    %edi,%edi
   11e1c:	55                   	push   %ebp
   11e1d:	8b ec                	mov    %esp,%ebp
   11e1f:	83 ec 18             	sub    $0x18,%esp
   11e22:	6a 00                	push   $0x0
   11e24:	6a 18                	push   $0x18
   11e26:	8d 45 e8             	lea    -0x18(%ebp),%eax
   11e29:	50                   	push   %eax
   11e2a:	6a 00                	push   $0x0
   11e2c:	ff 75 08             	push   0x8(%ebp)
   11e2f:	e8 26 f5 ff ff       	call   0x1135a
   11e34:	ff d0                	call   *%eax
   11e36:	85 c0                	test   %eax,%eax
   11e38:	7c 05                	jl     0x11e3f
   11e3a:	8b 45 f8             	mov    -0x8(%ebp),%eax
   11e3d:	eb 02                	jmp    0x11e41
   11e3f:	33 c0                	xor    %eax,%eax
   11e41:	c9                   	leave
   11e42:	c2 04 00             	ret    $0x4
   11e45:	cc                   	int3
   11e46:	cc                   	int3
   11e47:	cc                   	int3
   11e48:	cc                   	int3
   11e49:	cc                   	int3
   11e4a:	8b ff                	mov    %edi,%edi
   11e4c:	55                   	push   %ebp
   11e4d:	8b ec                	mov    %esp,%ebp
   11e4f:	83 ec 10             	sub    $0x10,%esp
   11e52:	56                   	push   %esi
   11e53:	57                   	push   %edi
   11e54:	33 c0                	xor    %eax,%eax
   11e56:	66 89 45 f8          	mov    %ax,-0x8(%ebp)
   11e5a:	8d 7d fa             	lea    -0x6(%ebp),%edi
   11e5d:	ab                   	stos   %eax,%es:(%edi)
   11e5e:	66 ab                	stos   %ax,%es:(%edi)
   11e60:	8b 45 0c             	mov    0xc(%ebp),%eax
   11e63:	89 45 fc             	mov    %eax,-0x4(%ebp)
   11e66:	8d 48 02             	lea    0x2(%eax),%ecx
   11e69:	66 8b 10             	mov    (%eax),%dx
   11e6c:	40                   	inc    %eax
   11e6d:	40                   	inc    %eax
   11e6e:	66 85 d2             	test   %dx,%dx
   11e71:	75 f6                	jne    0x11e69
   11e73:	8b 75 08             	mov    0x8(%ebp),%esi
   11e76:	0f b7 16             	movzwl (%esi),%edx
   11e79:	2b c1                	sub    %ecx,%eax
   11e7b:	d1 f8                	sar    %eax
   11e7d:	8d 0c 00             	lea    (%eax,%eax,1),%ecx
   11e80:	66 89 4d f8          	mov    %cx,-0x8(%ebp)
   11e84:	66 89 4d fa          	mov    %cx,-0x6(%ebp)
   11e88:	66 3b d1             	cmp    %cx,%dx
   11e8b:	72 3e                	jb     0x11ecb
   11e8d:	33 c0                	xor    %eax,%eax
   11e8f:	8d 7d f2             	lea    -0xe(%ebp),%edi
   11e92:	ab                   	stos   %eax,%es:(%edi)
   11e93:	66 ab                	stos   %ax,%es:(%edi)
   11e95:	66 89 4d f0          	mov    %cx,-0x10(%ebp)
   11e99:	66 89 4d f2          	mov    %cx,-0xe(%ebp)
   11e9d:	0f b7 c2             	movzwl %dx,%eax
   11ea0:	0f b7 c9             	movzwl %cx,%ecx
   11ea3:	2b c1                	sub    %ecx,%eax
   11ea5:	8b 4e 04             	mov    0x4(%esi),%ecx
   11ea8:	99                   	cltd
   11ea9:	2b c2                	sub    %edx,%eax
   11eab:	d1 f8                	sar    %eax
   11ead:	8d 04 41             	lea    (%ecx,%eax,2),%eax
   11eb0:	89 45 f4             	mov    %eax,-0xc(%ebp)
   11eb3:	6a 01                	push   $0x1
   11eb5:	8d 45 f8             	lea    -0x8(%ebp),%eax
   11eb8:	50                   	push   %eax
   11eb9:	8d 45 f0             	lea    -0x10(%ebp),%eax
   11ebc:	50                   	push   %eax
   11ebd:	e8 e0 f7 ff ff       	call   0x116a2
   11ec2:	ff d0                	call   *%eax
   11ec4:	f7 d8                	neg    %eax
   11ec6:	1b c0                	sbb    %eax,%eax
   11ec8:	40                   	inc    %eax
   11ec9:	eb 02                	jmp    0x11ecd
   11ecb:	32 c0                	xor    %al,%al
   11ecd:	5f                   	pop    %edi
   11ece:	5e                   	pop    %esi
   11ecf:	c9                   	leave
   11ed0:	c2 08 00             	ret    $0x8
   11ed3:	cc                   	int3
   11ed4:	cc                   	int3
   11ed5:	cc                   	int3
   11ed6:	cc                   	int3
   11ed7:	cc                   	int3
   11ed8:	8b ff                	mov    %edi,%edi
   11eda:	55                   	push   %ebp
   11edb:	8b ec                	mov    %esp,%ebp
   11edd:	53                   	push   %ebx
   11ede:	33 c0                	xor    %eax,%eax
   11ee0:	50                   	push   %eax
   11ee1:	50                   	push   %eax
   11ee2:	50                   	push   %eax
   11ee3:	50                   	push   %eax
   11ee4:	bb 2c 7f 07 00       	mov    $0x77f2c,%ebx
   11ee9:	53                   	push   %ebx
   11eea:	e8 fb fa ff ff       	call   0x119ea
   11eef:	ff d0                	call   *%eax
   11ef1:	85 c0                	test   %eax,%eax
   11ef3:	7d 04                	jge    0x11ef9
   11ef5:	32 c0                	xor    %al,%al
   11ef7:	eb 24                	jmp    0x11f1d
   11ef9:	56                   	push   %esi
   11efa:	8b 75 08             	mov    0x8(%ebp),%esi
   11efd:	57                   	push   %edi
   11efe:	6b f6 14             	imul   $0x14,%esi,%esi
   11f01:	8b 7d 0c             	mov    0xc(%ebp),%edi
   11f04:	6a 05                	push   $0x5
   11f06:	59                   	pop    %ecx
   11f07:	6a 00                	push   $0x0
   11f09:	81 c6 7c 89 07 00    	add    $0x7897c,%esi
   11f0f:	53                   	push   %ebx
   11f10:	f3 a5                	rep movsl %ds:(%esi),%es:(%edi)
   11f12:	e8 fd fa ff ff       	call   0x11a14
   11f17:	ff d0                	call   *%eax
   11f19:	5f                   	pop    %edi
   11f1a:	b0 01                	mov    $0x1,%al
   11f1c:	5e                   	pop    %esi
   11f1d:	5b                   	pop    %ebx
   11f1e:	5d                   	pop    %ebp
   11f1f:	c2 08 00             	ret    $0x8
   11f22:	cc                   	int3
   11f23:	cc                   	int3
   11f24:	cc                   	int3
   11f25:	cc                   	int3
   11f26:	cc                   	int3
   11f27:	cc                   	int3
   11f28:	8b ff                	mov    %edi,%edi
   11f2a:	55                   	push   %ebp
   11f2b:	8b ec                	mov    %esp,%ebp
   11f2d:	53                   	push   %ebx
   11f2e:	33 c0                	xor    %eax,%eax
   11f30:	50                   	push   %eax
   11f31:	50                   	push   %eax
   11f32:	50                   	push   %eax
   11f33:	50                   	push   %eax
   11f34:	bb 2c 7f 07 00       	mov    $0x77f2c,%ebx
   11f39:	53                   	push   %ebx
   11f3a:	e8 ab fa ff ff       	call   0x119ea
   11f3f:	ff d0                	call   *%eax
   11f41:	85 c0                	test   %eax,%eax
   11f43:	7c 22                	jl     0x11f67
   11f45:	56                   	push   %esi
   11f46:	8b 75 0c             	mov    0xc(%ebp),%esi
   11f49:	57                   	push   %edi
   11f4a:	8b 7d 08             	mov    0x8(%ebp),%edi
   11f4d:	6b ff 14             	imul   $0x14,%edi,%edi
   11f50:	6a 05                	push   $0x5
   11f52:	59                   	pop    %ecx
   11f53:	6a 00                	push   $0x0
   11f55:	81 c7 7c 89 07 00    	add    $0x7897c,%edi
   11f5b:	53                   	push   %ebx
   11f5c:	f3 a5                	rep movsl %ds:(%esi),%es:(%edi)
   11f5e:	e8 b1 fa ff ff       	call   0x11a14
   11f63:	ff d0                	call   *%eax
   11f65:	5f                   	pop    %edi
   11f66:	5e                   	pop    %esi
   11f67:	5b                   	pop    %ebx
   11f68:	5d                   	pop    %ebp
   11f69:	c2 08 00             	ret    $0x8
   11f6c:	cc                   	int3
   11f6d:	cc                   	int3
   11f6e:	cc                   	int3
   11f6f:	cc                   	int3
   11f70:	cc                   	int3
   11f71:	cc                   	int3
   11f72:	8b ff                	mov    %edi,%edi
   11f74:	55                   	push   %ebp
   11f75:	8b ec                	mov    %esp,%ebp
   11f77:	83 ec 14             	sub    $0x14,%esp
   11f7a:	83 65 ec 00          	andl   $0x0,-0x14(%ebp)
   11f7e:	57                   	push   %edi
   11f7f:	33 c0                	xor    %eax,%eax
   11f81:	8d 7d f0             	lea    -0x10(%ebp),%edi
   11f84:	ab                   	stos   %eax,%es:(%edi)
   11f85:	ab                   	stos   %eax,%es:(%edi)
   11f86:	ab                   	stos   %eax,%es:(%edi)
   11f87:	ab                   	stos   %eax,%es:(%edi)
   11f88:	8d 45 ec             	lea    -0x14(%ebp),%eax
   11f8b:	50                   	push   %eax
   11f8c:	ff 75 08             	push   0x8(%ebp)
   11f8f:	e8 94 ff ff ff       	call   0x11f28
   11f94:	5f                   	pop    %edi
   11f95:	c9                   	leave
   11f96:	c2 04 00             	ret    $0x4
   11f99:	cc                   	int3
   11f9a:	cc                   	int3
   11f9b:	cc                   	int3
   11f9c:	cc                   	int3
   11f9d:	cc                   	int3
   11f9e:	8b ff                	mov    %edi,%edi
   11fa0:	55                   	push   %ebp
   11fa1:	8b ec                	mov    %esp,%ebp
   11fa3:	8b 0d a4 89 07 00    	mov    0x789a4,%ecx
   11fa9:	83 ec 38             	sub    $0x38,%esp
   11fac:	56                   	push   %esi
   11fad:	33 f6                	xor    %esi,%esi
   11faf:	3b ce                	cmp    %esi,%ecx
   11fb1:	75 08                	jne    0x11fbb
   11fb3:	83 c8 ff             	or     $0xffffffff,%eax
   11fb6:	e9 e7 00 00 00       	jmp    0x120a2
   11fbb:	57                   	push   %edi
   11fbc:	33 c0                	xor    %eax,%eax
   11fbe:	89 75 e0             	mov    %esi,-0x20(%ebp)
   11fc1:	8d 7d e4             	lea    -0x1c(%ebp),%edi
   11fc4:	ab                   	stos   %eax,%es:(%edi)
   11fc5:	8d 45 e8             	lea    -0x18(%ebp),%eax
   11fc8:	50                   	push   %eax
   11fc9:	8d 45 c8             	lea    -0x38(%ebp),%eax
   11fcc:	50                   	push   %eax
   11fcd:	68 00 04 00 00       	push   $0x400
   11fd2:	8d 45 f0             	lea    -0x10(%ebp),%eax
   11fd5:	50                   	push   %eax
   11fd6:	89 75 fc             	mov    %esi,-0x4(%ebp)
   11fd9:	c7 45 c8 18 00 00 00 	movl   $0x18,-0x38(%ebp)
   11fe0:	89 75 cc             	mov    %esi,-0x34(%ebp)
   11fe3:	89 75 d4             	mov    %esi,-0x2c(%ebp)
   11fe6:	89 75 d0             	mov    %esi,-0x30(%ebp)
   11fe9:	89 75 d8             	mov    %esi,-0x28(%ebp)
   11fec:	89 75 dc             	mov    %esi,-0x24(%ebp)
   11fef:	89 4d e8             	mov    %ecx,-0x18(%ebp)
   11ff2:	89 75 ec             	mov    %esi,-0x14(%ebp)
   11ff5:	e8 64 f2 ff ff       	call   0x1125e
   11ffa:	ff d0                	call   *%eax
   11ffc:	8b f8                	mov    %eax,%edi
   11ffe:	3b fe                	cmp    %esi,%edi
   12000:	0f 8c 99 00 00 00    	jl     0x1209f
   12006:	8d 45 f4             	lea    -0xc(%ebp),%eax
   12009:	50                   	push   %eax
   1200a:	6a 08                	push   $0x8
   1200c:	ff 75 f0             	push   -0x10(%ebp)
   1200f:	e8 c0 f4 ff ff       	call   0x114d4
   12014:	ff d0                	call   *%eax
   12016:	8b f8                	mov    %eax,%edi
   12018:	3b fe                	cmp    %esi,%edi
   1201a:	7c 79                	jl     0x12095
   1201c:	8d 45 fc             	lea    -0x4(%ebp),%eax
   1201f:	50                   	push   %eax
   12020:	6a 01                	push   $0x1
   12022:	56                   	push   %esi
   12023:	56                   	push   %esi
   12024:	6a 01                	push   $0x1
   12026:	ff 75 f4             	push   -0xc(%ebp)
   12029:	e8 ae f2 ff ff       	call   0x112dc
   1202e:	ff d0                	call   *%eax
   12030:	8b f8                	mov    %eax,%edi
   12032:	3b fe                	cmp    %esi,%edi
   12034:	7c 55                	jl     0x1208b
   12036:	8b 45 08             	mov    0x8(%ebp),%eax
   12039:	89 45 e8             	mov    %eax,-0x18(%ebp)
   1203c:	8d 45 e8             	lea    -0x18(%ebp),%eax
   1203f:	50                   	push   %eax
   12040:	8d 45 c8             	lea    -0x38(%ebp),%eax
   12043:	50                   	push   %eax
   12044:	68 00 02 00 00       	push   $0x200
   12049:	8d 45 f8             	lea    -0x8(%ebp),%eax
   1204c:	50                   	push   %eax
   1204d:	e8 0c f2 ff ff       	call   0x1125e
   12052:	ff d0                	call   *%eax
   12054:	8b f8                	mov    %eax,%edi
   12056:	3b fe                	cmp    %esi,%edi
   12058:	7c 27                	jl     0x12081
   1205a:	8b 45 fc             	mov    -0x4(%ebp),%eax
   1205d:	6a 08                	push   $0x8
   1205f:	89 45 e0             	mov    %eax,-0x20(%ebp)
   12062:	8d 45 e0             	lea    -0x20(%ebp),%eax
   12065:	50                   	push   %eax
   12066:	6a 09                	push   $0x9
   12068:	ff 75 f8             	push   -0x8(%ebp)
   1206b:	89 75 e4             	mov    %esi,-0x1c(%ebp)
   1206e:	e8 8b f4 ff ff       	call   0x114fe
   12073:	ff d0                	call   *%eax
   12075:	ff 75 f8             	push   -0x8(%ebp)
   12078:	8b f8                	mov    %eax,%edi
   1207a:	e8 d3 f4 ff ff       	call   0x11552
   1207f:	ff d0                	call   *%eax
   12081:	ff 75 fc             	push   -0x4(%ebp)
   12084:	e8 c9 f4 ff ff       	call   0x11552
   12089:	ff d0                	call   *%eax
   1208b:	ff 75 f4             	push   -0xc(%ebp)
   1208e:	e8 bf f4 ff ff       	call   0x11552
   12093:	ff d0                	call   *%eax
   12095:	ff 75 f0             	push   -0x10(%ebp)
   12098:	e8 b5 f4 ff ff       	call   0x11552
   1209d:	ff d0                	call   *%eax
   1209f:	8b c7                	mov    %edi,%eax
   120a1:	5f                   	pop    %edi
   120a2:	5e                   	pop    %esi
   120a3:	c9                   	leave
   120a4:	c2 04 00             	ret    $0x4
   120a7:	cc                   	int3
   120a8:	cc                   	int3
   120a9:	cc                   	int3
   120aa:	cc                   	int3
   120ab:	cc                   	int3
   120ac:	8b ff                	mov    %edi,%edi
   120ae:	55                   	push   %ebp
   120af:	8b ec                	mov    %esp,%ebp
   120b1:	53                   	push   %ebx
   120b2:	33 c0                	xor    %eax,%eax
   120b4:	50                   	push   %eax
   120b5:	50                   	push   %eax
   120b6:	50                   	push   %eax
   120b7:	50                   	push   %eax
   120b8:	bb b8 88 07 00       	mov    $0x788b8,%ebx
   120bd:	53                   	push   %ebx
   120be:	e8 27 f9 ff ff       	call   0x119ea
   120c3:	ff d0                	call   *%eax
   120c5:	85 c0                	test   %eax,%eax
   120c7:	7c 1b                	jl     0x120e4
   120c9:	56                   	push   %esi
   120ca:	8b 75 08             	mov    0x8(%ebp),%esi
   120cd:	57                   	push   %edi
   120ce:	6a 40                	push   $0x40
   120d0:	59                   	pop    %ecx
   120d1:	6a 00                	push   $0x0
   120d3:	bf a8 89 07 00       	mov    $0x789a8,%edi
   120d8:	53                   	push   %ebx
   120d9:	f3 a5                	rep movsl %ds:(%esi),%es:(%edi)
   120db:	e8 34 f9 ff ff       	call   0x11a14
   120e0:	ff d0                	call   *%eax
   120e2:	5f                   	pop    %edi
   120e3:	5e                   	pop    %esi
   120e4:	5b                   	pop    %ebx
   120e5:	5d                   	pop    %ebp
   120e6:	c2 04 00             	ret    $0x4
   120e9:	cc                   	int3
   120ea:	cc                   	int3
   120eb:	cc                   	int3
   120ec:	cc                   	int3
   120ed:	cc                   	int3
   120ee:	8b ff                	mov    %edi,%edi
   120f0:	55                   	push   %ebp
   120f1:	8b ec                	mov    %esp,%ebp
   120f3:	53                   	push   %ebx
   120f4:	33 c0                	xor    %eax,%eax
   120f6:	50                   	push   %eax
   120f7:	50                   	push   %eax
   120f8:	50                   	push   %eax
   120f9:	50                   	push   %eax
   120fa:	bb b8 88 07 00       	mov    $0x788b8,%ebx
   120ff:	53                   	push   %ebx
   12100:	e8 e5 f8 ff ff       	call   0x119ea
   12105:	ff d0                	call   *%eax
   12107:	85 c0                	test   %eax,%eax
   12109:	7d 04                	jge    0x1210f
   1210b:	32 c0                	xor    %al,%al
   1210d:	eb 27                	jmp    0x12136
   1210f:	56                   	push   %esi
   12110:	57                   	push   %edi
   12111:	8b 7d 08             	mov    0x8(%ebp),%edi
   12114:	6a 40                	push   $0x40
   12116:	59                   	pop    %ecx
   12117:	6a 00                	push   $0x0
   12119:	be a8 89 07 00       	mov    $0x789a8,%esi
   1211e:	53                   	push   %ebx
   1211f:	f3 a5                	rep movsl %ds:(%esi),%es:(%edi)
   12121:	e8 ee f8 ff ff       	call   0x11a14
   12126:	ff d0                	call   *%eax
   12128:	33 c0                	xor    %eax,%eax
   1212a:	66 39 05 a8 89 07 00 	cmp    %ax,0x789a8
   12131:	5f                   	pop    %edi
   12132:	0f 95 c0             	setne  %al
   12135:	5e                   	pop    %esi
   12136:	5b                   	pop    %ebx
   12137:	5d                   	pop    %ebp
   12138:	c2 04 00             	ret    $0x4
   1213b:	cc                   	int3
   1213c:	cc                   	int3
   1213d:	cc                   	int3
   1213e:	cc                   	int3
   1213f:	cc                   	int3
   12140:	8b ff                	mov    %edi,%edi
   12142:	55                   	push   %ebp
   12143:	8b ec                	mov    %esp,%ebp
   12145:	81 ec 3c 04 00 00    	sub    $0x43c,%esp
   1214b:	a1 1c 7f 07 00       	mov    0x77f1c,%eax
   12150:	33 c5                	xor    %ebp,%eax
   12152:	89 45 fc             	mov    %eax,-0x4(%ebp)
   12155:	8b 45 0c             	mov    0xc(%ebp),%eax
   12158:	53                   	push   %ebx
   12159:	56                   	push   %esi
   1215a:	8b 75 08             	mov    0x8(%ebp),%esi
   1215d:	57                   	push   %edi
   1215e:	33 db                	xor    %ebx,%ebx
   12160:	68 ff 03 00 00       	push   $0x3ff
   12165:	89 85 e8 fb ff ff    	mov    %eax,-0x418(%ebp)
   1216b:	8d 85 fd fb ff ff    	lea    -0x403(%ebp),%eax
   12171:	53                   	push   %ebx
   12172:	50                   	push   %eax
   12173:	89 b5 dc fb ff ff    	mov    %esi,-0x424(%ebp)
   12179:	88 9d fc fb ff ff    	mov    %bl,-0x404(%ebp)
   1217f:	e8 7e bb 00 00       	call   0x1dd02
   12184:	83 c4 0c             	add    $0xc,%esp
   12187:	8d 85 f0 fb ff ff    	lea    -0x410(%ebp),%eax
   1218d:	50                   	push   %eax
   1218e:	68 00 04 00 00       	push   $0x400
   12193:	8d 85 fc fb ff ff    	lea    -0x404(%ebp),%eax
   12199:	50                   	push   %eax
   1219a:	53                   	push   %ebx
   1219b:	53                   	push   %ebx
   1219c:	56                   	push   %esi
   1219d:	e9 aa 01 00 00       	jmp    0x1234c
   121a2:	3b c3                	cmp    %ebx,%eax
   121a4:	0f 8c c4 01 00 00    	jl     0x1236e
   121aa:	8b 85 e8 fb ff ff    	mov    -0x418(%ebp),%eax
   121b0:	8d 50 02             	lea    0x2(%eax),%edx
   121b3:	66 8b 08             	mov    (%eax),%cx
   121b6:	40                   	inc    %eax
   121b7:	40                   	inc    %eax
   121b8:	66 3b cb             	cmp    %bx,%cx
   121bb:	75 f6                	jne    0x121b3
   121bd:	8b 8d 08 fc ff ff    	mov    -0x3f8(%ebp),%ecx
   121c3:	2b c2                	sub    %edx,%eax
   121c5:	d1 e9                	shr    %ecx
   121c7:	d1 f8                	sar    %eax
   121c9:	8d 74 01 02          	lea    0x2(%ecx,%eax,1),%esi
   121cd:	33 c9                	xor    %ecx,%ecx
   121cf:	6a 02                	push   $0x2
   121d1:	5a                   	pop    %edx
   121d2:	8b c6                	mov    %esi,%eax
   121d4:	f7 e2                	mul    %edx
   121d6:	0f 90 c1             	seto   %cl
   121d9:	f7 d9                	neg    %ecx
   121db:	0b c8                	or     %eax,%ecx
   121dd:	51                   	push   %ecx
   121de:	e8 09 fb ff ff       	call   0x11cec
   121e3:	8b f8                	mov    %eax,%edi
   121e5:	8d 04 36             	lea    (%esi,%esi,1),%eax
   121e8:	50                   	push   %eax
   121e9:	53                   	push   %ebx
   121ea:	57                   	push   %edi
   121eb:	89 bd f4 fb ff ff    	mov    %edi,-0x40c(%ebp)
   121f1:	e8 0c bb 00 00       	call   0x1dd02
   121f6:	8b 85 e8 fb ff ff    	mov    -0x418(%ebp),%eax
   121fc:	83 c4 10             	add    $0x10,%esp
   121ff:	8b c8                	mov    %eax,%ecx
   12201:	66 8b 10             	mov    (%eax),%dx
   12204:	40                   	inc    %eax
   12205:	40                   	inc    %eax
   12206:	66 3b d3             	cmp    %bx,%dx
   12209:	75 f6                	jne    0x12201
   1220b:	2b c1                	sub    %ecx,%eax
   1220d:	4f                   	dec    %edi
   1220e:	8b f1                	mov    %ecx,%esi
   12210:	4f                   	dec    %edi
   12211:	66 8b 4f 02          	mov    0x2(%edi),%cx
   12215:	47                   	inc    %edi
   12216:	47                   	inc    %edi
   12217:	66 3b cb             	cmp    %bx,%cx
   1221a:	75 f5                	jne    0x12211
   1221c:	8b c8                	mov    %eax,%ecx
   1221e:	c1 e9 02             	shr    $0x2,%ecx
   12221:	f3 a5                	rep movsl %ds:(%esi),%es:(%edi)
   12223:	8b c8                	mov    %eax,%ecx
   12225:	83 e1 03             	and    $0x3,%ecx
   12228:	f3 a4                	rep movsb %ds:(%esi),%es:(%edi)
   1222a:	8b bd f4 fb ff ff    	mov    -0x40c(%ebp),%edi
   12230:	4f                   	dec    %edi
   12231:	4f                   	dec    %edi
   12232:	66 8b 47 02          	mov    0x2(%edi),%ax
   12236:	47                   	inc    %edi
   12237:	47                   	inc    %edi
   12238:	66 3b c3             	cmp    %bx,%ax
   1223b:	75 f5                	jne    0x12232
   1223d:	be aa e0 01 00       	mov    $0x1e0aa,%esi
   12242:	a5                   	movsl  %ds:(%esi),%es:(%edi)
   12243:	8b 85 08 fc ff ff    	mov    -0x3f8(%ebp),%eax
   12249:	d1 e8                	shr    %eax
   1224b:	50                   	push   %eax
   1224c:	8d 85 0c fc ff ff    	lea    -0x3f4(%ebp),%eax
   12252:	50                   	push   %eax
   12253:	ff b5 f4 fb ff ff    	push   -0x40c(%ebp)
   12259:	e8 b0 ba 00 00       	call   0x1dd0e
   1225e:	8b b5 f4 fb ff ff    	mov    -0x40c(%ebp),%esi
   12264:	8b c6                	mov    %esi,%eax
   12266:	83 c4 0c             	add    $0xc,%esp
   12269:	89 b5 e4 fb ff ff    	mov    %esi,-0x41c(%ebp)
   1226f:	8d 50 02             	lea    0x2(%eax),%edx
   12272:	66 8b 08             	mov    (%eax),%cx
   12275:	40                   	inc    %eax
   12276:	40                   	inc    %eax
   12277:	66 3b cb             	cmp    %bx,%cx
   1227a:	75 f6                	jne    0x12272
   1227c:	2b c2                	sub    %edx,%eax
   1227e:	d1 f8                	sar    %eax
   12280:	03 c0                	add    %eax,%eax
   12282:	66 89 85 e2 fb ff ff 	mov    %ax,-0x41e(%ebp)
   12289:	66 89 85 e0 fb ff ff 	mov    %ax,-0x420(%ebp)
   12290:	8d 85 e0 fb ff ff    	lea    -0x420(%ebp),%eax
   12296:	89 85 cc fb ff ff    	mov    %eax,-0x434(%ebp)
   1229c:	8d 85 c4 fb ff ff    	lea    -0x43c(%ebp),%eax
   122a2:	50                   	push   %eax
   122a3:	68 3f 00 0f 00       	push   $0xf003f
   122a8:	8d 85 ec fb ff ff    	lea    -0x414(%ebp),%eax
   122ae:	50                   	push   %eax
   122af:	c7 85 c4 fb ff ff 18 	movl   $0x18,-0x43c(%ebp)
   122b6:	00 00 00 
   122b9:	89 9d c8 fb ff ff    	mov    %ebx,-0x438(%ebp)
   122bf:	c7 85 d0 fb ff ff 40 	movl   $0x40,-0x430(%ebp)
   122c6:	00 00 00 
   122c9:	89 9d d4 fb ff ff    	mov    %ebx,-0x42c(%ebp)
   122cf:	89 9d d8 fb ff ff    	mov    %ebx,-0x428(%ebp)
   122d5:	e8 d4 f0 ff ff       	call   0x113ae
   122da:	ff d0                	call   *%eax
   122dc:	56                   	push   %esi
   122dd:	85 c0                	test   %eax,%eax
   122df:	0f 8c 83 00 00 00    	jl     0x12368
   122e5:	ff b5 ec fb ff ff    	push   -0x414(%ebp)
   122eb:	e8 50 fe ff ff       	call   0x12140
   122f0:	56                   	push   %esi
   122f1:	88 85 fb fb ff ff    	mov    %al,-0x405(%ebp)
   122f7:	e8 26 fa ff ff       	call   0x11d22
   122fc:	59                   	pop    %ecx
   122fd:	ff b5 ec fb ff ff    	push   -0x414(%ebp)
   12303:	e8 d0 f0 ff ff       	call   0x113d8
   12308:	ff d0                	call   *%eax
   1230a:	85 c0                	test   %eax,%eax
   1230c:	7c 60                	jl     0x1236e
   1230e:	38 9d fb fb ff ff    	cmp    %bl,-0x405(%ebp)
   12314:	74 58                	je     0x1236e
   12316:	68 ff 03 00 00       	push   $0x3ff
   1231b:	8d 85 fd fb ff ff    	lea    -0x403(%ebp),%eax
   12321:	53                   	push   %ebx
   12322:	50                   	push   %eax
   12323:	88 9d fc fb ff ff    	mov    %bl,-0x404(%ebp)
   12329:	e8 d4 b9 00 00       	call   0x1dd02
   1232e:	83 c4 0c             	add    $0xc,%esp
   12331:	8d 85 f0 fb ff ff    	lea    -0x410(%ebp),%eax
   12337:	50                   	push   %eax
   12338:	68 00 04 00 00       	push   $0x400
   1233d:	8d 85 fc fb ff ff    	lea    -0x404(%ebp),%eax
   12343:	50                   	push   %eax
   12344:	53                   	push   %ebx
   12345:	53                   	push   %ebx
   12346:	ff b5 dc fb ff ff    	push   -0x424(%ebp)
   1234c:	89 9d f0 fb ff ff    	mov    %ebx,-0x410(%ebp)
   12352:	e8 75 f3 ff ff       	call   0x116cc
   12357:	ff d0                	call   *%eax
   12359:	3d 1a 00 00 80       	cmp    $0x8000001a,%eax
   1235e:	0f 85 3e fe ff ff    	jne    0x121a2
   12364:	b0 01                	mov    $0x1,%al
   12366:	eb 08                	jmp    0x12370
   12368:	e8 b5 f9 ff ff       	call   0x11d22
   1236d:	59                   	pop    %ecx
   1236e:	32 c0                	xor    %al,%al
   12370:	8b 4d fc             	mov    -0x4(%ebp),%ecx
   12373:	5f                   	pop    %edi
   12374:	5e                   	pop    %esi
   12375:	33 cd                	xor    %ebp,%ecx
   12377:	5b                   	pop    %ebx
   12378:	e8 2c b9 00 00       	call   0x1dca9
   1237d:	c9                   	leave
   1237e:	c2 08 00             	ret    $0x8
   12381:	cc                   	int3
   12382:	cc                   	int3
   12383:	cc                   	int3
   12384:	cc                   	int3
   12385:	cc                   	int3
   12386:	a1 24 89 07 00       	mov    0x78924,%eax
   1238b:	85 c0                	test   %eax,%eax
   1238d:	74 0f                	je     0x1239e
   1238f:	50                   	push   %eax
   12390:	e8 b5 f3 ff ff       	call   0x1174a
   12395:	ff d0                	call   *%eax
   12397:	83 25 24 89 07 00 00 	andl   $0x0,0x78924
   1239e:	c3                   	ret
   1239f:	cc                   	int3
   123a0:	cc                   	int3
   123a1:	cc                   	int3
   123a2:	cc                   	int3
   123a3:	cc                   	int3
   123a4:	6a 28                	push   $0x28
   123a6:	68 48 7b 07 00       	push   $0x77b48
   123ab:	e8 90 b9 00 00       	call   0x1dd40
   123b0:	33 c0                	xor    %eax,%eax
   123b2:	89 45 d8             	mov    %eax,-0x28(%ebp)
   123b5:	89 45 d4             	mov    %eax,-0x2c(%ebp)
   123b8:	8b 5d 08             	mov    0x8(%ebp),%ebx
   123bb:	3b d8                	cmp    %eax,%ebx
   123bd:	75 07                	jne    0x123c6
   123bf:	33 c0                	xor    %eax,%eax
   123c1:	e9 dd 00 00 00       	jmp    0x124a3
   123c6:	89 45 fc             	mov    %eax,-0x4(%ebp)
   123c9:	8d 4d d4             	lea    -0x2c(%ebp),%ecx
   123cc:	51                   	push   %ecx
   123cd:	50                   	push   %eax
   123ce:	6a 01                	push   $0x1
   123d0:	53                   	push   %ebx
   123d1:	e8 d4 f0 ff ff       	call   0x114aa
   123d6:	ff d0                	call   *%eax
   123d8:	8b d0                	mov    %eax,%edx
   123da:	2b d3                	sub    %ebx,%edx
   123dc:	89 55 c8             	mov    %edx,-0x38(%ebp)
   123df:	8b 70 1c             	mov    0x1c(%eax),%esi
   123e2:	03 f3                	add    %ebx,%esi
   123e4:	8b 78 24             	mov    0x24(%eax),%edi
   123e7:	03 fb                	add    %ebx,%edi
   123e9:	8b 48 20             	mov    0x20(%eax),%ecx
   123ec:	03 cb                	add    %ebx,%ecx
   123ee:	83 65 e0 00          	andl   $0x0,-0x20(%ebp)
   123f2:	8b 5d e0             	mov    -0x20(%ebp),%ebx
   123f5:	3b 58 18             	cmp    0x18(%eax),%ebx
   123f8:	0f 83 8d 00 00 00    	jae    0x1248b
   123fe:	0f bf 1c 5f          	movswl (%edi,%ebx,2),%ebx
   12402:	3b 58 14             	cmp    0x14(%eax),%ebx
   12405:	73 78                	jae    0x1247f
   12407:	8d 1c 9e             	lea    (%esi,%ebx,4),%ebx
   1240a:	89 5d cc             	mov    %ebx,-0x34(%ebp)
   1240d:	39 13                	cmp    %edx,(%ebx)
   1240f:	72 0c                	jb     0x1241d
   12411:	8b 5d d4             	mov    -0x2c(%ebp),%ebx
   12414:	03 d3                	add    %ebx,%edx
   12416:	8b 5d cc             	mov    -0x34(%ebp),%ebx
   12419:	39 13                	cmp    %edx,(%ebx)
   1241b:	72 57                	jb     0x12474
   1241d:	8b 55 0c             	mov    0xc(%ebp),%edx
   12420:	89 55 d0             	mov    %edx,-0x30(%ebp)
   12423:	8b 55 e0             	mov    -0x20(%ebp),%edx
   12426:	8b 14 91             	mov    (%ecx,%edx,4),%edx
   12429:	03 55 08             	add    0x8(%ebp),%edx
   1242c:	89 55 dc             	mov    %edx,-0x24(%ebp)
   1242f:	8a 12                	mov    (%edx),%dl
   12431:	8b 5d d0             	mov    -0x30(%ebp),%ebx
   12434:	3a 13                	cmp    (%ebx),%dl
   12436:	75 29                	jne    0x12461
   12438:	84 d2                	test   %dl,%dl
   1243a:	74 21                	je     0x1245d
   1243c:	8b 55 dc             	mov    -0x24(%ebp),%edx
   1243f:	8a 52 01             	mov    0x1(%edx),%dl
   12442:	88 55 e7             	mov    %dl,-0x19(%ebp)
   12445:	3a 53 01             	cmp    0x1(%ebx),%dl
   12448:	75 17                	jne    0x12461
   1244a:	8b 55 dc             	mov    -0x24(%ebp),%edx
   1244d:	42                   	inc    %edx
   1244e:	42                   	inc    %edx
   1244f:	89 55 dc             	mov    %edx,-0x24(%ebp)
   12452:	43                   	inc    %ebx
   12453:	43                   	inc    %ebx
   12454:	89 5d d0             	mov    %ebx,-0x30(%ebp)
   12457:	80 7d e7 00          	cmpb   $0x0,-0x19(%ebp)
   1245b:	75 d2                	jne    0x1242f
   1245d:	33 d2                	xor    %edx,%edx
   1245f:	eb 05                	jmp    0x12466
   12461:	1b d2                	sbb    %edx,%edx
   12463:	83 da ff             	sbb    $0xffffffff,%edx
   12466:	85 d2                	test   %edx,%edx
   12468:	75 0a                	jne    0x12474
   1246a:	8b 45 cc             	mov    -0x34(%ebp),%eax
   1246d:	8b 00                	mov    (%eax),%eax
   1246f:	03 45 08             	add    0x8(%ebp),%eax
   12472:	eb 25                	jmp    0x12499
   12474:	ff 45 e0             	incl   -0x20(%ebp)
   12477:	8b 55 c8             	mov    -0x38(%ebp),%edx
   1247a:	e9 73 ff ff ff       	jmp    0x123f2
   1247f:	c7 45 fc fe ff ff ff 	movl   $0xfffffffe,-0x4(%ebp)
   12486:	e9 34 ff ff ff       	jmp    0x123bf
   1248b:	8b 45 d8             	mov    -0x28(%ebp),%eax
   1248e:	eb 0c                	jmp    0x1249c
   12490:	33 c0                	xor    %eax,%eax
   12492:	40                   	inc    %eax
   12493:	c3                   	ret
   12494:	8b 65 e8             	mov    -0x18(%ebp),%esp
   12497:	33 c0                	xor    %eax,%eax
   12499:	89 45 d8             	mov    %eax,-0x28(%ebp)
   1249c:	c7 45 fc fe ff ff ff 	movl   $0xfffffffe,-0x4(%ebp)
   124a3:	e8 dd b8 00 00       	call   0x1dd85
   124a8:	c2 08 00             	ret    $0x8
   124ab:	cc                   	int3
   124ac:	cc                   	int3
   124ad:	cc                   	int3
   124ae:	cc                   	int3
   124af:	cc                   	int3
   124b0:	8b ff                	mov    %edi,%edi
   124b2:	55                   	push   %ebp
   124b3:	8b ec                	mov    %esp,%ebp
   124b5:	83 ec 48             	sub    $0x48,%esp
   124b8:	8b 45 0c             	mov    0xc(%ebp),%eax
   124bb:	8b 00                	mov    (%eax),%eax
   124bd:	57                   	push   %edi
   124be:	89 45 d0             	mov    %eax,-0x30(%ebp)
   124c1:	8d 45 d0             	lea    -0x30(%ebp),%eax
   124c4:	50                   	push   %eax
   124c5:	8d 45 b8             	lea    -0x48(%ebp),%eax
   124c8:	50                   	push   %eax
   124c9:	33 ff                	xor    %edi,%edi
   124cb:	68 ff 0f 1f 00       	push   $0x1f0fff
   124d0:	8d 45 f0             	lea    -0x10(%ebp),%eax
   124d3:	50                   	push   %eax
   124d4:	c7 45 b8 18 00 00 00 	movl   $0x18,-0x48(%ebp)
   124db:	89 7d bc             	mov    %edi,-0x44(%ebp)
   124de:	c7 45 c4 00 02 00 00 	movl   $0x200,-0x3c(%ebp)
   124e5:	89 7d c0             	mov    %edi,-0x40(%ebp)
   124e8:	89 7d c8             	mov    %edi,-0x38(%ebp)
   124eb:	89 7d cc             	mov    %edi,-0x34(%ebp)
   124ee:	89 7d d4             	mov    %edi,-0x2c(%ebp)
   124f1:	89 7d f0             	mov    %edi,-0x10(%ebp)
   124f4:	e8 65 ed ff ff       	call   0x1125e
   124f9:	ff d0                	call   *%eax
   124fb:	85 c0                	test   %eax,%eax
   124fd:	0f 8c 4f 03 00 00    	jl     0x12852
   12503:	53                   	push   %ebx
   12504:	56                   	push   %esi
   12505:	6a 40                	push   $0x40
   12507:	be 00 10 00 00       	mov    $0x1000,%esi
   1250c:	56                   	push   %esi
   1250d:	8d 45 ec             	lea    -0x14(%ebp),%eax
   12510:	50                   	push   %eax
   12511:	57                   	push   %edi
   12512:	8d 45 f4             	lea    -0xc(%ebp),%eax
   12515:	50                   	push   %eax
   12516:	ff 75 f0             	push   -0x10(%ebp)
   12519:	bb 00 04 00 00       	mov    $0x400,%ebx
   1251e:	89 7d f4             	mov    %edi,-0xc(%ebp)
   12521:	89 5d ec             	mov    %ebx,-0x14(%ebp)
   12524:	e8 5f ed ff ff       	call   0x11288
   12529:	ff d0                	call   *%eax
   1252b:	85 c0                	test   %eax,%eax
   1252d:	7c 09                	jl     0x12538
   1252f:	8b 45 f4             	mov    -0xc(%ebp),%eax
   12532:	8b 4d 0c             	mov    0xc(%ebp),%ecx
   12535:	89 41 08             	mov    %eax,0x8(%ecx)
   12538:	6a 04                	push   $0x4
   1253a:	56                   	push   %esi
   1253b:	8d 45 ec             	lea    -0x14(%ebp),%eax
   1253e:	50                   	push   %eax
   1253f:	57                   	push   %edi
   12540:	8d 45 e8             	lea    -0x18(%ebp),%eax
   12543:	50                   	push   %eax
   12544:	ff 75 f0             	push   -0x10(%ebp)
   12547:	89 7d e8             	mov    %edi,-0x18(%ebp)
   1254a:	89 5d ec             	mov    %ebx,-0x14(%ebp)
   1254d:	e8 36 ed ff ff       	call   0x11288
   12552:	ff d0                	call   *%eax
   12554:	85 c0                	test   %eax,%eax
   12556:	7c 09                	jl     0x12561
   12558:	8b 45 e8             	mov    -0x18(%ebp),%eax
   1255b:	8b 4d 0c             	mov    0xc(%ebp),%ecx
   1255e:	89 41 0c             	mov    %eax,0xc(%ecx)
   12561:	8d 45 dc             	lea    -0x24(%ebp),%eax
   12564:	50                   	push   %eax
   12565:	ff 75 d0             	push   -0x30(%ebp)
   12568:	e8 d1 f4 ff ff       	call   0x11a3e
   1256d:	ff d0                	call   *%eax
   1256f:	85 c0                	test   %eax,%eax
   12571:	0f 8c d9 02 00 00    	jl     0x12850
   12577:	ff 75 dc             	push   -0x24(%ebp)
   1257a:	e8 1f f2 ff ff       	call   0x1179e
   1257f:	ff d0                	call   *%eax
   12581:	8b 45 f4             	mov    -0xc(%ebp),%eax
   12584:	89 7d e0             	mov    %edi,-0x20(%ebp)
   12587:	3b c7                	cmp    %edi,%eax
   12589:	0f 84 a7 02 00 00    	je     0x12836
   1258f:	8b 75 e8             	mov    -0x18(%ebp),%esi
   12592:	3b f7                	cmp    %edi,%esi
   12594:	0f 84 09 02 00 00    	je     0x127a3
   1259a:	68 14 02 00 00       	push   $0x214
   1259f:	57                   	push   %edi
   125a0:	56                   	push   %esi
   125a1:	89 45 fc             	mov    %eax,-0x4(%ebp)
   125a4:	e8 59 b7 00 00       	call   0x1dd02
   125a9:	8b 45 fc             	mov    -0x4(%ebp),%eax
   125ac:	83 c4 0c             	add    $0xc,%esp
   125af:	6a 60                	push   $0x60
   125b1:	8d 5e 0c             	lea    0xc(%esi),%ebx
   125b4:	50                   	push   %eax
   125b5:	89 3b                	mov    %edi,(%ebx)
   125b7:	89 3e                	mov    %edi,(%esi)
   125b9:	89 45 e0             	mov    %eax,-0x20(%ebp)
   125bc:	e8 87 74 00 00       	call   0x19a48
   125c1:	6a 68                	push   $0x68
   125c3:	50                   	push   %eax
   125c4:	e8 7f 74 00 00       	call   0x19a48
   125c9:	53                   	push   %ebx
   125ca:	50                   	push   %eax
   125cb:	e8 90 74 00 00       	call   0x19a60
   125d0:	6a 6a                	push   $0x6a
   125d2:	5b                   	pop    %ebx
   125d3:	53                   	push   %ebx
   125d4:	50                   	push   %eax
   125d5:	e8 6e 74 00 00       	call   0x19a48
   125da:	57                   	push   %edi
   125db:	50                   	push   %eax
   125dc:	e8 67 74 00 00       	call   0x19a48
   125e1:	53                   	push   %ebx
   125e2:	50                   	push   %eax
   125e3:	e8 60 74 00 00       	call   0x19a48
   125e8:	57                   	push   %edi
   125e9:	50                   	push   %eax
   125ea:	e8 59 74 00 00       	call   0x19a48
   125ef:	6a 68                	push   $0x68
   125f1:	50                   	push   %eax
   125f2:	e8 51 74 00 00       	call   0x19a48
   125f7:	57                   	push   %edi
   125f8:	50                   	push   %eax
   125f9:	89 45 d8             	mov    %eax,-0x28(%ebp)
   125fc:	e8 5f 74 00 00       	call   0x19a60
   12601:	53                   	push   %ebx
   12602:	50                   	push   %eax
   12603:	e8 40 74 00 00       	call   0x19a48
   12608:	57                   	push   %edi
   12609:	50                   	push   %eax
   1260a:	e8 39 74 00 00       	call   0x19a48
   1260f:	53                   	push   %ebx
   12610:	50                   	push   %eax
   12611:	e8 32 74 00 00       	call   0x19a48
   12616:	57                   	push   %edi
   12617:	50                   	push   %eax
   12618:	e8 2b 74 00 00       	call   0x19a48
   1261d:	68 b8 00 00 00       	push   $0xb8
   12622:	50                   	push   %eax
   12623:	e8 20 74 00 00       	call   0x19a48
   12628:	ff 35 70 89 07 00    	push   0x78970
   1262e:	50                   	push   %eax
   1262f:	e8 2c 74 00 00       	call   0x19a60
   12634:	bb 0b c0 00 00       	mov    $0xc00b,%ebx
   12639:	53                   	push   %ebx
   1263a:	50                   	push   %eax
   1263b:	e8 3a 74 00 00       	call   0x19a7a
   12640:	6a 74                	push   $0x74
   12642:	50                   	push   %eax
   12643:	e8 00 74 00 00       	call   0x19a48
   12648:	6a 09                	push   $0x9
   1264a:	50                   	push   %eax
   1264b:	e8 f8 73 00 00       	call   0x19a48
   12650:	bf ff d0 00 00       	mov    $0xd0ff,%edi
   12655:	57                   	push   %edi
   12656:	50                   	push   %eax
   12657:	e8 1e 74 00 00       	call   0x19a7a
   1265c:	68 b9 00 00 00       	push   $0xb9
   12661:	50                   	push   %eax
   12662:	e8 e1 73 00 00       	call   0x19a48
   12667:	8d 4e 10             	lea    0x10(%esi),%ecx
   1266a:	51                   	push   %ecx
   1266b:	50                   	push   %eax
   1266c:	e8 ef 73 00 00       	call   0x19a60
   12671:	68 89 01 00 00       	push   $0x189
   12676:	50                   	push   %eax
   12677:	e8 fe 73 00 00       	call   0x19a7a
   1267c:	6a 61                	push   $0x61
   1267e:	50                   	push   %eax
   1267f:	e8 c4 73 00 00       	call   0x19a48
   12684:	83 65 f8 00          	andl   $0x0,-0x8(%ebp)
   12688:	89 45 fc             	mov    %eax,-0x4(%ebp)
   1268b:	8b 45 08             	mov    0x8(%ebp),%eax
   1268e:	89 45 e4             	mov    %eax,-0x1c(%ebp)
   12691:	6a 00                	push   $0x0
   12693:	ff 75 e4             	push   -0x1c(%ebp)
   12696:	ff 75 fc             	push   -0x4(%ebp)
   12699:	e8 5e 7b 00 00       	call   0x1a1fc
   1269e:	8b c8                	mov    %eax,%ecx
   126a0:	2b 4d e4             	sub    -0x1c(%ebp),%ecx
   126a3:	89 45 e4             	mov    %eax,-0x1c(%ebp)
   126a6:	01 4d f8             	add    %ecx,-0x8(%ebp)
   126a9:	01 4d fc             	add    %ecx,-0x4(%ebp)
   126ac:	83 7d f8 05          	cmpl   $0x5,-0x8(%ebp)
   126b0:	72 df                	jb     0x12691
   126b2:	8b 4d 08             	mov    0x8(%ebp),%ecx
   126b5:	ff 75 fc             	push   -0x4(%ebp)
   126b8:	8b 45 f8             	mov    -0x8(%ebp),%eax
   126bb:	03 c1                	add    %ecx,%eax
   126bd:	50                   	push   %eax
   126be:	e8 fb 73 00 00       	call   0x19abe
   126c3:	50                   	push   %eax
   126c4:	ff 75 d8             	push   -0x28(%ebp)
   126c7:	89 45 fc             	mov    %eax,-0x4(%ebp)
   126ca:	e8 91 73 00 00       	call   0x19a60
   126cf:	8b 45 fc             	mov    -0x4(%ebp),%eax
   126d2:	68 eb 00 00 00       	push   $0xeb
   126d7:	50                   	push   %eax
   126d8:	89 06                	mov    %eax,(%esi)
   126da:	e8 69 73 00 00       	call   0x19a48
   126df:	6a 00                	push   $0x0
   126e1:	50                   	push   %eax
   126e2:	89 46 04             	mov    %eax,0x4(%esi)
   126e5:	e8 5e 73 00 00       	call   0x19a48
   126ea:	6a 68                	push   $0x68
   126ec:	50                   	push   %eax
   126ed:	e8 56 73 00 00       	call   0x19a48
   126f2:	68 e8 03 00 00       	push   $0x3e8
   126f7:	50                   	push   %eax
   126f8:	e8 63 73 00 00       	call   0x19a60
   126fd:	68 b8 00 00 00       	push   $0xb8
   12702:	50                   	push   %eax
   12703:	e8 40 73 00 00       	call   0x19a48
   12708:	ff 35 74 89 07 00    	push   0x78974
   1270e:	50                   	push   %eax
   1270f:	e8 4c 73 00 00       	call   0x19a60
   12714:	53                   	push   %ebx
   12715:	50                   	push   %eax
   12716:	e8 5f 73 00 00       	call   0x19a7a
   1271b:	6a 74                	push   $0x74
   1271d:	50                   	push   %eax
   1271e:	e8 25 73 00 00       	call   0x19a48
   12723:	6a 02                	push   $0x2
   12725:	50                   	push   %eax
   12726:	e8 1d 73 00 00       	call   0x19a48
   1272b:	57                   	push   %edi
   1272c:	50                   	push   %eax
   1272d:	e8 48 73 00 00       	call   0x19a7a
   12732:	50                   	push   %eax
   12733:	ff 36                	push   (%esi)
   12735:	e8 84 73 00 00       	call   0x19abe
   1273a:	8a c8                	mov    %al,%cl
   1273c:	2a 4e 04             	sub    0x4(%esi),%cl
   1273f:	6a 68                	push   $0x68
   12741:	fe c9                	dec    %cl
   12743:	50                   	push   %eax
   12744:	88 4e 08             	mov    %cl,0x8(%esi)
   12747:	e8 fc 72 00 00       	call   0x19a48
   1274c:	83 c6 14             	add    $0x14,%esi
   1274f:	56                   	push   %esi
   12750:	50                   	push   %eax
   12751:	e8 0a 73 00 00       	call   0x19a60
   12756:	68 b8 00 00 00       	push   $0xb8
   1275b:	50                   	push   %eax
   1275c:	e8 e7 72 00 00       	call   0x19a48
   12761:	ff 35 68 89 07 00    	push   0x78968
   12767:	50                   	push   %eax
   12768:	e8 f3 72 00 00       	call   0x19a60
   1276d:	53                   	push   %ebx
   1276e:	50                   	push   %eax
   1276f:	e8 06 73 00 00       	call   0x19a7a
   12774:	6a 74                	push   $0x74
   12776:	50                   	push   %eax
   12777:	e8 cc 72 00 00       	call   0x19a48
   1277c:	6a 02                	push   $0x2
   1277e:	50                   	push   %eax
   1277f:	e8 c4 72 00 00       	call   0x19a48
   12784:	57                   	push   %edi
   12785:	50                   	push   %eax
   12786:	e8 ef 72 00 00       	call   0x19a7a
   1278b:	68 c2 00 00 00       	push   $0xc2
   12790:	50                   	push   %eax
   12791:	e8 b2 72 00 00       	call   0x19a48
   12796:	6a 04                	push   $0x4
   12798:	50                   	push   %eax
   12799:	e8 dc 72 00 00       	call   0x19a7a
   1279e:	8b 45 f4             	mov    -0xc(%ebp),%eax
   127a1:	33 ff                	xor    %edi,%edi
   127a3:	3b c7                	cmp    %edi,%eax
   127a5:	0f 84 8b 00 00 00    	je     0x12836
   127ab:	05 00 04 00 00       	add    $0x400,%eax
   127b0:	8d 70 f4             	lea    -0xc(%eax),%esi
   127b3:	8d 48 f8             	lea    -0x8(%eax),%ecx
   127b6:	56                   	push   %esi
   127b7:	8d 58 fc             	lea    -0x4(%eax),%ebx
   127ba:	8d 50 f0             	lea    -0x10(%eax),%edx
   127bd:	6a 40                	push   $0x40
   127bf:	83 c0 e8             	add    $0xffffffe8,%eax
   127c2:	51                   	push   %ecx
   127c3:	89 45 e4             	mov    %eax,-0x1c(%ebp)
   127c6:	8b 45 08             	mov    0x8(%ebp),%eax
   127c9:	89 03                	mov    %eax,(%ebx)
   127cb:	53                   	push   %ebx
   127cc:	c7 01 05 00 00 00    	movl   $0x5,(%ecx)
   127d2:	6a ff                	push   $0xffffffff
   127d4:	89 4d f8             	mov    %ecx,-0x8(%ebp)
   127d7:	89 55 d8             	mov    %edx,-0x28(%ebp)
   127da:	89 3e                	mov    %edi,(%esi)
   127dc:	ff 15 e4 88 07 00    	call   *0x788e4
   127e2:	85 c0                	test   %eax,%eax
   127e4:	7c 50                	jl     0x12836
   127e6:	8b 45 e0             	mov    -0x20(%ebp),%eax
   127e9:	2b 45 08             	sub    0x8(%ebp),%eax
   127ec:	83 e8 05             	sub    $0x5,%eax
   127ef:	50                   	push   %eax
   127f0:	8b 45 e4             	mov    -0x1c(%ebp),%eax
   127f3:	40                   	inc    %eax
   127f4:	50                   	push   %eax
   127f5:	e8 66 72 00 00       	call   0x19a60
   127fa:	68 e9 00 00 00       	push   $0xe9
   127ff:	ff 75 e4             	push   -0x1c(%ebp)
   12802:	e8 41 72 00 00       	call   0x19a48
   12807:	8b 45 d8             	mov    -0x28(%ebp),%eax
   1280a:	50                   	push   %eax
   1280b:	6a 05                	push   $0x5
   1280d:	ff 75 e4             	push   -0x1c(%ebp)
   12810:	89 38                	mov    %edi,(%eax)
   12812:	ff 75 08             	push   0x8(%ebp)
   12815:	6a ff                	push   $0xffffffff
   12817:	ff 15 d8 88 07 00    	call   *0x788d8
   1281d:	8b 45 0c             	mov    0xc(%ebp),%eax
   12820:	c6 40 10 01          	movb   $0x1,0x10(%eax)
   12824:	8d 45 e0             	lea    -0x20(%ebp),%eax
   12827:	50                   	push   %eax
   12828:	ff 36                	push   (%esi)
   1282a:	ff 75 f8             	push   -0x8(%ebp)
   1282d:	53                   	push   %ebx
   1282e:	6a ff                	push   $0xffffffff
   12830:	ff 15 e4 88 07 00    	call   *0x788e4
   12836:	e8 39 ef ff ff       	call   0x11774
   1283b:	ff d0                	call   *%eax
   1283d:	8b 4d dc             	mov    -0x24(%ebp),%ecx
   12840:	ff 15 50 f4 01 00    	call   *0x1f450
   12846:	ff 75 f0             	push   -0x10(%ebp)
   12849:	e8 04 ed ff ff       	call   0x11552
   1284e:	ff d0                	call   *%eax
   12850:	5e                   	pop    %esi
   12851:	5b                   	pop    %ebx
   12852:	5f                   	pop    %edi
   12853:	c9                   	leave
   12854:	c2 08 00             	ret    $0x8
   12857:	cc                   	int3
   12858:	cc                   	int3
   12859:	cc                   	int3
   1285a:	cc                   	int3
   1285b:	cc                   	int3
   1285c:	8b ff                	mov    %edi,%edi
   1285e:	55                   	push   %ebp
   1285f:	8b ec                	mov    %esp,%ebp
   12861:	83 ec 18             	sub    $0x18,%esp
   12864:	83 65 e8 00          	andl   $0x0,-0x18(%ebp)
   12868:	57                   	push   %edi
   12869:	33 c0                	xor    %eax,%eax
   1286b:	8d 7d ec             	lea    -0x14(%ebp),%edi
   1286e:	ab                   	stos   %eax,%es:(%edi)
   1286f:	ab                   	stos   %eax,%es:(%edi)
   12870:	ab                   	stos   %eax,%es:(%edi)
   12871:	ab                   	stos   %eax,%es:(%edi)
   12872:	8d 45 e8             	lea    -0x18(%ebp),%eax
   12875:	50                   	push   %eax
   12876:	6a 01                	push   $0x1
   12878:	e8 5b f6 ff ff       	call   0x11ed8
   1287d:	5f                   	pop    %edi
   1287e:	84 c0                	test   %al,%al
   12880:	74 55                	je     0x128d7
   12882:	83 7d e8 00          	cmpl   $0x0,-0x18(%ebp)
   12886:	74 4f                	je     0x128d7
   12888:	8d 45 fc             	lea    -0x4(%ebp),%eax
   1288b:	50                   	push   %eax
   1288c:	ff 75 e8             	push   -0x18(%ebp)
   1288f:	e8 aa f1 ff ff       	call   0x11a3e
   12894:	ff d0                	call   *%eax
   12896:	85 c0                	test   %eax,%eax
   12898:	7c 3d                	jl     0x128d7
   1289a:	56                   	push   %esi
   1289b:	ff 75 fc             	push   -0x4(%ebp)
   1289e:	e8 fb ee ff ff       	call   0x1179e
   128a3:	ff d0                	call   *%eax
   128a5:	8b 75 f4             	mov    -0xc(%ebp),%esi
   128a8:	8b 45 08             	mov    0x8(%ebp),%eax
   128ab:	8d 56 14             	lea    0x14(%esi),%edx
   128ae:	2b d0                	sub    %eax,%edx
   128b0:	0f b7 08             	movzwl (%eax),%ecx
   128b3:	66 89 0c 02          	mov    %cx,(%edx,%eax,1)
   128b7:	40                   	inc    %eax
   128b8:	40                   	inc    %eax
   128b9:	66 85 c9             	test   %cx,%cx
   128bc:	75 f2                	jne    0x128b0
   128be:	8b 46 04             	mov    0x4(%esi),%eax
   128c1:	8a 4e 08             	mov    0x8(%esi),%cl
   128c4:	88 08                	mov    %cl,(%eax)
   128c6:	e8 a9 ee ff ff       	call   0x11774
   128cb:	ff d0                	call   *%eax
   128cd:	8b 4d fc             	mov    -0x4(%ebp),%ecx
   128d0:	ff 15 50 f4 01 00    	call   *0x1f450
   128d6:	5e                   	pop    %esi
   128d7:	c9                   	leave
   128d8:	c2 04 00             	ret    $0x4
   128db:	cc                   	int3
   128dc:	cc                   	int3
   128dd:	cc                   	int3
   128de:	cc                   	int3
   128df:	cc                   	int3
   128e0:	8b ff                	mov    %edi,%edi
   128e2:	55                   	push   %ebp
   128e3:	8b ec                	mov    %esp,%ebp
   128e5:	51                   	push   %ecx
   128e6:	83 65 fc 00          	andl   $0x0,-0x4(%ebp)
   128ea:	53                   	push   %ebx
   128eb:	56                   	push   %esi
   128ec:	57                   	push   %edi
   128ed:	be 00 10 00 00       	mov    $0x1000,%esi
   128f2:	68 49 66 73 20       	push   $0x20736649
   128f7:	56                   	push   %esi
   128f8:	6a 00                	push   $0x0
   128fa:	e8 4f ed ff ff       	call   0x1164e
   128ff:	ff d0                	call   *%eax
   12901:	8b f8                	mov    %eax,%edi
   12903:	85 ff                	test   %edi,%edi
   12905:	74 33                	je     0x1293a
   12907:	8d 45 fc             	lea    -0x4(%ebp),%eax
   1290a:	50                   	push   %eax
   1290b:	56                   	push   %esi
   1290c:	57                   	push   %edi
   1290d:	ff 75 08             	push   0x8(%ebp)
   12910:	e8 6f ea ff ff       	call   0x11384
   12915:	ff d0                	call   *%eax
   12917:	8b d8                	mov    %eax,%ebx
   12919:	81 fb 04 00 00 c0    	cmp    $0xc0000004,%ebx
   1291f:	75 0c                	jne    0x1292d
   12921:	6a 00                	push   $0x0
   12923:	57                   	push   %edi
   12924:	e8 d1 ec ff ff       	call   0x115fa
   12929:	ff d0                	call   *%eax
   1292b:	03 f6                	add    %esi,%esi
   1292d:	85 db                	test   %ebx,%ebx
   1292f:	75 c1                	jne    0x128f2
   12931:	8b c7                	mov    %edi,%eax
   12933:	5f                   	pop    %edi
   12934:	5e                   	pop    %esi
   12935:	5b                   	pop    %ebx
   12936:	c9                   	leave
   12937:	c2 04 00             	ret    $0x4
   1293a:	33 c0                	xor    %eax,%eax
   1293c:	eb f5                	jmp    0x12933
   1293e:	cc                   	int3
   1293f:	cc                   	int3
   12940:	cc                   	int3
   12941:	cc                   	int3
   12942:	cc                   	int3
   12943:	cc                   	int3
   12944:	6a 00                	push   $0x0
   12946:	68 f4 88 07 00       	push   $0x788f4
   1294b:	e8 70 f0 ff ff       	call   0x119c0
   12950:	ff d0                	call   *%eax
   12952:	68 00 01 00 00       	push   $0x100
   12957:	6a 00                	push   $0x0
   12959:	68 b8 7f 07 00       	push   $0x77fb8
   1295e:	e8 9f b3 00 00       	call   0x1dd02
   12963:	83 c4 0c             	add    $0xc,%esp
   12966:	c3                   	ret
   12967:	cc                   	int3
   12968:	cc                   	int3
   12969:	cc                   	int3
   1296a:	cc                   	int3
   1296b:	cc                   	int3
   1296c:	8b ff                	mov    %edi,%edi
   1296e:	55                   	push   %ebp
   1296f:	8b ec                	mov    %esp,%ebp
   12971:	53                   	push   %ebx
   12972:	8b 5d 08             	mov    0x8(%ebp),%ebx
   12975:	83 fb 40             	cmp    $0x40,%ebx
   12978:	77 2d                	ja     0x129a7
   1297a:	56                   	push   %esi
   1297b:	57                   	push   %edi
   1297c:	33 ff                	xor    %edi,%edi
   1297e:	57                   	push   %edi
   1297f:	57                   	push   %edi
   12980:	57                   	push   %edi
   12981:	57                   	push   %edi
   12982:	be f4 88 07 00       	mov    $0x788f4,%esi
   12987:	56                   	push   %esi
   12988:	e8 5d f0 ff ff       	call   0x119ea
   1298d:	ff d0                	call   *%eax
   1298f:	85 c0                	test   %eax,%eax
   12991:	7c 12                	jl     0x129a5
   12993:	57                   	push   %edi
   12994:	8d 04 9d b8 7f 07 00 	lea    0x77fb8(,%ebx,4),%eax
   1299b:	ff 00                	incl   (%eax)
   1299d:	56                   	push   %esi
   1299e:	e8 71 f0 ff ff       	call   0x11a14
   129a3:	ff d0                	call   *%eax
   129a5:	5f                   	pop    %edi
   129a6:	5e                   	pop    %esi
   129a7:	5b                   	pop    %ebx
   129a8:	5d                   	pop    %ebp
   129a9:	c2 04 00             	ret    $0x4
   129ac:	cc                   	int3
   129ad:	cc                   	int3
   129ae:	cc                   	int3
   129af:	cc                   	int3
   129b0:	cc                   	int3
   129b1:	cc                   	int3
   129b2:	8b ff                	mov    %edi,%edi
   129b4:	55                   	push   %ebp
   129b5:	8b ec                	mov    %esp,%ebp
   129b7:	53                   	push   %ebx
   129b8:	56                   	push   %esi
   129b9:	57                   	push   %edi
   129ba:	8b 7d 08             	mov    0x8(%ebp),%edi
   129bd:	83 ff 40             	cmp    $0x40,%edi
   129c0:	77 2b                	ja     0x129ed
   129c2:	33 db                	xor    %ebx,%ebx
   129c4:	53                   	push   %ebx
   129c5:	53                   	push   %ebx
   129c6:	53                   	push   %ebx
   129c7:	53                   	push   %ebx
   129c8:	be f4 88 07 00       	mov    $0x788f4,%esi
   129cd:	56                   	push   %esi
   129ce:	e8 17 f0 ff ff       	call   0x119ea
   129d3:	ff d0                	call   *%eax
   129d5:	85 c0                	test   %eax,%eax
   129d7:	7c 14                	jl     0x129ed
   129d9:	8b 3c bd b8 7f 07 00 	mov    0x77fb8(,%edi,4),%edi
   129e0:	53                   	push   %ebx
   129e1:	56                   	push   %esi
   129e2:	e8 2d f0 ff ff       	call   0x11a14
   129e7:	ff d0                	call   *%eax
   129e9:	8b c7                	mov    %edi,%eax
   129eb:	eb 02                	jmp    0x129ef
   129ed:	33 c0                	xor    %eax,%eax
   129ef:	5f                   	pop    %edi
   129f0:	5e                   	pop    %esi
   129f1:	5b                   	pop    %ebx
   129f2:	5d                   	pop    %ebp
   129f3:	c2 04 00             	ret    $0x4
   129f6:	cc                   	int3
   129f7:	cc                   	int3
   129f8:	cc                   	int3
   129f9:	cc                   	int3
   129fa:	cc                   	int3
   129fb:	cc                   	int3
   129fc:	8b ff                	mov    %edi,%edi
   129fe:	55                   	push   %ebp
   129ff:	8b ec                	mov    %esp,%ebp
   12a01:	56                   	push   %esi
   12a02:	8b 75 08             	mov    0x8(%ebp),%esi
   12a05:	57                   	push   %edi
   12a06:	ff 36                	push   (%esi)
   12a08:	e8 df f2 ff ff       	call   0x11cec
   12a0d:	ff 36                	push   (%esi)
   12a0f:	8b f8                	mov    %eax,%edi
   12a11:	56                   	push   %esi
   12a12:	57                   	push   %edi
   12a13:	e8 02 b3 00 00       	call   0x1dd1a
   12a18:	83 c4 10             	add    $0x10,%esp
   12a1b:	8b c7                	mov    %edi,%eax
   12a1d:	5f                   	pop    %edi
   12a1e:	5e                   	pop    %esi
   12a1f:	5d                   	pop    %ebp
   12a20:	c2 04 00             	ret    $0x4
   12a23:	cc                   	int3
   12a24:	cc                   	int3
   12a25:	cc                   	int3
   12a26:	cc                   	int3
   12a27:	cc                   	int3
   12a28:	8b ff                	mov    %edi,%edi
   12a2a:	55                   	push   %ebp
   12a2b:	8b ec                	mov    %esp,%ebp
   12a2d:	53                   	push   %ebx
   12a2e:	56                   	push   %esi
   12a2f:	57                   	push   %edi
   12a30:	8b 7d 08             	mov    0x8(%ebp),%edi
   12a33:	8b 47 04             	mov    0x4(%edi),%eax
   12a36:	8b f1                	mov    %ecx,%esi
   12a38:	8b 1e                	mov    (%esi),%ebx
   12a3a:	89 46 04             	mov    %eax,0x4(%esi)
   12a3d:	40                   	inc    %eax
   12a3e:	50                   	push   %eax
   12a3f:	e8 a8 f2 ff ff       	call   0x11cec
   12a44:	ff 76 04             	push   0x4(%esi)
   12a47:	89 06                	mov    %eax,(%esi)
   12a49:	ff 37                	push   (%edi)
   12a4b:	50                   	push   %eax
   12a4c:	e8 c9 b2 00 00       	call   0x1dd1a
   12a51:	8b 46 04             	mov    0x4(%esi),%eax
   12a54:	8b 0e                	mov    (%esi),%ecx
   12a56:	53                   	push   %ebx
   12a57:	c6 04 08 00          	movb   $0x0,(%eax,%ecx,1)
   12a5b:	e8 c2 f2 ff ff       	call   0x11d22
   12a60:	83 c4 14             	add    $0x14,%esp
   12a63:	5f                   	pop    %edi
   12a64:	8b c6                	mov    %esi,%eax
   12a66:	5e                   	pop    %esi
   12a67:	5b                   	pop    %ebx
   12a68:	5d                   	pop    %ebp
   12a69:	c2 04 00             	ret    $0x4
   12a6c:	cc                   	int3
   12a6d:	cc                   	int3
   12a6e:	cc                   	int3
   12a6f:	cc                   	int3
   12a70:	cc                   	int3
   12a71:	cc                   	int3
   12a72:	8b ff                	mov    %edi,%edi
   12a74:	56                   	push   %esi
   12a75:	57                   	push   %edi
   12a76:	68 49 66 73 20       	push   $0x20736649
   12a7b:	6a 20                	push   $0x20
   12a7d:	6a 00                	push   $0x0
   12a7f:	8b f1                	mov    %ecx,%esi
   12a81:	e8 c8 eb ff ff       	call   0x1164e
   12a86:	ff d0                	call   *%eax
   12a88:	6a 00                	push   $0x0
   12a8a:	8b f8                	mov    %eax,%edi
   12a8c:	6a 01                	push   $0x1
   12a8e:	8b ce                	mov    %esi,%ecx
   12a90:	89 3e                	mov    %edi,(%esi)
   12a92:	e8 0b e3 ff ff       	call   0x10da2
   12a97:	89 46 08             	mov    %eax,0x8(%esi)
   12a9a:	89 56 0c             	mov    %edx,0xc(%esi)
   12a9d:	85 ff                	test   %edi,%edi
   12a9f:	75 0c                	jne    0x12aad
   12aa1:	68 9a 00 00 c0       	push   $0xc000009a
   12aa6:	e8 fb ea ff ff       	call   0x115a6
   12aab:	ff d0                	call   *%eax
   12aad:	5f                   	pop    %edi
   12aae:	8b c6                	mov    %esi,%eax
   12ab0:	5e                   	pop    %esi
   12ab1:	c3                   	ret
   12ab2:	cc                   	int3
   12ab3:	cc                   	int3
   12ab4:	cc                   	int3
   12ab5:	cc                   	int3
   12ab6:	cc                   	int3
   12ab7:	cc                   	int3
   12ab8:	8b ff                	mov    %edi,%edi
   12aba:	55                   	push   %ebp
   12abb:	8b ec                	mov    %esp,%ebp
   12abd:	56                   	push   %esi
   12abe:	57                   	push   %edi
   12abf:	8b 7d 08             	mov    0x8(%ebp),%edi
   12ac2:	57                   	push   %edi
   12ac3:	8b f1                	mov    %ecx,%esi
   12ac5:	e8 5e ff ff ff       	call   0x12a28
   12aca:	8d 47 08             	lea    0x8(%edi),%eax
   12acd:	50                   	push   %eax
   12ace:	8d 4e 08             	lea    0x8(%esi),%ecx
   12ad1:	e8 52 ff ff ff       	call   0x12a28
   12ad6:	8d 47 10             	lea    0x10(%edi),%eax
   12ad9:	50                   	push   %eax
   12ada:	8d 4e 10             	lea    0x10(%esi),%ecx
   12add:	e8 46 ff ff ff       	call   0x12a28
   12ae2:	8d 47 18             	lea    0x18(%edi),%eax
   12ae5:	50                   	push   %eax
   12ae6:	8d 4e 18             	lea    0x18(%esi),%ecx
   12ae9:	e8 3a ff ff ff       	call   0x12a28
   12aee:	8b 47 20             	mov    0x20(%edi),%eax
   12af1:	89 46 20             	mov    %eax,0x20(%esi)
   12af4:	8b 47 28             	mov    0x28(%edi),%eax
   12af7:	89 46 28             	mov    %eax,0x28(%esi)
   12afa:	8b 47 2c             	mov    0x2c(%edi),%eax
   12afd:	89 46 2c             	mov    %eax,0x2c(%esi)
   12b00:	8b 47 30             	mov    0x30(%edi),%eax
   12b03:	89 46 30             	mov    %eax,0x30(%esi)
   12b06:	8b 47 34             	mov    0x34(%edi),%eax
   12b09:	83 c7 38             	add    $0x38,%edi
   12b0c:	57                   	push   %edi
   12b0d:	8d 4e 38             	lea    0x38(%esi),%ecx
   12b10:	89 46 34             	mov    %eax,0x34(%esi)
   12b13:	e8 10 ff ff ff       	call   0x12a28
   12b18:	5f                   	pop    %edi
   12b19:	8b c6                	mov    %esi,%eax
   12b1b:	5e                   	pop    %esi
   12b1c:	5d                   	pop    %ebp
   12b1d:	c2 04 00             	ret    $0x4
   12b20:	cc                   	int3
   12b21:	cc                   	int3
   12b22:	cc                   	int3
   12b23:	cc                   	int3
   12b24:	cc                   	int3
   12b25:	cc                   	int3
   12b26:	8b ff                	mov    %edi,%edi
   12b28:	55                   	push   %ebp
   12b29:	8b ec                	mov    %esp,%ebp
   12b2b:	56                   	push   %esi
   12b2c:	8b 75 0c             	mov    0xc(%ebp),%esi
   12b2f:	57                   	push   %edi
   12b30:	8b f9                	mov    %ecx,%edi
   12b32:	83 fe ff             	cmp    $0xffffffff,%esi
   12b35:	75 0f                	jne    0x12b46
   12b37:	8b 75 08             	mov    0x8(%ebp),%esi
   12b3a:	8d 4e 01             	lea    0x1(%esi),%ecx
   12b3d:	8a 06                	mov    (%esi),%al
   12b3f:	46                   	inc    %esi
   12b40:	84 c0                	test   %al,%al
   12b42:	75 f9                	jne    0x12b3d
   12b44:	2b f1                	sub    %ecx,%esi
   12b46:	8d 46 01             	lea    0x1(%esi),%eax
   12b49:	50                   	push   %eax
   12b4a:	e8 9d f1 ff ff       	call   0x11cec
   12b4f:	59                   	pop    %ecx
   12b50:	89 07                	mov    %eax,(%edi)
   12b52:	85 c0                	test   %eax,%eax
   12b54:	75 0b                	jne    0x12b61
   12b56:	68 9a 00 00 c0       	push   $0xc000009a
   12b5b:	ff 15 20 f4 01 00    	call   *0x1f420
   12b61:	8b 07                	mov    (%edi),%eax
   12b63:	56                   	push   %esi
   12b64:	ff 75 08             	push   0x8(%ebp)
   12b67:	c6 04 06 00          	movb   $0x0,(%esi,%eax,1)
   12b6b:	ff 37                	push   (%edi)
   12b6d:	e8 a8 b1 00 00       	call   0x1dd1a
   12b72:	83 c4 0c             	add    $0xc,%esp
   12b75:	89 77 04             	mov    %esi,0x4(%edi)
   12b78:	5f                   	pop    %edi
   12b79:	5e                   	pop    %esi
   12b7a:	5d                   	pop    %ebp
   12b7b:	c2 08 00             	ret    $0x8
   12b7e:	cc                   	int3
   12b7f:	cc                   	int3
   12b80:	cc                   	int3
   12b81:	cc                   	int3
   12b82:	cc                   	int3
   12b83:	cc                   	int3
   12b84:	8b ff                	mov    %edi,%edi
   12b86:	55                   	push   %ebp
   12b87:	8b ec                	mov    %esp,%ebp
   12b89:	53                   	push   %ebx
   12b8a:	56                   	push   %esi
   12b8b:	57                   	push   %edi
   12b8c:	8b 7d 08             	mov    0x8(%ebp),%edi
   12b8f:	8b 47 04             	mov    0x4(%edi),%eax
   12b92:	8b f1                	mov    %ecx,%esi
   12b94:	8b 1e                	mov    (%esi),%ebx
   12b96:	89 46 04             	mov    %eax,0x4(%esi)
   12b99:	33 c9                	xor    %ecx,%ecx
   12b9b:	6a 02                	push   $0x2
   12b9d:	40                   	inc    %eax
   12b9e:	5a                   	pop    %edx
   12b9f:	f7 e2                	mul    %edx
   12ba1:	0f 90 c1             	seto   %cl
   12ba4:	f7 d9                	neg    %ecx
   12ba6:	0b c8                	or     %eax,%ecx
   12ba8:	51                   	push   %ecx
   12ba9:	e8 3e f1 ff ff       	call   0x11cec
   12bae:	8b 4e 04             	mov    0x4(%esi),%ecx
   12bb1:	03 c9                	add    %ecx,%ecx
   12bb3:	51                   	push   %ecx
   12bb4:	89 06                	mov    %eax,(%esi)
   12bb6:	ff 37                	push   (%edi)
   12bb8:	50                   	push   %eax
   12bb9:	e8 5c b1 00 00       	call   0x1dd1a
   12bbe:	8b 46 04             	mov    0x4(%esi),%eax
   12bc1:	8b 0e                	mov    (%esi),%ecx
   12bc3:	33 d2                	xor    %edx,%edx
   12bc5:	53                   	push   %ebx
   12bc6:	66 89 14 41          	mov    %dx,(%ecx,%eax,2)
   12bca:	e8 53 f1 ff ff       	call   0x11d22
   12bcf:	83 c4 14             	add    $0x14,%esp
   12bd2:	5f                   	pop    %edi
   12bd3:	8b c6                	mov    %esi,%eax
   12bd5:	5e                   	pop    %esi
   12bd6:	5b                   	pop    %ebx
   12bd7:	5d                   	pop    %ebp
   12bd8:	c2 04 00             	ret    $0x4
   12bdb:	cc                   	int3
   12bdc:	cc                   	int3
   12bdd:	cc                   	int3
   12bde:	cc                   	int3
   12bdf:	cc                   	int3
   12be0:	8b ff                	mov    %edi,%edi
   12be2:	55                   	push   %ebp
   12be3:	8b ec                	mov    %esp,%ebp
   12be5:	56                   	push   %esi
   12be6:	57                   	push   %edi
   12be7:	8b 7d 0c             	mov    0xc(%ebp),%edi
   12bea:	8b f1                	mov    %ecx,%esi
   12bec:	83 ff ff             	cmp    $0xffffffff,%edi
   12bef:	75 0a                	jne    0x12bfb
   12bf1:	ff 75 08             	push   0x8(%ebp)
   12bf4:	e8 67 dd ff ff       	call   0x10960
   12bf9:	8b f8                	mov    %eax,%edi
   12bfb:	33 c9                	xor    %ecx,%ecx
   12bfd:	6a 02                	push   $0x2
   12bff:	5a                   	pop    %edx
   12c00:	8d 47 01             	lea    0x1(%edi),%eax
   12c03:	f7 e2                	mul    %edx
   12c05:	0f 90 c1             	seto   %cl
   12c08:	f7 d9                	neg    %ecx
   12c0a:	0b c8                	or     %eax,%ecx
   12c0c:	51                   	push   %ecx
   12c0d:	e8 da f0 ff ff       	call   0x11cec
   12c12:	59                   	pop    %ecx
   12c13:	89 06                	mov    %eax,(%esi)
   12c15:	85 c0                	test   %eax,%eax
   12c17:	75 0b                	jne    0x12c24
   12c19:	68 9a 00 00 c0       	push   $0xc000009a
   12c1e:	ff 15 20 f4 01 00    	call   *0x1f420
   12c24:	8b 0e                	mov    (%esi),%ecx
   12c26:	8d 04 3f             	lea    (%edi,%edi,1),%eax
   12c29:	50                   	push   %eax
   12c2a:	ff 75 08             	push   0x8(%ebp)
   12c2d:	33 d2                	xor    %edx,%edx
   12c2f:	66 89 14 08          	mov    %dx,(%eax,%ecx,1)
   12c33:	ff 36                	push   (%esi)
   12c35:	e8 e0 b0 00 00       	call   0x1dd1a
   12c3a:	83 c4 0c             	add    $0xc,%esp
   12c3d:	89 7e 04             	mov    %edi,0x4(%esi)
   12c40:	5f                   	pop    %edi
   12c41:	5e                   	pop    %esi
   12c42:	5d                   	pop    %ebp
   12c43:	c2 08 00             	ret    $0x8
   12c46:	cc                   	int3
   12c47:	cc                   	int3
   12c48:	cc                   	int3
   12c49:	cc                   	int3
   12c4a:	cc                   	int3
   12c4b:	cc                   	int3
   12c4c:	8b ff                	mov    %edi,%edi
   12c4e:	55                   	push   %ebp
   12c4f:	8b ec                	mov    %esp,%ebp
   12c51:	8b 45 08             	mov    0x8(%ebp),%eax
   12c54:	8b 15 bc 8a 07 00    	mov    0x78abc,%edx
   12c5a:	eb 02                	jmp    0x12c5e
   12c5c:	8b c1                	mov    %ecx,%eax
   12c5e:	8b 08                	mov    (%eax),%ecx
   12c60:	3b ca                	cmp    %edx,%ecx
   12c62:	75 f8                	jne    0x12c5c
   12c64:	5d                   	pop    %ebp
   12c65:	c2 04 00             	ret    $0x4
   12c68:	cc                   	int3
   12c69:	cc                   	int3
   12c6a:	cc                   	int3
   12c6b:	cc                   	int3
   12c6c:	cc                   	int3
   12c6d:	cc                   	int3
   12c6e:	8b ff                	mov    %edi,%edi
   12c70:	55                   	push   %ebp
   12c71:	8b ec                	mov    %esp,%ebp
   12c73:	8b 41 04             	mov    0x4(%ecx),%eax
   12c76:	8b 48 04             	mov    0x4(%eax),%ecx
   12c79:	8b 15 b0 8a 07 00    	mov    0x78ab0,%edx
   12c7f:	3b ca                	cmp    %edx,%ecx
   12c81:	74 19                	je     0x12c9c
   12c83:	56                   	push   %esi
   12c84:	8b 75 08             	mov    0x8(%ebp),%esi
   12c87:	8b 36                	mov    (%esi),%esi
   12c89:	39 71 0c             	cmp    %esi,0xc(%ecx)
   12c8c:	73 05                	jae    0x12c93
   12c8e:	8b 49 08             	mov    0x8(%ecx),%ecx
   12c91:	eb 04                	jmp    0x12c97
   12c93:	8b c1                	mov    %ecx,%eax
   12c95:	8b 09                	mov    (%ecx),%ecx
   12c97:	3b ca                	cmp    %edx,%ecx
   12c99:	75 ee                	jne    0x12c89
   12c9b:	5e                   	pop    %esi
   12c9c:	5d                   	pop    %ebp
   12c9d:	c2 04 00             	ret    $0x4
   12ca0:	cc                   	int3
   12ca1:	cc                   	int3
   12ca2:	cc                   	int3
   12ca3:	cc                   	int3
   12ca4:	cc                   	int3
   12ca5:	cc                   	int3
   12ca6:	8b ff                	mov    %edi,%edi
   12ca8:	55                   	push   %ebp
   12ca9:	8b ec                	mov    %esp,%ebp
   12cab:	8b 55 08             	mov    0x8(%ebp),%edx
   12cae:	8b 42 08             	mov    0x8(%edx),%eax
   12cb1:	56                   	push   %esi
   12cb2:	8b 30                	mov    (%eax),%esi
   12cb4:	89 72 08             	mov    %esi,0x8(%edx)
   12cb7:	8b 30                	mov    (%eax),%esi
   12cb9:	3b 35 b0 8a 07 00    	cmp    0x78ab0,%esi
   12cbf:	74 03                	je     0x12cc4
   12cc1:	89 56 04             	mov    %edx,0x4(%esi)
   12cc4:	8b 72 04             	mov    0x4(%edx),%esi
   12cc7:	89 70 04             	mov    %esi,0x4(%eax)
   12cca:	8b 49 04             	mov    0x4(%ecx),%ecx
   12ccd:	5e                   	pop    %esi
   12cce:	3b 51 04             	cmp    0x4(%ecx),%edx
   12cd1:	75 05                	jne    0x12cd8
   12cd3:	89 41 04             	mov    %eax,0x4(%ecx)
   12cd6:	eb 0e                	jmp    0x12ce6
   12cd8:	8b 4a 04             	mov    0x4(%edx),%ecx
   12cdb:	3b 11                	cmp    (%ecx),%edx
   12cdd:	75 04                	jne    0x12ce3
   12cdf:	89 01                	mov    %eax,(%ecx)
   12ce1:	eb 03                	jmp    0x12ce6
   12ce3:	89 41 08             	mov    %eax,0x8(%ecx)
   12ce6:	89 10                	mov    %edx,(%eax)
   12ce8:	89 42 04             	mov    %eax,0x4(%edx)
   12ceb:	5d                   	pop    %ebp
   12cec:	c2 04 00             	ret    $0x4
   12cef:	cc                   	int3
   12cf0:	cc                   	int3
   12cf1:	cc                   	int3
   12cf2:	cc                   	int3
   12cf3:	cc                   	int3
   12cf4:	8b ff                	mov    %edi,%edi
   12cf6:	55                   	push   %ebp
   12cf7:	8b ec                	mov    %esp,%ebp
   12cf9:	8b 55 08             	mov    0x8(%ebp),%edx
   12cfc:	8b 02                	mov    (%edx),%eax
   12cfe:	56                   	push   %esi
   12cff:	8b 70 08             	mov    0x8(%eax),%esi
   12d02:	89 32                	mov    %esi,(%edx)
   12d04:	8b 70 08             	mov    0x8(%eax),%esi
   12d07:	3b 35 b0 8a 07 00    	cmp    0x78ab0,%esi
   12d0d:	74 03                	je     0x12d12
   12d0f:	89 56 04             	mov    %edx,0x4(%esi)
   12d12:	8b 72 04             	mov    0x4(%edx),%esi
   12d15:	89 70 04             	mov    %esi,0x4(%eax)
   12d18:	8b 49 04             	mov    0x4(%ecx),%ecx
   12d1b:	5e                   	pop    %esi
   12d1c:	3b 51 04             	cmp    0x4(%ecx),%edx
   12d1f:	75 05                	jne    0x12d26
   12d21:	89 41 04             	mov    %eax,0x4(%ecx)
   12d24:	eb 0f                	jmp    0x12d35
   12d26:	8b 4a 04             	mov    0x4(%edx),%ecx
   12d29:	3b 51 08             	cmp    0x8(%ecx),%edx
   12d2c:	75 05                	jne    0x12d33
   12d2e:	89 41 08             	mov    %eax,0x8(%ecx)
   12d31:	eb 02                	jmp    0x12d35
   12d33:	89 01                	mov    %eax,(%ecx)
   12d35:	89 50 08             	mov    %edx,0x8(%eax)
   12d38:	89 42 04             	mov    %eax,0x4(%edx)
   12d3b:	5d                   	pop    %ebp
   12d3c:	c2 04 00             	ret    $0x4
   12d3f:	cc                   	int3
   12d40:	cc                   	int3
   12d41:	cc                   	int3
   12d42:	cc                   	int3
   12d43:	cc                   	int3
   12d44:	8b ff                	mov    %edi,%edi
   12d46:	55                   	push   %ebp
   12d47:	8b ec                	mov    %esp,%ebp
   12d49:	8b 41 04             	mov    0x4(%ecx),%eax
   12d4c:	56                   	push   %esi
   12d4d:	8b 70 04             	mov    0x4(%eax),%esi
   12d50:	57                   	push   %edi
   12d51:	8b f8                	mov    %eax,%edi
   12d53:	eb 19                	jmp    0x12d6e
   12d55:	ff 75 08             	push   0x8(%ebp)
   12d58:	8d 46 10             	lea    0x10(%esi),%eax
   12d5b:	50                   	push   %eax
   12d5c:	e8 a7 6c 00 00       	call   0x19a08
   12d61:	84 c0                	test   %al,%al
   12d63:	74 05                	je     0x12d6a
   12d65:	8b 76 08             	mov    0x8(%esi),%esi
   12d68:	eb 04                	jmp    0x12d6e
   12d6a:	8b fe                	mov    %esi,%edi
   12d6c:	8b 36                	mov    (%esi),%esi
   12d6e:	3b 35 bc 8a 07 00    	cmp    0x78abc,%esi
   12d74:	75 df                	jne    0x12d55
   12d76:	8b c7                	mov    %edi,%eax
   12d78:	5f                   	pop    %edi
   12d79:	5e                   	pop    %esi
   12d7a:	5d                   	pop    %ebp
   12d7b:	c2 04 00             	ret    $0x4
   12d7e:	cc                   	int3
   12d7f:	cc                   	int3
   12d80:	cc                   	int3
   12d81:	cc                   	int3
   12d82:	cc                   	int3
   12d83:	cc                   	int3
   12d84:	8b ff                	mov    %edi,%edi
   12d86:	55                   	push   %ebp
   12d87:	8b ec                	mov    %esp,%ebp
   12d89:	8b 41 04             	mov    0x4(%ecx),%eax
   12d8c:	56                   	push   %esi
   12d8d:	8b 70 04             	mov    0x4(%eax),%esi
   12d90:	57                   	push   %edi
   12d91:	8b f8                	mov    %eax,%edi
   12d93:	eb 19                	jmp    0x12dae
   12d95:	ff 75 08             	push   0x8(%ebp)
   12d98:	8d 46 0c             	lea    0xc(%esi),%eax
   12d9b:	50                   	push   %eax
   12d9c:	e8 67 6c 00 00       	call   0x19a08
   12da1:	84 c0                	test   %al,%al
   12da3:	74 05                	je     0x12daa
   12da5:	8b 76 08             	mov    0x8(%esi),%esi
   12da8:	eb 04                	jmp    0x12dae
   12daa:	8b fe                	mov    %esi,%edi
   12dac:	8b 36                	mov    (%esi),%esi
   12dae:	3b 35 c0 8a 07 00    	cmp    0x78ac0,%esi
   12db4:	75 df                	jne    0x12d95
   12db6:	8b c7                	mov    %edi,%eax
   12db8:	5f                   	pop    %edi
